MODULE windows x86_64 432DAF85D858475C8F100B29F411CB2C1 Qt5PrintSupport.pdb
INFO CODE_ID 5C53FDC15E000 Qt5PrintSupport.dll
FUNC 1000 c 0 pre_c_init
FUNC 1200 12b 0 _DllMainCRTStartup
FUNC 1330 4f 0 DllMainCRTStartup
FUNC 1380 f 0 atexit
FUNC 13b0 3e1 0 updateState
FUNC 1960 22 0 alphaClipping
FUNC 1990 c 0 continueCall
FUNC 19a0 66 0 cleanUp
FUNC 1b20 343 0 addPenWidth
FUNC 1e70 4e 0 addAlphaRect
FUNC 1ee0 68 0 fullyContained
FUNC 1f50 135 0 resetState
FUNC 2090 dd 0 drawPath
FUNC 2170 111 0 drawPixmap
FUNC 2290 1b6 0 drawTextItem
FUNC 2450 111 0 drawTiledPixmap
FUNC 2570 21c 0 drawPolygon
FUNC 2790 520 0 drawAlphaImage
FUNC 2cb0 901 0 flushAndInit
FUNC 35c0 137 0 begin
FUNC 3700 2a 0 end
FUNC 38b0 62 0 operator=
FUNC 3920 b8 0 operator==
FUNC 39e0 48 0 id
FUNC 3a30 48 0 name
FUNC 3a80 48 0 location
FUNC 3ad0 48 0 makeAndModel
FUNC 3c00 4a 0 isValidPageLayout
FUNC 3c50 38 0 supportsMultipleCopies
FUNC 3c90 38 0 supportsCollateCopies
FUNC 3cd0 47 0 defaultPageSize
FUNC 3d20 48 0 supportedPageSizes
FUNC 3d70 5a 0 supportedPageSize
FUNC 3dd0 5d 0 supportedPageSize
FUNC 3e30 5d 0 supportedPageSize
FUNC 3e90 5d 0 supportedPageSize
FUNC 3ef0 61 0 supportedPageSize
FUNC 4020 7d 0 printableMargins
FUNC 40e0 4b 0 supportedResolutions
FUNC 4130 59 0 defaultInputSlot
FUNC 4190 4b 0 supportedInputSlots
FUNC 41e0 59 0 defaultOutputBin
FUNC 4240 4b 0 supportedOutputBins
FUNC 42d0 4b 0 supportedDuplexModes
FUNC 4360 4b 0 supportedColorModes
FUNC 43b0 4b 0 supportedMimeTypes
FUNC 4400 1083 0 format
FUNC 5490 10d 0 operator<<
FUNC 5610 2f 0 end
FUNC 5640 7 0 newPage
FUNC 5660 7 0 metric
FUNC 59f0 d9b 0 property
FUNC 67a0 38d 0 _tcf_1
FUNC 6b30 dfe 0 setProperty
FUNC 79d0 6 0 devType
FUNC 79e0 f 0 metric
FUNC 79f0 9 0 paintEngine
FUNC 7a00 38 0 newPage
FUNC 7a40 34 0 setPageSize
FUNC 7a80 43 0 setMargins
FUNC 7ba0 89 0 setPageSizeMM
FUNC 7d80 c6 0 qt_printerPaperSize
FUNC 7e50 12e 0 findValidPrinter
FUNC 7f80 152 0 initEngines
FUNC 80e0 33 0 previewPages
FUNC 8120 fe 0 setPreviewMode
FUNC 8220 12e 0 setProperty
FUNC 8710 44 0 printerName
FUNC 8760 23 0 isValid
FUNC 8790 44 0 outputFileName
FUNC 87e0 44 0 printProgram
FUNC 8830 99 0 setPrintProgram
FUNC 88d0 44 0 docName
FUNC 8920 99 0 setDocName
FUNC 89c0 44 0 creator
FUNC 8a10 99 0 setCreator
FUNC 8ab0 34 0 orientation
FUNC 8af0 7 0 setOrientation
FUNC 8b00 50 0 pageSize
FUNC 8b50 2 0 paperSize
FUNC 8b60 a4 0 setPaperName
FUNC 8c10 44 0 paperName
FUNC 8c60 a9 0 setPageOrder
FUNC 8d10 41 0 pageOrder
FUNC 8d60 99 0 setColorMode
FUNC 8e00 41 0 colorMode
FUNC 8e50 41 0 numCopies
FUNC 8ea0 99 0 setNumCopies
FUNC 8f40 99 0 setCopyCount
FUNC 8fe0 41 0 copyCount
FUNC 9030 2 0 actualNumCopies
FUNC 9040 20d 0 changeEngines
FUNC 9250 92 0 setOutputFormat
FUNC 92f0 162 0 setOutputFileName
FUNC 9460 182 0 setPrinterName
FUNC 95f0 3f 0 supportsMultipleCopies
FUNC 9630 3c 0 collateCopies
FUNC 9670 98 0 setCollateCopies
FUNC 9710 6f 0 setFullPage
FUNC 9780 3f 0 fullPage
FUNC 97c0 99 0 setResolution
FUNC 9860 41 0 resolution
FUNC 98b0 d8 0 paperSize
FUNC 9990 127 0 setPaperSize
FUNC 9ac0 39 0 setPaperSource
FUNC 9b00 41 0 paperSource
FUNC 9b50 3c 0 setFontEmbeddingEnabled
FUNC 9b90 3f 0 fontEmbeddingEnabled
FUNC 9bd0 39 0 setDuplex
FUNC 9c10 5 0 setDoubleSidedPrinting
FUNC 9c20 41 0 duplex
FUNC 9c70 13 0 doubleSidedPrinting
FUNC 9c90 e2 0 pageRect
FUNC 9d80 e2 0 paperRect
FUNC 9e70 44 0 pageRect
FUNC 9ec0 44 0 paperRect
FUNC 9f10 138 0 setPageMargins
FUNC a050 167 0 getPageMargins
FUNC a1c0 9 0 printEngine
FUNC a1d0 99 0 setWinPageSize
FUNC a270 41 0 winPageSize
FUNC a2c0 f 0 abort
FUNC a2d0 f 0 printerState
FUNC a2e0 44 0 printerSelectionOption
FUNC a330 39 0 setPrinterSelectionOption
FUNC a370 8 0 fromPage
FUNC a380 8 0 toPage
FUNC a390 68 0 setFromTo
FUNC a400 13 0 setPrintRange
FUNC a420 8 0 printRange
FUNC a430 132 0 supportedResolutions
FUNC a570 f8 0 supportedPaperSources
FUNC a670 38d 0 _tcf_1
FUNC aa00 2f 0 _tcf_0
FUNC b450 369 0 operator=
FUNC b7c0 19 0 printerName
FUNC b7e0 19 0 description
FUNC b800 19 0 location
FUNC b820 19 0 makeAndModel
FUNC b840 c2 0 isNull
FUNC b910 8 0 isDefault
FUNC b920 8 0 isRemote
FUNC b930 8 0 state
FUNC b940 19 0 supportedPageSizes
FUNC b960 19 0 defaultPageSize
FUNC b980 8 0 supportsCustomPageSizes
FUNC b990 7a 0 minimumPhysicalPageSize
FUNC ba10 7a 0 maximumPhysicalPageSize
FUNC ba90 19 0 supportedResolutions
FUNC bab0 8 0 defaultDuplexMode
FUNC bac0 43 0 availablePrinterNames
FUNC bb10 43 0 defaultPrinterName
FUNC bb60 142 0 defaultPrinter
FUNC bcb0 33 0 printerInfo
FUNC bcf0 1c5 0 operator<<
FUNC bec0 dc 0 supportedPaperSizes
FUNC bfa0 19d 0 supportedSizesWithNames
FUNC c140 296 0 availablePrinters
FUNC c3e0 1e5 0 supportedDuplexModes
FUNC c5d0 3 0 isValid
FUNC c5e0 5 0 isRemote
FUNC c5f0 6 0 state
FUNC c600 5 0 supportsMultipleCopies
FUNC c610 5 0 supportsCollateCopies
FUNC c630 5 0 supportsCustomPageSizes
FUNC c640 5 0 minimumPhysicalPageSize
FUNC c650 5 0 maximumPhysicalPageSize
FUNC c690 3 0 defaultResolution
FUNC c6a0 3 0 defaultDuplexMode
FUNC c6b0 3 0 defaultColorMode
FUNC c6c0 17 0 defaultPageSize
FUNC ca30 26 0 location
FUNC ca60 26 0 makeAndModel
FUNC ca90 26 0 id
FUNC cac0 26 0 name
FUNC ccf0 c6 0 defaultInputSlot
FUNC cdc0 c6 0 defaultOutputBin
FUNC d530 17 0 createPageSize
FUNC d550 17 0 createPageSize
FUNC d570 51 0 supportedPageSizes
FUNC d5d0 15a 0 supportedPageSizeMatch
FUNC d730 c4 0 supportedPageSize
FUNC d800 de 0 supportedPageSize
FUNC d8e0 18a 0 supportedPageSize
FUNC da70 1ea 0 supportedPageSize
FUNC dc60 37a 0 supportedPageSize
FUNC dfe0 ea 0 supportedResolutions
FUNC e0d0 51 0 supportedInputSlots
FUNC e130 51 0 supportedOutputBins
FUNC e190 51 0 supportedDuplexModes
FUNC e1f0 51 0 supportedColorModes
FUNC e250 51 0 supportedMimeTypes
FUNC e2b0 26 0 cleanupPrinterSupport
FUNC e360 1b0c 0 get
FUNC fe70 30 0 _tcf_0
FUNC feb0 3 0 createNativePrintEngine
FUNC fec0 3 0 createPaintEngine
FUNC fed0 e 0 availablePrintDeviceIds
FUNC ff20 ac 0 createDefaultPrintDevice
FUNC ffe0 16 0 createPrintDevice
FUNC 10000 17 0 createPageSize
FUNC 10020 12 0 updateState
FUNC 10040 12 0 drawPath
FUNC 10060 12 0 drawPolygon
FUNC 10080 15 0 drawTextItem
FUNC 100a0 15 0 drawPixmap
FUNC 100c0 15 0 drawTiledPixmap
FUNC 100e0 b 0 printerState
FUNC 10100 58 0 end
FUNC 10390 38 0 metric
FUNC 103e0 38 0 setProperty
FUNC 10430 4e 0 property
FUNC 10510 5f 0 abort
FUNC 106f0 85 0 pages
FUNC 10780 13 0 setProxyEngines
FUNC 107a0 2f6 0 begin
FUNC 10aa0 2ac 0 newPage
FUNC 10d70 b 0 printerState
FUNC 10d90 188 0 metric
FUNC 10fb0 117 0 updateMatrix
FUNC 110d0 6bd 0 composeGdiPath
FUNC 11790 1c8 0 updateClipPath
FUNC 11960 8f 0 fillPath_dev
FUNC 119f0 155 0 strokePath_dev
FUNC 11b50 48 0 fillPath
FUNC 11ba0 346 0 strokePath
FUNC 11ef0 d1 0 release
FUNC 121f0 e9 0 newPage
FUNC 122f0 c 0 getDC
FUNC 12300 1 0 releaseDC
FUNC 12310 15f 0 createGlobalDevNames
FUNC 12470 c 0 globalDevMode
FUNC 12480 22b 0 updateMetrics
FUNC 126b0 158 0 initHDC
FUNC 12a80 27f 0 updatePageLayout
FUNC 12d00 290 0 initialize
FUNC 13330 321 0 setGlobalDevMode
FUNC 13660 c3a 0 debugMetrics
FUNC 163d0 1395 0 setProperty
FUNC 17780 f45 0 property
FUNC 186e0 ac 0 _tcf_1
FUNC 189a0 396 0 begin
FUNC 18d40 b6 0 end
FUNC 18e00 251f 0 drawTextItem
FUNC 1b320 285 0 updateState
FUNC 1b5b0 b41 0 drawPixmap
FUNC 1c100 440 0 drawTiledPixmap
FUNC 1c540 8f 0 drawPath
FUNC 1c7c0 1a 0 metaObject
FUNC 1c7e0 1a 0 metaObject
FUNC 1c9a0 671 0 paint
FUNC 1d020 1ad 0 init
FUNC 1d1d0 378 0 layoutPages
FUNC 1d6b0 7e 0 setZoomFactor
FUNC 1d900 b 0 viewMode
FUNC 1d910 10 0 orientation
FUNC 1d920 42 0 print
FUNC 1d970 3b 0 zoomIn
FUNC 1d9b0 47 0 zoomOut
FUNC 1da00 d 0 zoomFactor
FUNC 1da30 12 0 pageCount
FUNC 1da50 b 0 currentPage
FUNC 1da70 b 0 zoomMode
FUNC 1da80 1e0 0 calcCurrentPage
FUNC 1dc60 56 0 q_updateCurrentPage
FUNC 1dcc0 4ef 0 q_fit
FUNC 1e1b0 11b 0 setViewMode
FUNC 1e380 35e 0 populateScene
FUNC 1e6e0 12c 0 generatePreview
FUNC 1e840 27 0 setLandscapeOrientation
FUNC 1e870 24 0 setPortraitOrientation
FUNC 1e8a0 2b 0 updatePreview
FUNC 1e8d0 3f 0 setVisible
FUNC 1ebd0 2a 0 showEvent
FUNC 1ec00 7e 0 resizeEvent
FUNC 1ec80 64 0 qt_metacall
FUNC 1ecf0 47 0 qt_metacast
FUNC 1ed40 47 0 qt_metacast
FUNC 1ed90 5c 0 qt_metacall
FUNC 1efd0 566 0 exec
FUNC 1f5c0 1a 0 metaObject
FUNC 1fb50 86b 0 openWindowsPrintDialogModally
FUNC 203c0 41 0 exec
FUNC 20410 3c 0 setVisible
FUNC 20450 45 0 qt_metacast
FUNC 204a0 a5 0 qt_metacall
FUNC 205e0 26 0 setOption
FUNC 20610 e 0 testOption
FUNC 20640 b 0 options
FUNC 20650 b 0 setEnabledOptions
FUNC 20660 b 0 addEnabledOption
FUNC 20670 b 0 enabledOptions
FUNC 20680 e 0 isOptionEnabled
FUNC 20690 10 0 setPrintRange
FUNC 206a0 f 0 printRange
FUNC 206d0 b 0 minPage
FUNC 206e0 b 0 maxPage
FUNC 206f0 54 0 setFromTo
FUNC 20750 10 0 fromPage
FUNC 20760 10 0 toPage
FUNC 20780 89 0 setPrinter
FUNC 20ae0 23 0 setOptionTabs
FUNC 20b10 c8 0 done
FUNC 20be0 a2 0 open
FUNC 20e80 a2 0 open
FUNC 20fc0 c 0 printer
FUNC 20fd0 9d 0 done
FUNC 21070 3 0 createPopupMenu
FUNC 21080 1a 0 metaObject
FUNC 210a0 1a 0 metaObject
FUNC 216c0 2016 0 setupActions
FUNC 237f0 dd 0 updateNavActions
FUNC 238d0 256 0 updatePageNumLabel
FUNC 23b30 9b 0 updateZoomFactor
FUNC 23bd0 3c 0 q_fit
FUNC 23c10 30 0 q_zoomIn
FUNC 23c40 30 0 q_zoomOut
FUNC 23c70 90 0 q_pageNumEdited
FUNC 23d00 cf 0 q_navigate
FUNC 23dd0 113 0 q_setMode
FUNC 23ef0 3d0 0 q_print
FUNC 242c0 22 0 q_previewChanged
FUNC 242f0 1ee 0 q_zoomFactorChanged
FUNC 244e0 a2 0 open
FUNC 24590 c 0 printer
FUNC 245a0 b3a 0 init
FUNC 253b0 4c 0 focusOutEvent
FUNC 25400 69 0 focusInEvent
FUNC 25470 9d 0 qt_metacall
FUNC 25510 47 0 qt_metacast
FUNC 25560 19b 0 validate
FUNC 25700 ae 0 q_pageSetup
FUNC 25910 4d 0 setVisible
FUNC 25960 9d 0 done
FUNC 25a00 47 0 qt_metacast
FUNC 25a50 5c 0 qt_metacall
FUNC 25ab0 1f 0 _tcf_0
FUNC 25b30 1 0 qt_static_metacall
FUNC 25b40 1a 0 metaObject
FUNC 25b60 47 0 qt_metacast
FUNC 25bb0 7 0 qt_metacall
FUNC 25bc0 1 0 qt_static_metacall
FUNC 25bd0 1a 0 metaObject
FUNC 25bf0 47 0 qt_metacast
FUNC 25c40 7 0 qt_metacall
FUNC 25c50 1 0 qt_static_metacall
FUNC 25c60 1a 0 metaObject
FUNC 25c80 47 0 qt_metacast
FUNC 25cd0 7 0 qt_metacall
FUNC 27400 35 0 _do_global_dtors
FUNC 27440 66 0 _do_global_ctors
FUNC 274b0 1f 0 _main
FUNC 274d0 d6 0 _security_init_cookie
FUNC 275b0 f8 0 _report_gsfailure
FUNC 276b0 2f 0 _dyn_tls_dtor
FUNC 27760 3 0 _tlregdtor
FUNC 27990 2bb 0 pei386_runtime_relocator
FUNC 27c50 1a0 0 _mingw_SEH_error_handler
FUNC 27df0 ec 0 _mingw_init_ehandler
FUNC 27ee0 1e7 0 gnu_exception_handler
FUNC 28140 7f 0 __w64_mingwthr_add_key_dtor
FUNC 281c0 a0 0 __w64_mingwthr_remove_key_dtor
FUNC 28260 da 0 _mingw_TLScallback
FUNC 283d0 8d 0 FindPESectionByName
FUNC 28460 74 0 _mingw_GetSectionForAddress
FUNC 284e0 3e 0 _mingw_GetSectionCount
FUNC 28520 6f 0 FindPESectionExec
FUNC 28590 37 0 GetPEImageBase
FUNC 285d0 91 0 IsNonwritableInCurrentImage
FUNC 28670 a6 0 _mingw_enum_import_library_names
FUNC 28720 3 0 fpreset
FUNC 28770 6 0 DllEntryPoint
FUNC 28780 6 0 DllMain
FUNC 28790 138 0 sqrt
FUNC 28980 c8 0 register_onexit_function
FUNC 28a50 6f 0 execute_onexit_table
FUNC 28ac0 1f 0 _acrt_iob_func
FUNC 28bd0 41 0 _mingw_raise_matherr
FUNC 28c20 c 0 _mingw_setusermatherr
FUNC 28c30 fc 0 matherr
FUNC 28d40 476 0 qRegisterNormalizedMetaType<QPair<QMarginsF, QPageLayout::Unit> >
FUNC 291f0 3ff 0 qt_metatype_id
FUNC 296a0 1 0 helperDone
FUNC 296b0 1 0 initHelper
FUNC 296c0 1 0 helperPrepareShow
FUNC 296d0 1 0 endCompose
FUNC 296e0 3 0 focusObject
FUNC 296f0 1 0 beginCompose
FUNC 29700 1 0 aboutToDestroy
FUNC 29710 1 0 resolveSamples
FUNC 29720 17 0 grabFramebuffer
FUNC 29740 1 0 endBackingStorePainting
FUNC 29750 1 0 beginBackingStorePainting
FUNC 29760 1 0 resizeViewportFramebuffer
FUNC 29770 1 0 initializeViewportFramebuffer
FUNC 29790 11 0 deleter
FUNC 297f0 7 0 Destruct
FUNC 29800 2f 0 Construct
FUNC 29830 1 0 Destruct
FUNC 29840 42 0 Construct
FUNC 29890 1 0 Destruct
FUNC 298a0 48 0 Construct
FUNC 298f0 1 0 Destruct
FUNC 29900 40 0 Construct
FUNC 29940 7 0 Destruct
FUNC 29950 2f 0 Construct
FUNC 29980 1 0 Destruct
FUNC 29990 d 0 Construct
FUNC 299a0 1 0 Destruct
FUNC 299b0 d 0 Construct
FUNC 299c0 1 0 Destruct
FUNC 299d0 49 0 Construct
FUNC 29a20 1 0 Destruct
FUNC 29a30 f 0 Construct
FUNC 29a40 12 0 getFirstImpl<QPair<QMarginsF, QPageLayout::Unit> >
FUNC 29a60 16 0 getSecondImpl<QPair<QMarginsF, QPageLayout::Unit> >
FUNC 29a80 3 0 nativeHandle
FUNC 29a90 3 0 aggregateEngine
FUNC 29aa0 1 0 systemStateChanged
FUNC 29ee0 1 0 setTabs
FUNC 2a900 b96 0 setPageMargins
FUNC 2be20 366 0 setPageOrientation
FUNC 2c1e0 1 0 deleteNode2
FUNC 2c1f0 14 0 duplicateNode
FUNC 2c210 12a 0 detach_helper_grow
FUNC 2c340 d4 0 reserve
FUNC 2c420 14e 0 detach_helper_grow
FUNC 2c620 dd 0 reserve
FUNC 2c700 14a 0 detach_helper_grow
FUNC 2c8b0 e6 0 reserve
FUNC 2c9c0 10a 0 detach_helper_grow
FUNC 2cad0 10a 0 detach_helper_grow
FUNC 2cc50 11a 0 detach_helper_grow
FUNC 2cd70 c2 0 reserve
FUNC 2ce40 11a 0 detach_helper_grow
FUNC 2cf60 11a 0 detach_helper_grow
FUNC 2d080 1aa 0 detach_helper_grow
FUNC 2d230 109 0 reserve
FUNC 2d470 1aa 0 detach_helper_grow
FUNC 2d620 f9 0 reserve
FUNC 2d720 11a 0 detach_helper_grow
FUNC 2d840 11a 0 detach_helper_grow
FUNC 2d960 c2 0 reserve
FUNC 2da30 100 0 detach_helper_grow
FUNC 2db50 100 0 detach_helper_grow
FUNC 2dc50 42 0 append
FUNC 2dcc0 100 0 detach_helper_grow
FUNC 2ddc0 a1 0 reserve
FUNC 2dea0 1ed 0 reallocData
FUNC 2e090 72 0 append
FUNC 2e110 bf 0 append
FUNC 2e1d0 1d1 0 reallocData
FUNC 2e3b0 b4 0 append
FUNC 2e470 2b3 0 reallocData
FUNC 2e810 17c 0 convert
FUNC 2e990 3 0 textureId
FUNC 2e9b0 6 0 type
FUNC 2e9c0 6 0 type
FUNC 2eb20 153 0 toList
FUNC 2ec80 153 0 toList
FUNC 2ede0 143 0 toList
FUNC 2ef30 143 0 toList
FUNC 2f080 f0 0 toList
FUNC 2f170 f0 0 toList
FUNC 2f260 6e 0 findNode
FUNC 2f340 10c 0 operator+=<QLatin1String, QString>
FUNC 2f450 1d 0 GLOBAL__sub_I__ZN26QPrintPreviewWidgetPrivate6_q_fitEb
FUNC 2f490 1d 0 GLOBAL__sub_I__ZN26QPrintPreviewDialogPrivate4initEP8QPrinter
FUNC 2f4b0 33 0 GLOBAL__sub_I__Z27qInitResources_qprintdialogv
FUNC 2f4f0 f 0 GLOBAL__sub_I__ZN29QPlatformPrinterSupportPlugin18qt_static_metacallEP7QObjectN11QMetaObject4CallEiPPv
FUNC 2f500 f 0 GLOBAL__sub_I__ZN20QAbstractPrintDialog18qt_static_metacallEP7QObjectN11QMetaObject4CallEiPPv
FUNC 2f510 f 0 GLOBAL__sub_I__ZN16QPageSetupDialog18qt_static_metacallEP7QObjectN11QMetaObject4CallEiPPv
FUNC 2f520 69 0 _report_error
PUBLIC 30180 0 staticMetaObject
PUBLIC 301c0 0 p
PUBLIC 301d0 0 _native_vcclrit_reason
PUBLIC 301d4 0 _native_dllmain_reason
PUBLIC 301e0 0 CRT_MT
PUBLIC 301f0 0 _imp__execute_onexit_table
PUBLIC 301f8 0 _imp__register_onexit_function
PUBLIC 30200 0 _imp__initialize_onexit_table
PUBLIC 302a0 0 metatype_id
PUBLIC 302c0 0 f
PUBLIC 31de0 0 qstring_literal
PUBLIC 32360 0 qt_meta_data_GraphicsView
PUBLIC 323c0 0 qt_meta_stringdata_GraphicsView
PUBLIC 32420 0 qt_meta_data_QPrintPreviewWidget
PUBLIC 326c0 0 qt_meta_stringdata_QPrintPreviewWidget
PUBLIC 32d20 0 qt_meta_data_QPrintDialog
PUBLIC 32da0 0 qt_meta_stringdata_QPrintDialog
PUBLIC 33920 0 qt_meta_stringdata_LineEdit
PUBLIC 339a0 0 qt_meta_data_QPrintPreviewDialog
PUBLIC 33d80 0 factorsX2
PUBLIC 33de0 0 qt_resource_struct
PUBLIC 34140 0 qt_resource_name
PUBLIC 34700 0 qt_resource_data
PUBLIC 3c580 0 qt_meta_stringdata_QPlatformPrinterSupportPlugin
PUBLIC 3c5c0 0 qt_meta_data_QAbstractPrintDialog
PUBLIC 3c6a0 0 qt_meta_stringdata_QAbstractPrintDialog
PUBLIC 3c860 0 qt_meta_data_QPageSetupDialog
PUBLIC 3c8e0 0 GS_ExceptionPointers
PUBLIC 3c900 0 _dyn_tls_init_callback
PUBLIC 45000 0 atexit_table
PUBLIC 45050 0 printerSupport
PUBLIC 45060 0 holder
PUBLIC 45070 0 guard
PUBLIC 45080 0 resourcesInitialized
PUBLIC 45090 0 initialized
PUBLIC 450a0 0 GS_ContextRecord
PUBLIC 45580 0 GS_ExceptionRecord
PUBLIC 45620 0 mingw_initltssuo_force
PUBLIC 45624 0 mingw_initltsdyn_force
PUBLIC 45628 0 mingw_initltsdrot_force
PUBLIC 4562c 0 tls_index
PUBLIC 45630 0 mingw_app_type
PUBLIC 45640 0 was_init
PUBLIC 45644 0 maxSections
PUBLIC 45648 0 the_secs
PUBLIC 45660 0 _mingw_oldexcpt_handler
PUBLIC 45668 0 was_here
PUBLIC 45680 0 emu_xdata
PUBLIC 45780 0 emu_pdata
PUBLIC 45908 0 _mingwthr_cs_init
PUBLIC 45920 0 _mingwthr_cs
PUBLIC 45960 0 _RUNTIME_PSEUDO_RELOC_LIST__
PUBLIC 45961 0 _RUNTIME_PSEUDO_RELOC_LIST_END__
PUBLIC 45970 0 stUserMathErr
PUBLIC 45988 0 _native_startup_lock
PUBLIC 58000 0 _xc_a
PUBLIC 58008 0 _xc_z
PUBLIC 58010 0 _xi_a
PUBLIC 58020 0 _xi_z
PUBLIC 58028 0 _xl_a
PUBLIC 58030 0 _xl_c
PUBLIC 58038 0 _xl_d
PUBLIC 58040 0 _xl_z
PUBLIC 58048 0 _xd_a
PUBLIC 58050 0 _xd_z
PUBLIC 59000 0 tls_start
PUBLIC 59008 0 tls_end
STACK CFI INIT 1000 c .cfa: $rsp .ra: .cfa 8 - ^
STACK CFI 1000 .cfa: $rsp 8 +
STACK CFI INIT 1010 1ef .cfa: $rsp .ra: .cfa 8 - ^
STACK CFI 1010 .cfa: $rsp 96 +
STACK CFI INIT 1200 12b .cfa: $rsp .ra: .cfa 8 - ^
STACK CFI 1200 .cfa: $rsp 80 +
STACK CFI INIT 1330 4f .cfa: $rsp .ra: .cfa 8 - ^
STACK CFI 1330 .cfa: $rsp 80 +
STACK CFI INIT 1380 f .cfa: $rsp .ra: .cfa 8 - ^
STACK CFI 1380 .cfa: $rsp 8 +
STACK CFI INIT 1390 c .cfa: $rsp .ra: .cfa 8 - ^
STACK CFI 1390 .cfa: $rsp 8 +
STACK CFI INIT 13a0 1 .cfa: $rsp .ra: .cfa 8 - ^
STACK CFI 13a0 .cfa: $rsp 8 +
STACK CFI INIT 13b0 3e1 .cfa: $rsp .ra: .cfa 8 - ^
STACK CFI 13b0 .cfa: $rsp 208 +
STACK CFI INIT 17a0 6a .cfa: $rsp .ra: .cfa 8 - ^
STACK CFI 17a0 .cfa: $rsp 80 +
STACK CFI INIT 1810 ba .cfa: $rsp .ra: .cfa 8 - ^
STACK CFI 1810 .cfa: $rsp 64 +
STACK CFI INIT 18d0 1f .cfa: $rsp .ra: .cfa 8 - ^
STACK CFI 18d0 .cfa: $rsp 48 +
STACK CFI INIT 18f0 1e .cfa: $rsp .ra: .cfa 8 - ^
STACK CFI 18f0 .cfa: $rsp 48 +
STACK CFI INIT 1910 11 .cfa: $rsp .ra: .cfa 8 - ^
STACK CFI 1910 .cfa: $rsp 8 +
STACK CFI INIT 1930 2a .cfa: $rsp .ra: .cfa 8 - ^
STACK CFI 1930 .cfa: $rsp 48 +
STACK CFI INIT 1960 22 .cfa: $rsp .ra: .cfa 8 - ^
STACK CFI 1960 .cfa: $rsp 48 +
STACK CFI INIT 1990 c .cfa: $rsp .ra: .cfa 8 - ^
STACK CFI 1990 .cfa: $rsp 8 +
STACK CFI INIT 19a0 66 .cfa: $rsp .ra: .cfa 8 - ^
STACK CFI 19a0 .cfa: $rsp 64 +
STACK CFI INIT 1a10 10b .cfa: $rsp .ra: .cfa 8 - ^
STACK CFI 1a10 .cfa: $rsp 64 +
STACK CFI INIT 1b20 343 .cfa: $rsp .ra: .cfa 8 - ^
STACK CFI 1b20 .cfa: $rsp 192 +
STACK CFI INIT 1e70 4e .cfa: $rsp .ra: .cfa 8 - ^
STACK CFI 1e70 .cfa: $rsp 96 +
STACK CFI INIT 1ec0 13 .cfa: $rsp .ra: .cfa 8 - ^
STACK CFI 1ec0 .cfa: $rsp 8 +
STACK CFI INIT 1ee0 68 .cfa: $rsp .ra: .cfa 8 - ^
STACK CFI 1ee0 .cfa: $rsp 96 +
STACK CFI INIT 1f50 135 .cfa: $rsp .ra: .cfa 8 - ^
STACK CFI 1f50 .cfa: $rsp 176 +
STACK CFI INIT 2090 dd .cfa: $rsp .ra: .cfa 8 - ^
STACK CFI 2090 .cfa: $rsp 128 +
STACK CFI INIT 2170 111 .cfa: $rsp .ra: .cfa 8 - ^
STACK CFI 2170 .cfa: $rsp 144 +
STACK CFI INIT 2290 1b6 .cfa: $rsp .ra: .cfa 8 - ^
STACK CFI 2290 .cfa: $rsp 224 +
STACK CFI INIT 2450 111 .cfa: $rsp .ra: .cfa 8 - ^
STACK CFI 2450 .cfa: $rsp 144 +
STACK CFI INIT 2570 21c .cfa: $rsp .ra: .cfa 8 - ^
STACK CFI 2570 .cfa: $rsp 160 +
STACK CFI INIT 2790 520 .cfa: $rsp .ra: .cfa 8 - ^
STACK CFI 2790 .cfa: $rsp 592 +
STACK CFI INIT 2cb0 901 .cfa: $rsp .ra: .cfa 8 - ^
STACK CFI 2cb0 .cfa: $rsp 272 +
STACK CFI INIT 35c0 137 .cfa: $rsp .ra: .cfa 8 - ^
STACK CFI 35c0 .cfa: $rsp 176 +
STACK CFI INIT 3700 2a .cfa: $rsp .ra: .cfa 8 - ^
STACK CFI 3700 .cfa: $rsp 48 +
STACK CFI INIT 3730 4f .cfa: $rsp .ra: .cfa 8 - ^
STACK CFI 3730 .cfa: $rsp 64 +
STACK CFI INIT 3780 57 .cfa: $rsp .ra: .cfa 8 - ^
STACK CFI 3780 .cfa: $rsp 64 +
STACK CFI INIT 37e0 54 .cfa: $rsp .ra: .cfa 8 - ^
STACK CFI 37e0 .cfa: $rsp 64 +
STACK CFI INIT 3840 21 .cfa: $rsp .ra: .cfa 8 - ^
STACK CFI 3840 .cfa: $rsp 8 +
STACK CFI INIT 3870 3d .cfa: $rsp .ra: .cfa 8 - ^
STACK CFI 3870 .cfa: $rsp 48 +
STACK CFI INIT 38b0 62 .cfa: $rsp .ra: .cfa 8 - ^
STACK CFI 38b0 .cfa: $rsp 64 +
STACK CFI INIT 3920 b8 .cfa: $rsp .ra: .cfa 8 - ^
STACK CFI 3920 .cfa: $rsp 80 +
STACK CFI INIT 39e0 48 .cfa: $rsp .ra: .cfa 8 - ^
STACK CFI 39e0 .cfa: $rsp 64 +
STACK CFI INIT 3a30 48 .cfa: $rsp .ra: .cfa 8 - ^
STACK CFI 3a30 .cfa: $rsp 64 +
STACK CFI INIT 3a80 48 .cfa: $rsp .ra: .cfa 8 - ^
STACK CFI 3a80 .cfa: $rsp 64 +
STACK CFI INIT 3ad0 48 .cfa: $rsp .ra: .cfa 8 - ^
STACK CFI 3ad0 .cfa: $rsp 64 +
STACK CFI INIT 3b20 13 .cfa: $rsp .ra: .cfa 8 - ^
STACK CFI 3b20 .cfa: $rsp 8 +
STACK CFI INIT 3b40 38 .cfa: $rsp .ra: .cfa 8 - ^
STACK CFI 3b40 .cfa: $rsp 48 +
STACK CFI INIT 3b80 38 .cfa: $rsp .ra: .cfa 8 - ^
STACK CFI 3b80 .cfa: $rsp 48 +
STACK CFI INIT 3bc0 3b .cfa: $rsp .ra: .cfa 8 - ^
STACK CFI 3bc0 .cfa: $rsp 48 +
STACK CFI INIT 3c00 4a .cfa: $rsp .ra: .cfa 8 - ^
STACK CFI 3c00 .cfa: $rsp 64 +
STACK CFI INIT 3c50 38 .cfa: $rsp .ra: .cfa 8 - ^
STACK CFI 3c50 .cfa: $rsp 48 +
STACK CFI INIT 3c90 38 .cfa: $rsp .ra: .cfa 8 - ^
STACK CFI 3c90 .cfa: $rsp 48 +
STACK CFI INIT 3cd0 47 .cfa: $rsp .ra: .cfa 8 - ^
STACK CFI 3cd0 .cfa: $rsp 64 +
STACK CFI INIT 3d20 48 .cfa: $rsp .ra: .cfa 8 - ^
STACK CFI 3d20 .cfa: $rsp 64 +
STACK CFI INIT 3d70 5a .cfa: $rsp .ra: .cfa 8 - ^
STACK CFI 3d70 .cfa: $rsp 64 +
STACK CFI INIT 3dd0 5d .cfa: $rsp .ra: .cfa 8 - ^
STACK CFI 3dd0 .cfa: $rsp 64 +
STACK CFI INIT 3e30 5d .cfa: $rsp .ra: .cfa 8 - ^
STACK CFI 3e30 .cfa: $rsp 64 +
STACK CFI INIT 3e90 5d .cfa: $rsp .ra: .cfa 8 - ^
STACK CFI 3e90 .cfa: $rsp 64 +
STACK CFI INIT 3ef0 61 .cfa: $rsp .ra: .cfa 8 - ^
STACK CFI 3ef0 .cfa: $rsp 80 +
STACK CFI INIT 3f60 38 .cfa: $rsp .ra: .cfa 8 - ^
STACK CFI 3f60 .cfa: $rsp 48 +
STACK CFI INIT 3fa0 3d .cfa: $rsp .ra: .cfa 8 - ^
STACK CFI 3fa0 .cfa: $rsp 48 +
STACK CFI INIT 3fe0 3d .cfa: $rsp .ra: .cfa 8 - ^
STACK CFI 3fe0 .cfa: $rsp 48 +
STACK CFI INIT 4020 7d .cfa: $rsp .ra: .cfa 8 - ^
STACK CFI 4020 .cfa: $rsp 96 +
STACK CFI INIT 40a0 38 .cfa: $rsp .ra: .cfa 8 - ^
STACK CFI 40a0 .cfa: $rsp 48 +
STACK CFI INIT 40e0 4b .cfa: $rsp .ra: .cfa 8 - ^
STACK CFI 40e0 .cfa: $rsp 64 +
STACK CFI INIT 4130 59 .cfa: $rsp .ra: .cfa 8 - ^
STACK CFI 4130 .cfa: $rsp 64 +
STACK CFI INIT 4190 4b .cfa: $rsp .ra: .cfa 8 - ^
STACK CFI 4190 .cfa: $rsp 64 +
STACK CFI INIT 41e0 59 .cfa: $rsp .ra: .cfa 8 - ^
STACK CFI 41e0 .cfa: $rsp 64 +
STACK CFI INIT 4240 4b .cfa: $rsp .ra: .cfa 8 - ^
STACK CFI 4240 .cfa: $rsp 64 +
STACK CFI INIT 4290 38 .cfa: $rsp .ra: .cfa 8 - ^
STACK CFI 4290 .cfa: $rsp 48 +
STACK CFI INIT 42d0 4b .cfa: $rsp .ra: .cfa 8 - ^
STACK CFI 42d0 .cfa: $rsp 64 +
STACK CFI INIT 4320 38 .cfa: $rsp .ra: .cfa 8 - ^
STACK CFI 4320 .cfa: $rsp 48 +
STACK CFI INIT 4360 4b .cfa: $rsp .ra: .cfa 8 - ^
STACK CFI 4360 .cfa: $rsp 64 +
STACK CFI INIT 43b0 4b .cfa: $rsp .ra: .cfa 8 - ^
STACK CFI 43b0 .cfa: $rsp 64 +
STACK CFI INIT 4400 1083 .cfa: $rsp .ra: .cfa 8 - ^
STACK CFI 4400 .cfa: $rsp 192 +
STACK CFI INIT 5490 10d .cfa: $rsp .ra: .cfa 8 - ^
STACK CFI 5490 .cfa: $rsp 112 +
STACK CFI INIT 55a0 15 .cfa: $rsp .ra: .cfa 8 - ^
STACK CFI 55a0 .cfa: $rsp 8 +
STACK CFI INIT 55d0 2e .cfa: $rsp .ra: .cfa 8 - ^
STACK CFI 55d0 .cfa: $rsp 48 +
STACK CFI INIT 5610 2f .cfa: $rsp .ra: .cfa 8 - ^
STACK CFI 5610 .cfa: $rsp 64 +
STACK CFI INIT 5640 7 .cfa: $rsp .ra: .cfa 8 - ^
STACK CFI 5640 .cfa: $rsp 8 +
STACK CFI INIT 5660 7 .cfa: $rsp .ra: .cfa 8 - ^
STACK CFI 5660 .cfa: $rsp 8 +
STACK CFI INIT 5680 58 .cfa: $rsp .ra: .cfa 8 - ^
STACK CFI 5680 .cfa: $rsp 48 +
STACK CFI INIT 56e0 4a .cfa: $rsp .ra: .cfa 8 - ^
STACK CFI 56e0 .cfa: $rsp 64 +
STACK CFI INIT 5730 68 .cfa: $rsp .ra: .cfa 8 - ^
STACK CFI 5730 .cfa: $rsp 80 +
STACK CFI INIT 57a0 e9 .cfa: $rsp .ra: .cfa 8 - ^
STACK CFI 57a0 .cfa: $rsp 48 +
STACK CFI INIT 5890 1f .cfa: $rsp .ra: .cfa 8 - ^
STACK CFI 5890 .cfa: $rsp 48 +
STACK CFI INIT 58b0 2f .cfa: $rsp .ra: .cfa 8 - ^
STACK CFI 58b0 .cfa: $rsp 48 +
STACK CFI INIT 58e0 a4 .cfa: $rsp .ra: .cfa 8 - ^
STACK CFI 58e0 .cfa: $rsp 64 +
STACK CFI INIT 5990 52 .cfa: $rsp .ra: .cfa 8 - ^
STACK CFI 5990 .cfa: $rsp 64 +
STACK CFI INIT 59f0 d9b .cfa: $rsp .ra: .cfa 8 - ^
STACK CFI 59f0 .cfa: $rsp 288 +
STACK CFI INIT 67a0 38d .cfa: $rsp .ra: .cfa 8 - ^
STACK CFI 67a0 .cfa: $rsp 144 +
STACK CFI INIT 6b30 dfe .cfa: $rsp .ra: .cfa 8 - ^
STACK CFI 6b30 .cfa: $rsp 304 +
STACK CFI INIT 7940 84 .cfa: $rsp .ra: .cfa 8 - ^
STACK CFI 7940 .cfa: $rsp 80 +
STACK CFI INIT 79d0 6 .cfa: $rsp .ra: .cfa 8 - ^
STACK CFI 79d0 .cfa: $rsp 8 +
STACK CFI INIT 79e0 f .cfa: $rsp .ra: .cfa 8 - ^
STACK CFI 79e0 .cfa: $rsp 8 +
STACK CFI INIT 79f0 9 .cfa: $rsp .ra: .cfa 8 - ^
STACK CFI 79f0 .cfa: $rsp 8 +
STACK CFI INIT 7a00 38 .cfa: $rsp .ra: .cfa 8 - ^
STACK CFI 7a00 .cfa: $rsp 48 +
STACK CFI INIT 7a40 34 .cfa: $rsp .ra: .cfa 8 - ^
STACK CFI 7a40 .cfa: $rsp 80 +
STACK CFI INIT 7a80 43 .cfa: $rsp .ra: .cfa 8 - ^
STACK CFI 7a80 .cfa: $rsp 80 +
STACK CFI INIT 7ad0 4a .cfa: $rsp .ra: .cfa 8 - ^
STACK CFI 7ad0 .cfa: $rsp 64 +
STACK CFI INIT 7b20 77 .cfa: $rsp .ra: .cfa 8 - ^
STACK CFI 7b20 .cfa: $rsp 80 +
STACK CFI INIT 7ba0 89 .cfa: $rsp .ra: .cfa 8 - ^
STACK CFI 7ba0 .cfa: $rsp 96 +
STACK CFI INIT 7c30 8c .cfa: $rsp .ra: .cfa 8 - ^
STACK CFI 7c30 .cfa: $rsp 64 +
STACK CFI INIT 7cc0 1f .cfa: $rsp .ra: .cfa 8 - ^
STACK CFI 7cc0 .cfa: $rsp 48 +
STACK CFI INIT 7ce0 95 .cfa: $rsp .ra: .cfa 8 - ^
STACK CFI 7ce0 .cfa: $rsp 8 +
STACK CFI INIT 7d80 c6 .cfa: $rsp .ra: .cfa 8 - ^
STACK CFI 7d80 .cfa: $rsp 128 +
STACK CFI INIT 7e50 12e .cfa: $rsp .ra: .cfa 8 - ^
STACK CFI 7e50 .cfa: $rsp 112 +
STACK CFI INIT 7f80 152 .cfa: $rsp .ra: .cfa 8 - ^
STACK CFI 7f80 .cfa: $rsp 96 +
STACK CFI INIT 80e0 33 .cfa: $rsp .ra: .cfa 8 - ^
STACK CFI 80e0 .cfa: $rsp 48 +
STACK CFI INIT 8120 fe .cfa: $rsp .ra: .cfa 8 - ^
STACK CFI 8120 .cfa: $rsp 80 +
STACK CFI INIT 8220 12e .cfa: $rsp .ra: .cfa 8 - ^
STACK CFI 8220 .cfa: $rsp 80 +
STACK CFI INIT 8350 5e .cfa: $rsp .ra: .cfa 8 - ^
STACK CFI 8350 .cfa: $rsp 80 +
STACK CFI INIT 83b0 18d .cfa: $rsp .ra: .cfa 8 - ^
STACK CFI 83b0 .cfa: $rsp 192 +
STACK CFI INIT 8540 17d .cfa: $rsp .ra: .cfa 8 - ^
STACK CFI 8540 .cfa: $rsp 192 +
STACK CFI INIT 86c0 3a .cfa: $rsp .ra: .cfa 8 - ^
STACK CFI 86c0 .cfa: $rsp 64 +
STACK CFI INIT 8700 8 .cfa: $rsp .ra: .cfa 8 - ^
STACK CFI 8700 .cfa: $rsp 8 +
STACK CFI INIT 8710 44 .cfa: $rsp .ra: .cfa 8 - ^
STACK CFI 8710 .cfa: $rsp 80 +
STACK CFI INIT 8760 23 .cfa: $rsp .ra: .cfa 8 - ^
STACK CFI 8760 .cfa: $rsp 8 +
STACK CFI INIT 8790 44 .cfa: $rsp .ra: .cfa 8 - ^
STACK CFI 8790 .cfa: $rsp 80 +
STACK CFI INIT 87e0 44 .cfa: $rsp .ra: .cfa 8 - ^
STACK CFI 87e0 .cfa: $rsp 80 +
STACK CFI INIT 8830 99 .cfa: $rsp .ra: .cfa 8 - ^
STACK CFI 8830 .cfa: $rsp 96 +
STACK CFI INIT 88d0 44 .cfa: $rsp .ra: .cfa 8 - ^
STACK CFI 88d0 .cfa: $rsp 80 +
STACK CFI INIT 8920 99 .cfa: $rsp .ra: .cfa 8 - ^
STACK CFI 8920 .cfa: $rsp 96 +
STACK CFI INIT 89c0 44 .cfa: $rsp .ra: .cfa 8 - ^
STACK CFI 89c0 .cfa: $rsp 80 +
STACK CFI INIT 8a10 99 .cfa: $rsp .ra: .cfa 8 - ^
STACK CFI 8a10 .cfa: $rsp 96 +
STACK CFI INIT 8ab0 34 .cfa: $rsp .ra: .cfa 8 - ^
STACK CFI 8ab0 .cfa: $rsp 80 +
STACK CFI INIT 8af0 7 .cfa: $rsp .ra: .cfa 8 - ^
STACK CFI 8af0 .cfa: $rsp 8 +
STACK CFI INIT 8b00 50 .cfa: $rsp .ra: .cfa 8 - ^
STACK CFI 8b00 .cfa: $rsp 80 +
STACK CFI INIT 8b50 2 .cfa: $rsp .ra: .cfa 8 - ^
STACK CFI 8b50 .cfa: $rsp 8 +
STACK CFI INIT 8b60 a4 .cfa: $rsp .ra: .cfa 8 - ^
STACK CFI 8b60 .cfa: $rsp 96 +
STACK CFI INIT 8c10 44 .cfa: $rsp .ra: .cfa 8 - ^
STACK CFI 8c10 .cfa: $rsp 80 +
STACK CFI INIT 8c60 a9 .cfa: $rsp .ra: .cfa 8 - ^
STACK CFI 8c60 .cfa: $rsp 96 +
STACK CFI INIT 8d10 41 .cfa: $rsp .ra: .cfa 8 - ^
STACK CFI 8d10 .cfa: $rsp 80 +
STACK CFI INIT 8d60 99 .cfa: $rsp .ra: .cfa 8 - ^
STACK CFI 8d60 .cfa: $rsp 96 +
STACK CFI INIT 8e00 41 .cfa: $rsp .ra: .cfa 8 - ^
STACK CFI 8e00 .cfa: $rsp 80 +
STACK CFI INIT 8e50 41 .cfa: $rsp .ra: .cfa 8 - ^
STACK CFI 8e50 .cfa: $rsp 80 +
STACK CFI INIT 8ea0 99 .cfa: $rsp .ra: .cfa 8 - ^
STACK CFI 8ea0 .cfa: $rsp 96 +
STACK CFI INIT 8f40 99 .cfa: $rsp .ra: .cfa 8 - ^
STACK CFI 8f40 .cfa: $rsp 96 +
STACK CFI INIT 8fe0 41 .cfa: $rsp .ra: .cfa 8 - ^
STACK CFI 8fe0 .cfa: $rsp 80 +
STACK CFI INIT 9030 2 .cfa: $rsp .ra: .cfa 8 - ^
STACK CFI 9030 .cfa: $rsp 8 +
STACK CFI INIT 9040 20d .cfa: $rsp .ra: .cfa 8 - ^
STACK CFI 9040 .cfa: $rsp 192 +
STACK CFI INIT 9250 92 .cfa: $rsp .ra: .cfa 8 - ^
STACK CFI 9250 .cfa: $rsp 80 +
STACK CFI INIT 92f0 162 .cfa: $rsp .ra: .cfa 8 - ^
STACK CFI 92f0 .cfa: $rsp 160 +
STACK CFI INIT 9460 182 .cfa: $rsp .ra: .cfa 8 - ^
STACK CFI 9460 .cfa: $rsp 128 +
STACK CFI INIT 95f0 3f .cfa: $rsp .ra: .cfa 8 - ^
STACK CFI 95f0 .cfa: $rsp 80 +
STACK CFI INIT 9630 3c .cfa: $rsp .ra: .cfa 8 - ^
STACK CFI 9630 .cfa: $rsp 80 +
STACK CFI INIT 9670 98 .cfa: $rsp .ra: .cfa 8 - ^
STACK CFI 9670 .cfa: $rsp 96 +
STACK CFI INIT 9710 6f .cfa: $rsp .ra: .cfa 8 - ^
STACK CFI 9710 .cfa: $rsp 80 +
STACK CFI INIT 9780 3f .cfa: $rsp .ra: .cfa 8 - ^
STACK CFI 9780 .cfa: $rsp 80 +
STACK CFI INIT 97c0 99 .cfa: $rsp .ra: .cfa 8 - ^
STACK CFI 97c0 .cfa: $rsp 96 +
STACK CFI INIT 9860 41 .cfa: $rsp .ra: .cfa 8 - ^
STACK CFI 9860 .cfa: $rsp 80 +
STACK CFI INIT 98b0 d8 .cfa: $rsp .ra: .cfa 8 - ^
STACK CFI 98b0 .cfa: $rsp 144 +
STACK CFI INIT 9990 127 .cfa: $rsp .ra: .cfa 8 - ^
STACK CFI 9990 .cfa: $rsp 112 +
STACK CFI INIT 9ac0 39 .cfa: $rsp .ra: .cfa 8 - ^
STACK CFI 9ac0 .cfa: $rsp 80 +
STACK CFI INIT 9b00 41 .cfa: $rsp .ra: .cfa 8 - ^
STACK CFI 9b00 .cfa: $rsp 80 +
STACK CFI INIT 9b50 3c .cfa: $rsp .ra: .cfa 8 - ^
STACK CFI 9b50 .cfa: $rsp 80 +
STACK CFI INIT 9b90 3f .cfa: $rsp .ra: .cfa 8 - ^
STACK CFI 9b90 .cfa: $rsp 80 +
STACK CFI INIT 9bd0 39 .cfa: $rsp .ra: .cfa 8 - ^
STACK CFI 9bd0 .cfa: $rsp 80 +
STACK CFI INIT 9c10 5 .cfa: $rsp .ra: .cfa 8 - ^
STACK CFI 9c10 .cfa: $rsp 8 +
STACK CFI INIT 9c20 41 .cfa: $rsp .ra: .cfa 8 - ^
STACK CFI 9c20 .cfa: $rsp 80 +
STACK CFI INIT 9c70 13 .cfa: $rsp .ra: .cfa 8 - ^
STACK CFI 9c70 .cfa: $rsp 48 +
STACK CFI INIT 9c90 e2 .cfa: $rsp .ra: .cfa 8 - ^
STACK CFI 9c90 .cfa: $rsp 112 +
STACK CFI INIT 9d80 e2 .cfa: $rsp .ra: .cfa 8 - ^
STACK CFI 9d80 .cfa: $rsp 112 +
STACK CFI INIT 9e70 44 .cfa: $rsp .ra: .cfa 8 - ^
STACK CFI 9e70 .cfa: $rsp 80 +
STACK CFI INIT 9ec0 44 .cfa: $rsp .ra: .cfa 8 - ^
STACK CFI 9ec0 .cfa: $rsp 80 +
STACK CFI INIT 9f10 138 .cfa: $rsp .ra: .cfa 8 - ^
STACK CFI 9f10 .cfa: $rsp 176 +
STACK CFI INIT a050 167 .cfa: $rsp .ra: .cfa 8 - ^
STACK CFI a050 .cfa: $rsp 240 +
STACK CFI INIT a1c0 9 .cfa: $rsp .ra: .cfa 8 - ^
STACK CFI a1c0 .cfa: $rsp 8 +
STACK CFI INIT a1d0 99 .cfa: $rsp .ra: .cfa 8 - ^
STACK CFI a1d0 .cfa: $rsp 96 +
STACK CFI INIT a270 41 .cfa: $rsp .ra: .cfa 8 - ^
STACK CFI a270 .cfa: $rsp 80 +
STACK CFI INIT a2c0 f .cfa: $rsp .ra: .cfa 8 - ^
STACK CFI a2c0 .cfa: $rsp 8 +
STACK CFI INIT a2d0 f .cfa: $rsp .ra: .cfa 8 - ^
STACK CFI a2d0 .cfa: $rsp 8 +
STACK CFI INIT a2e0 44 .cfa: $rsp .ra: .cfa 8 - ^
STACK CFI a2e0 .cfa: $rsp 80 +
STACK CFI INIT a330 39 .cfa: $rsp .ra: .cfa 8 - ^
STACK CFI a330 .cfa: $rsp 80 +
STACK CFI INIT a370 8 .cfa: $rsp .ra: .cfa 8 - ^
STACK CFI a370 .cfa: $rsp 8 +
STACK CFI INIT a380 8 .cfa: $rsp .ra: .cfa 8 - ^
STACK CFI a380 .cfa: $rsp 8 +
STACK CFI INIT a390 68 .cfa: $rsp .ra: .cfa 8 - ^
STACK CFI a390 .cfa: $rsp 80 +
STACK CFI INIT a400 13 .cfa: $rsp .ra: .cfa 8 - ^
STACK CFI a400 .cfa: $rsp 8 +
STACK CFI INIT a420 8 .cfa: $rsp .ra: .cfa 8 - ^
STACK CFI a420 .cfa: $rsp 8 +
STACK CFI INIT a430 132 .cfa: $rsp .ra: .cfa 8 - ^
STACK CFI a430 .cfa: $rsp 160 +
STACK CFI INIT a570 f8 .cfa: $rsp .ra: .cfa 8 - ^
STACK CFI a570 .cfa: $rsp 144 +
STACK CFI INIT a670 38d .cfa: $rsp .ra: .cfa 8 - ^
STACK CFI a670 .cfa: $rsp 144 +
STACK CFI INIT aa00 2f .cfa: $rsp .ra: .cfa 8 - ^
STACK CFI aa00 .cfa: $rsp 48 +
STACK CFI INIT aa30 4a .cfa: $rsp .ra: .cfa 8 - ^
STACK CFI aa30 .cfa: $rsp 64 +
STACK CFI INIT aa80 4a .cfa: $rsp .ra: .cfa 8 - ^
STACK CFI aa80 .cfa: $rsp 64 +
STACK CFI INIT aad0 a6 .cfa: $rsp .ra: .cfa 8 - ^
STACK CFI aad0 .cfa: $rsp 96 +
STACK CFI INIT ab80 76 .cfa: $rsp .ra: .cfa 8 - ^
STACK CFI ab80 .cfa: $rsp 80 +
STACK CFI INIT ac00 133 .cfa: $rsp .ra: .cfa 8 - ^
STACK CFI ac00 .cfa: $rsp 112 +
STACK CFI INIT ad40 5 .cfa: $rsp .ra: .cfa 8 - ^
STACK CFI ad40 .cfa: $rsp 8 +
STACK CFI INIT ad50 b0 .cfa: $rsp .ra: .cfa 8 - ^
STACK CFI ad50 .cfa: $rsp 64 +
STACK CFI INIT ae00 196 .cfa: $rsp .ra: .cfa 8 - ^
STACK CFI ae00 .cfa: $rsp 80 +
STACK CFI INIT afa0 3a9 .cfa: $rsp .ra: .cfa 8 - ^
STACK CFI afa0 .cfa: $rsp 96 +
STACK CFI INIT b350 30 .cfa: $rsp .ra: .cfa 8 - ^
STACK CFI b350 .cfa: $rsp 64 +
STACK CFI INIT b380 d0 .cfa: $rsp .ra: .cfa 8 - ^
STACK CFI b380 .cfa: $rsp 64 +
STACK CFI INIT b450 369 .cfa: $rsp .ra: .cfa 8 - ^
STACK CFI b450 .cfa: $rsp 80 +
STACK CFI INIT b7c0 19 .cfa: $rsp .ra: .cfa 8 - ^
STACK CFI b7c0 .cfa: $rsp 48 +
STACK CFI INIT b7e0 19 .cfa: $rsp .ra: .cfa 8 - ^
STACK CFI b7e0 .cfa: $rsp 48 +
STACK CFI INIT b800 19 .cfa: $rsp .ra: .cfa 8 - ^
STACK CFI b800 .cfa: $rsp 48 +
STACK CFI INIT b820 19 .cfa: $rsp .ra: .cfa 8 - ^
STACK CFI b820 .cfa: $rsp 48 +
STACK CFI INIT b840 c2 .cfa: $rsp .ra: .cfa 8 - ^
STACK CFI b840 .cfa: $rsp 64 +
STACK CFI INIT b910 8 .cfa: $rsp .ra: .cfa 8 - ^
STACK CFI b910 .cfa: $rsp 8 +
STACK CFI INIT b920 8 .cfa: $rsp .ra: .cfa 8 - ^
STACK CFI b920 .cfa: $rsp 8 +
STACK CFI INIT b930 8 .cfa: $rsp .ra: .cfa 8 - ^
STACK CFI b930 .cfa: $rsp 8 +
STACK CFI INIT b940 19 .cfa: $rsp .ra: .cfa 8 - ^
STACK CFI b940 .cfa: $rsp 48 +
STACK CFI INIT b960 19 .cfa: $rsp .ra: .cfa 8 - ^
STACK CFI b960 .cfa: $rsp 48 +
STACK CFI INIT b980 8 .cfa: $rsp .ra: .cfa 8 - ^
STACK CFI b980 .cfa: $rsp 8 +
STACK CFI INIT b990 7a .cfa: $rsp .ra: .cfa 8 - ^
STACK CFI b990 .cfa: $rsp 64 +
STACK CFI INIT ba10 7a .cfa: $rsp .ra: .cfa 8 - ^
STACK CFI ba10 .cfa: $rsp 64 +
STACK CFI INIT ba90 19 .cfa: $rsp .ra: .cfa 8 - ^
STACK CFI ba90 .cfa: $rsp 48 +
STACK CFI INIT bab0 8 .cfa: $rsp .ra: .cfa 8 - ^
STACK CFI bab0 .cfa: $rsp 8 +
STACK CFI INIT bac0 43 .cfa: $rsp .ra: .cfa 8 - ^
STACK CFI bac0 .cfa: $rsp 48 +
STACK CFI INIT bb10 43 .cfa: $rsp .ra: .cfa 8 - ^
STACK CFI bb10 .cfa: $rsp 48 +
STACK CFI INIT bb60 142 .cfa: $rsp .ra: .cfa 8 - ^
STACK CFI bb60 .cfa: $rsp 80 +
STACK CFI INIT bcb0 33 .cfa: $rsp .ra: .cfa 8 - ^
STACK CFI bcb0 .cfa: $rsp 64 +
STACK CFI INIT bcf0 1c5 .cfa: $rsp .ra: .cfa 8 - ^
STACK CFI bcf0 .cfa: $rsp 128 +
STACK CFI INIT bec0 dc .cfa: $rsp .ra: .cfa 8 - ^
STACK CFI bec0 .cfa: $rsp 128 +
STACK CFI INIT bfa0 19d .cfa: $rsp .ra: .cfa 8 - ^
STACK CFI bfa0 .cfa: $rsp 208 +
STACK CFI INIT c140 296 .cfa: $rsp .ra: .cfa 8 - ^
STACK CFI c140 .cfa: $rsp 144 +
STACK CFI INIT c3e0 1e5 .cfa: $rsp .ra: .cfa 8 - ^
STACK CFI c3e0 .cfa: $rsp 112 +
STACK CFI INIT c5d0 3 .cfa: $rsp .ra: .cfa 8 - ^
STACK CFI c5d0 .cfa: $rsp 8 +
STACK CFI INIT c5e0 5 .cfa: $rsp .ra: .cfa 8 - ^
STACK CFI c5e0 .cfa: $rsp 8 +
STACK CFI INIT c5f0 6 .cfa: $rsp .ra: .cfa 8 - ^
STACK CFI c5f0 .cfa: $rsp 8 +
STACK CFI INIT c600 5 .cfa: $rsp .ra: .cfa 8 - ^
STACK CFI c600 .cfa: $rsp 8 +
STACK CFI INIT c610 5 .cfa: $rsp .ra: .cfa 8 - ^
STACK CFI c610 .cfa: $rsp 8 +
STACK CFI INIT c620 1 .cfa: $rsp .ra: .cfa 8 - ^
STACK CFI c620 .cfa: $rsp 8 +
STACK CFI INIT c630 5 .cfa: $rsp .ra: .cfa 8 - ^
STACK CFI c630 .cfa: $rsp 8 +
STACK CFI INIT c640 5 .cfa: $rsp .ra: .cfa 8 - ^
STACK CFI c640 .cfa: $rsp 8 +
STACK CFI INIT c650 5 .cfa: $rsp .ra: .cfa 8 - ^
STACK CFI c650 .cfa: $rsp 8 +
STACK CFI INIT c660 23 .cfa: $rsp .ra: .cfa 8 - ^
STACK CFI c660 .cfa: $rsp 8 +
STACK CFI INIT c690 3 .cfa: $rsp .ra: .cfa 8 - ^
STACK CFI c690 .cfa: $rsp 8 +
STACK CFI INIT c6a0 3 .cfa: $rsp .ra: .cfa 8 - ^
STACK CFI c6a0 .cfa: $rsp 8 +
STACK CFI INIT c6b0 3 .cfa: $rsp .ra: .cfa 8 - ^
STACK CFI c6b0 .cfa: $rsp 8 +
STACK CFI INIT c6c0 17 .cfa: $rsp .ra: .cfa 8 - ^
STACK CFI c6c0 .cfa: $rsp 48 +
STACK CFI INIT c6e0 50 .cfa: $rsp .ra: .cfa 8 - ^
STACK CFI c6e0 .cfa: $rsp 80 +
STACK CFI INIT c730 5b .cfa: $rsp .ra: .cfa 8 - ^
STACK CFI c730 .cfa: $rsp 80 +
STACK CFI INIT c790 4a .cfa: $rsp .ra: .cfa 8 - ^
STACK CFI c790 .cfa: $rsp 64 +
STACK CFI INIT c7e0 4a .cfa: $rsp .ra: .cfa 8 - ^
STACK CFI c7e0 .cfa: $rsp 64 +
STACK CFI INIT c830 50 .cfa: $rsp .ra: .cfa 8 - ^
STACK CFI c830 .cfa: $rsp 80 +
STACK CFI INIT c880 1aa .cfa: $rsp .ra: .cfa 8 - ^
STACK CFI c880 .cfa: $rsp 288 +
STACK CFI INIT ca30 26 .cfa: $rsp .ra: .cfa 8 - ^
STACK CFI ca30 .cfa: $rsp 8 +
STACK CFI INIT ca60 26 .cfa: $rsp .ra: .cfa 8 - ^
STACK CFI ca60 .cfa: $rsp 8 +
STACK CFI INIT ca90 26 .cfa: $rsp .ra: .cfa 8 - ^
STACK CFI ca90 .cfa: $rsp 8 +
STACK CFI INIT cac0 26 .cfa: $rsp .ra: .cfa 8 - ^
STACK CFI cac0 .cfa: $rsp 8 +
STACK CFI INIT caf0 f4 .cfa: $rsp .ra: .cfa 8 - ^
STACK CFI caf0 .cfa: $rsp 96 +
STACK CFI INIT cbf0 f4 .cfa: $rsp .ra: .cfa 8 - ^
STACK CFI cbf0 .cfa: $rsp 96 +
STACK CFI INIT ccf0 c6 .cfa: $rsp .ra: .cfa 8 - ^
STACK CFI ccf0 .cfa: $rsp 80 +
STACK CFI INIT cdc0 c6 .cfa: $rsp .ra: .cfa 8 - ^
STACK CFI cdc0 .cfa: $rsp 80 +
STACK CFI INIT ce90 559 .cfa: $rsp .ra: .cfa 8 - ^
STACK CFI ce90 .cfa: $rsp 96 +
STACK CFI INIT d3f0 1f .cfa: $rsp .ra: .cfa 8 - ^
STACK CFI d3f0 .cfa: $rsp 48 +
STACK CFI INIT d410 7f .cfa: $rsp .ra: .cfa 8 - ^
STACK CFI d410 .cfa: $rsp 8 +
STACK CFI INIT d490 96 .cfa: $rsp .ra: .cfa 8 - ^
STACK CFI d490 .cfa: $rsp 8 +
STACK CFI INIT d530 17 .cfa: $rsp .ra: .cfa 8 - ^
STACK CFI d530 .cfa: $rsp 48 +
STACK CFI INIT d550 17 .cfa: $rsp .ra: .cfa 8 - ^
STACK CFI d550 .cfa: $rsp 48 +
STACK CFI INIT d570 51 .cfa: $rsp .ra: .cfa 8 - ^
STACK CFI d570 .cfa: $rsp 48 +
STACK CFI INIT d5d0 15a .cfa: $rsp .ra: .cfa 8 - ^
STACK CFI d5d0 .cfa: $rsp 96 +
STACK CFI INIT d730 c4 .cfa: $rsp .ra: .cfa 8 - ^
STACK CFI d730 .cfa: $rsp 80 +
STACK CFI INIT d800 de .cfa: $rsp .ra: .cfa 8 - ^
STACK CFI d800 .cfa: $rsp 96 +
STACK CFI INIT d8e0 18a .cfa: $rsp .ra: .cfa 8 - ^
STACK CFI d8e0 .cfa: $rsp 112 +
STACK CFI INIT da70 1ea .cfa: $rsp .ra: .cfa 8 - ^
STACK CFI da70 .cfa: $rsp 128 +
STACK CFI INIT dc60 37a .cfa: $rsp .ra: .cfa 8 - ^
STACK CFI dc60 .cfa: $rsp 128 +
STACK CFI INIT dfe0 ea .cfa: $rsp .ra: .cfa 8 - ^
STACK CFI dfe0 .cfa: $rsp 96 +
STACK CFI INIT e0d0 51 .cfa: $rsp .ra: .cfa 8 - ^
STACK CFI e0d0 .cfa: $rsp 48 +
STACK CFI INIT e130 51 .cfa: $rsp .ra: .cfa 8 - ^
STACK CFI e130 .cfa: $rsp 48 +
STACK CFI INIT e190 51 .cfa: $rsp .ra: .cfa 8 - ^
STACK CFI e190 .cfa: $rsp 48 +
STACK CFI INIT e1f0 51 .cfa: $rsp .ra: .cfa 8 - ^
STACK CFI e1f0 .cfa: $rsp 48 +
STACK CFI INIT e250 51 .cfa: $rsp .ra: .cfa 8 - ^
STACK CFI e250 .cfa: $rsp 48 +
STACK CFI INIT e2b0 26 .cfa: $rsp .ra: .cfa 8 - ^
STACK CFI e2b0 .cfa: $rsp 48 +
STACK CFI INIT e2e0 22 .cfa: $rsp .ra: .cfa 8 - ^
STACK CFI e2e0 .cfa: $rsp 48 +
STACK CFI INIT e310 15 .cfa: $rsp .ra: .cfa 8 - ^
STACK CFI e310 .cfa: $rsp 8 +
STACK CFI INIT e330 2e .cfa: $rsp .ra: .cfa 8 - ^
STACK CFI e330 .cfa: $rsp 48 +
STACK CFI INIT e360 1b0c .cfa: $rsp .ra: .cfa 8 - ^
STACK CFI e360 .cfa: $rsp 176 +
STACK CFI INIT fe70 30 .cfa: $rsp .ra: .cfa 8 - ^
STACK CFI fe70 .cfa: $rsp 48 +
STACK CFI INIT fea0 1 .cfa: $rsp .ra: .cfa 8 - ^
STACK CFI fea0 .cfa: $rsp 8 +
STACK CFI INIT feb0 3 .cfa: $rsp .ra: .cfa 8 - ^
STACK CFI feb0 .cfa: $rsp 8 +
STACK CFI INIT fec0 3 .cfa: $rsp .ra: .cfa 8 - ^
STACK CFI fec0 .cfa: $rsp 8 +
STACK CFI INIT fed0 e .cfa: $rsp .ra: .cfa 8 - ^
STACK CFI fed0 .cfa: $rsp 8 +
STACK CFI INIT fee0 e .cfa: $rsp .ra: .cfa 8 - ^
STACK CFI fee0 .cfa: $rsp 8 +
STACK CFI INIT fef0 a .cfa: $rsp .ra: .cfa 8 - ^
STACK CFI fef0 .cfa: $rsp 8 +
STACK CFI INIT ff00 16 .cfa: $rsp .ra: .cfa 8 - ^
STACK CFI ff00 .cfa: $rsp 48 +
STACK CFI INIT ff20 ac .cfa: $rsp .ra: .cfa 8 - ^
STACK CFI ff20 .cfa: $rsp 80 +
STACK CFI INIT ffd0 b .cfa: $rsp .ra: .cfa 8 - ^
STACK CFI ffd0 .cfa: $rsp 8 +
STACK CFI INIT ffe0 16 .cfa: $rsp .ra: .cfa 8 - ^
STACK CFI ffe0 .cfa: $rsp 48 +
STACK CFI INIT 10000 17 .cfa: $rsp .ra: .cfa 8 - ^
STACK CFI 10000 .cfa: $rsp 48 +
STACK CFI INIT 10020 12 .cfa: $rsp .ra: .cfa 8 - ^
STACK CFI 10020 .cfa: $rsp 8 +
STACK CFI INIT 10040 12 .cfa: $rsp .ra: .cfa 8 - ^
STACK CFI 10040 .cfa: $rsp 8 +
STACK CFI INIT 10060 12 .cfa: $rsp .ra: .cfa 8 - ^
STACK CFI 10060 .cfa: $rsp 8 +
STACK CFI INIT 10080 15 .cfa: $rsp .ra: .cfa 8 - ^
STACK CFI 10080 .cfa: $rsp 8 +
STACK CFI INIT 100a0 15 .cfa: $rsp .ra: .cfa 8 - ^
STACK CFI 100a0 .cfa: $rsp 8 +
STACK CFI INIT 100c0 15 .cfa: $rsp .ra: .cfa 8 - ^
STACK CFI 100c0 .cfa: $rsp 8 +
STACK CFI INIT 100e0 b .cfa: $rsp .ra: .cfa 8 - ^
STACK CFI 100e0 .cfa: $rsp 8 +
STACK CFI INIT 10100 58 .cfa: $rsp .ra: .cfa 8 - ^
STACK CFI 10100 .cfa: $rsp 64 +
STACK CFI INIT 10160 22c .cfa: $rsp .ra: .cfa 8 - ^
STACK CFI 10160 .cfa: $rsp 112 +
STACK CFI INIT 10390 38 .cfa: $rsp .ra: .cfa 8 - ^
STACK CFI 10390 .cfa: $rsp 8 +
STACK CFI INIT 103e0 38 .cfa: $rsp .ra: .cfa 8 - ^
STACK CFI 103e0 .cfa: $rsp 8 +
STACK CFI INIT 10430 4e .cfa: $rsp .ra: .cfa 8 - ^
STACK CFI 10430 .cfa: $rsp 48 +
STACK CFI INIT 10490 6a .cfa: $rsp .ra: .cfa 8 - ^
STACK CFI 10490 .cfa: $rsp 64 +
STACK CFI INIT 10510 5f .cfa: $rsp .ra: .cfa 8 - ^
STACK CFI 10510 .cfa: $rsp 64 +
STACK CFI INIT 10580 76 .cfa: $rsp .ra: .cfa 8 - ^
STACK CFI 10580 .cfa: $rsp 64 +
STACK CFI INIT 10610 de .cfa: $rsp .ra: .cfa 8 - ^
STACK CFI 10610 .cfa: $rsp 64 +
STACK CFI INIT 106f0 85 .cfa: $rsp .ra: .cfa 8 - ^
STACK CFI 106f0 .cfa: $rsp 64 +
STACK CFI INIT 10780 13 .cfa: $rsp .ra: .cfa 8 - ^
STACK CFI 10780 .cfa: $rsp 8 +
STACK CFI INIT 107a0 2f6 .cfa: $rsp .ra: .cfa 8 - ^
STACK CFI 107a0 .cfa: $rsp 112 +
STACK CFI INIT 10aa0 2ac .cfa: $rsp .ra: .cfa 8 - ^
STACK CFI 10aa0 .cfa: $rsp 112 +
STACK CFI INIT 10d60 3 .cfa: $rsp .ra: .cfa 8 - ^
STACK CFI 10d60 .cfa: $rsp 8 +
STACK CFI INIT 10d70 b .cfa: $rsp .ra: .cfa 8 - ^
STACK CFI 10d70 .cfa: $rsp 8 +
STACK CFI INIT 10d90 188 .cfa: $rsp .ra: .cfa 8 - ^
STACK CFI 10d90 .cfa: $rsp 96 +
STACK CFI INIT 10f30 68 .cfa: $rsp .ra: .cfa 8 - ^
STACK CFI 10f30 .cfa: $rsp 80 +
STACK CFI INIT 10fa0 3 .cfa: $rsp .ra: .cfa 8 - ^
STACK CFI 10fa0 .cfa: $rsp 8 +
STACK CFI INIT 10fb0 117 .cfa: $rsp .ra: .cfa 8 - ^
STACK CFI 10fb0 .cfa: $rsp 304 +
STACK CFI INIT 110d0 6bd .cfa: $rsp .ra: .cfa 8 - ^
STACK CFI 110d0 .cfa: $rsp 352 +
STACK CFI INIT 11790 1c8 .cfa: $rsp .ra: .cfa 8 - ^
STACK CFI 11790 .cfa: $rsp 224 +
STACK CFI INIT 11960 8f .cfa: $rsp .ra: .cfa 8 - ^
STACK CFI 11960 .cfa: $rsp 80 +
STACK CFI INIT 119f0 155 .cfa: $rsp .ra: .cfa 8 - ^
STACK CFI 119f0 .cfa: $rsp 128 +
STACK CFI INIT 11b50 48 .cfa: $rsp .ra: .cfa 8 - ^
STACK CFI 11b50 .cfa: $rsp 80 +
STACK CFI INIT 11ba0 346 .cfa: $rsp .ra: .cfa 8 - ^
STACK CFI 11ba0 .cfa: $rsp 288 +
STACK CFI INIT 11ef0 d1 .cfa: $rsp .ra: .cfa 8 - ^
STACK CFI 11ef0 .cfa: $rsp 48 +
STACK CFI INIT 11fd0 119 .cfa: $rsp .ra: .cfa 8 - ^
STACK CFI 11fd0 .cfa: $rsp 48 +
STACK CFI INIT 120f0 1f .cfa: $rsp .ra: .cfa 8 - ^
STACK CFI 120f0 .cfa: $rsp 48 +
STACK CFI INIT 12110 9f .cfa: $rsp .ra: .cfa 8 - ^
STACK CFI 12110 .cfa: $rsp 96 +
STACK CFI INIT 121b0 32 .cfa: $rsp .ra: .cfa 8 - ^
STACK CFI 121b0 .cfa: $rsp 48 +
STACK CFI INIT 121f0 e9 .cfa: $rsp .ra: .cfa 8 - ^
STACK CFI 121f0 .cfa: $rsp 64 +
STACK CFI INIT 122f0 c .cfa: $rsp .ra: .cfa 8 - ^
STACK CFI 122f0 .cfa: $rsp 8 +
STACK CFI INIT 12300 1 .cfa: $rsp .ra: .cfa 8 - ^
STACK CFI 12300 .cfa: $rsp 8 +
STACK CFI INIT 12310 15f .cfa: $rsp .ra: .cfa 8 - ^
STACK CFI 12310 .cfa: $rsp 96 +
STACK CFI INIT 12470 c .cfa: $rsp .ra: .cfa 8 - ^
STACK CFI 12470 .cfa: $rsp 8 +
STACK CFI INIT 12480 22b .cfa: $rsp .ra: .cfa 8 - ^
STACK CFI 12480 .cfa: $rsp 160 +
STACK CFI INIT 126b0 158 .cfa: $rsp .ra: .cfa 8 - ^
STACK CFI 126b0 .cfa: $rsp 96 +
STACK CFI INIT 12810 268 .cfa: $rsp .ra: .cfa 8 - ^
STACK CFI 12810 .cfa: $rsp 272 +
STACK CFI INIT 12a80 27f .cfa: $rsp .ra: .cfa 8 - ^
STACK CFI 12a80 .cfa: $rsp 192 +
STACK CFI INIT 12d00 290 .cfa: $rsp .ra: .cfa 8 - ^
STACK CFI 12d00 .cfa: $rsp 112 +
STACK CFI INIT 12f90 396 .cfa: $rsp .ra: .cfa 8 - ^
STACK CFI 12f90 .cfa: $rsp 208 +
STACK CFI INIT 13330 321 .cfa: $rsp .ra: .cfa 8 - ^
STACK CFI 13330 .cfa: $rsp 144 +
STACK CFI INIT 13660 c3a .cfa: $rsp .ra: .cfa 8 - ^
STACK CFI 13660 .cfa: $rsp 208 +
STACK CFI INIT 142a0 2126 .cfa: $rsp .ra: .cfa 8 - ^
STACK CFI 142a0 .cfa: $rsp 5056 +
STACK CFI INIT 163d0 1395 .cfa: $rsp .ra: .cfa 8 - ^
STACK CFI 163d0 .cfa: $rsp 368 +
STACK CFI INIT 17780 f45 .cfa: $rsp .ra: .cfa 8 - ^
STACK CFI 17780 .cfa: $rsp 288 +
STACK CFI INIT 186e0 ac .cfa: $rsp .ra: .cfa 8 - ^
STACK CFI 186e0 .cfa: $rsp 80 +
STACK CFI INIT 18790 206 .cfa: $rsp .ra: .cfa 8 - ^
STACK CFI 18790 .cfa: $rsp 144 +
STACK CFI INIT 189a0 396 .cfa: $rsp .ra: .cfa 8 - ^
STACK CFI 189a0 .cfa: $rsp 272 +
STACK CFI INIT 18d40 b6 .cfa: $rsp .ra: .cfa 8 - ^
STACK CFI 18d40 .cfa: $rsp 64 +
STACK CFI INIT 18e00 251f .cfa: $rsp .ra: .cfa 8 - ^
STACK CFI 18e00 .cfa: $rsp 464 +
STACK CFI INIT 1b320 285 .cfa: $rsp .ra: .cfa 8 - ^
STACK CFI 1b320 .cfa: $rsp 192 +
STACK CFI INIT 1b5b0 b41 .cfa: $rsp .ra: .cfa 8 - ^
STACK CFI 1b5b0 .cfa: $rsp 864 +
STACK CFI INIT 1c100 440 .cfa: $rsp .ra: .cfa 8 - ^
STACK CFI 1c100 .cfa: $rsp 336 +
STACK CFI INIT 1c540 8f .cfa: $rsp .ra: .cfa 8 - ^
STACK CFI 1c540 .cfa: $rsp 80 +
STACK CFI INIT 1c5d0 eb .cfa: $rsp .ra: .cfa 8 - ^
STACK CFI 1c5d0 .cfa: $rsp 112 +
STACK CFI INIT 1c6c0 15 .cfa: $rsp .ra: .cfa 8 - ^
STACK CFI 1c6c0 .cfa: $rsp 8 +
STACK CFI INIT 1c6e0 14 .cfa: $rsp .ra: .cfa 8 - ^
STACK CFI 1c6e0 .cfa: $rsp 8 +
STACK CFI INIT 1c700 37 .cfa: $rsp .ra: .cfa 8 - ^
STACK CFI 1c700 .cfa: $rsp 64 +
STACK CFI INIT 1c740 17 .cfa: $rsp .ra: .cfa 8 - ^
STACK CFI 1c740 .cfa: $rsp 8 +
STACK CFI INIT 1c760 1b .cfa: $rsp .ra: .cfa 8 - ^
STACK CFI 1c760 .cfa: $rsp 8 +
STACK CFI INIT 1c780 34 .cfa: $rsp .ra: .cfa 8 - ^
STACK CFI 1c780 .cfa: $rsp 48 +
STACK CFI INIT 1c7c0 1a .cfa: $rsp .ra: .cfa 8 - ^
STACK CFI 1c7c0 .cfa: $rsp 8 +
STACK CFI INIT 1c7e0 1a .cfa: $rsp .ra: .cfa 8 - ^
STACK CFI 1c7e0 .cfa: $rsp 8 +
STACK CFI INIT 1c800 11 .cfa: $rsp .ra: .cfa 8 - ^
STACK CFI 1c800 .cfa: $rsp 8 +
STACK CFI INIT 1c820 2a .cfa: $rsp .ra: .cfa 8 - ^
STACK CFI 1c820 .cfa: $rsp 48 +
STACK CFI INIT 1c850 4a .cfa: $rsp .ra: .cfa 8 - ^
STACK CFI 1c850 .cfa: $rsp 48 +
STACK CFI INIT 1c8b0 1f .cfa: $rsp .ra: .cfa 8 - ^
STACK CFI 1c8b0 .cfa: $rsp 48 +
STACK CFI INIT 1c8e0 20 .cfa: $rsp .ra: .cfa 8 - ^
STACK CFI 1c8e0 .cfa: $rsp 8 +
STACK CFI INIT 1c900 51 .cfa: $rsp .ra: .cfa 8 - ^
STACK CFI 1c900 .cfa: $rsp 8 +
STACK CFI INIT 1c960 38 .cfa: $rsp .ra: .cfa 8 - ^
STACK CFI 1c960 .cfa: $rsp 48 +
STACK CFI INIT 1c9a0 671 .cfa: $rsp .ra: .cfa 8 - ^
STACK CFI 1c9a0 .cfa: $rsp 592 +
STACK CFI INIT 1d020 1ad .cfa: $rsp .ra: .cfa 8 - ^
STACK CFI 1d020 .cfa: $rsp 112 +
STACK CFI INIT 1d1d0 378 .cfa: $rsp .ra: .cfa 8 - ^
STACK CFI 1d1d0 .cfa: $rsp 192 +
STACK CFI INIT 1d550 12a .cfa: $rsp .ra: .cfa 8 - ^
STACK CFI 1d550 .cfa: $rsp 224 +
STACK CFI INIT 1d680 26 .cfa: $rsp .ra: .cfa 8 - ^
STACK CFI 1d680 .cfa: $rsp 8 +
STACK CFI INIT 1d6b0 7e .cfa: $rsp .ra: .cfa 8 - ^
STACK CFI 1d6b0 .cfa: $rsp 64 +
STACK CFI INIT 1d730 d7 .cfa: $rsp .ra: .cfa 8 - ^
STACK CFI 1d730 .cfa: $rsp 80 +
STACK CFI INIT 1d810 ea .cfa: $rsp .ra: .cfa 8 - ^
STACK CFI 1d810 .cfa: $rsp 80 +
STACK CFI INIT 1d900 b .cfa: $rsp .ra: .cfa 8 - ^
STACK CFI 1d900 .cfa: $rsp 8 +
STACK CFI INIT 1d910 10 .cfa: $rsp .ra: .cfa 8 - ^
STACK CFI 1d910 .cfa: $rsp 8 +
STACK CFI INIT 1d920 42 .cfa: $rsp .ra: .cfa 8 - ^
STACK CFI 1d920 .cfa: $rsp 80 +
STACK CFI INIT 1d970 3b .cfa: $rsp .ra: .cfa 8 - ^
STACK CFI 1d970 .cfa: $rsp 8 +
STACK CFI INIT 1d9b0 47 .cfa: $rsp .ra: .cfa 8 - ^
STACK CFI 1d9b0 .cfa: $rsp 8 +
STACK CFI INIT 1da00 d .cfa: $rsp .ra: .cfa 8 - ^
STACK CFI 1da00 .cfa: $rsp 8 +
STACK CFI INIT 1da10 1a .cfa: $rsp .ra: .cfa 8 - ^
STACK CFI 1da10 .cfa: $rsp 8 +
STACK CFI INIT 1da30 12 .cfa: $rsp .ra: .cfa 8 - ^
STACK CFI 1da30 .cfa: $rsp 8 +
STACK CFI INIT 1da50 b .cfa: $rsp .ra: .cfa 8 - ^
STACK CFI 1da50 .cfa: $rsp 8 +
STACK CFI INIT 1da60 9 .cfa: $rsp .ra: .cfa 8 - ^
STACK CFI 1da60 .cfa: $rsp 8 +
STACK CFI INIT 1da70 b .cfa: $rsp .ra: .cfa 8 - ^
STACK CFI 1da70 .cfa: $rsp 8 +
STACK CFI INIT 1da80 1e0 .cfa: $rsp .ra: .cfa 8 - ^
STACK CFI 1da80 .cfa: $rsp 256 +
STACK CFI INIT 1dc60 56 .cfa: $rsp .ra: .cfa 8 - ^
STACK CFI 1dc60 .cfa: $rsp 64 +
STACK CFI INIT 1dcc0 4ef .cfa: $rsp .ra: .cfa 8 - ^
STACK CFI 1dcc0 .cfa: $rsp 432 +
STACK CFI INIT 1e1b0 11b .cfa: $rsp .ra: .cfa 8 - ^
STACK CFI 1e1b0 .cfa: $rsp 192 +
STACK CFI INIT 1e2d0 7 .cfa: $rsp .ra: .cfa 8 - ^
STACK CFI 1e2d0 .cfa: $rsp 8 +
STACK CFI INIT 1e2e0 a .cfa: $rsp .ra: .cfa 8 - ^
STACK CFI 1e2e0 .cfa: $rsp 8 +
STACK CFI INIT 1e2f0 a .cfa: $rsp .ra: .cfa 8 - ^
STACK CFI 1e2f0 .cfa: $rsp 8 +
STACK CFI INIT 1e300 31 .cfa: $rsp .ra: .cfa 8 - ^
STACK CFI 1e300 .cfa: $rsp 8 +
STACK CFI INIT 1e340 1f .cfa: $rsp .ra: .cfa 8 - ^
STACK CFI 1e340 .cfa: $rsp 8 +
STACK CFI INIT 1e360 1f .cfa: $rsp .ra: .cfa 8 - ^
STACK CFI 1e360 .cfa: $rsp 8 +
STACK CFI INIT 1e380 35e .cfa: $rsp .ra: .cfa 8 - ^
STACK CFI 1e380 .cfa: $rsp 256 +
STACK CFI INIT 1e6e0 12c .cfa: $rsp .ra: .cfa 8 - ^
STACK CFI 1e6e0 .cfa: $rsp 112 +
STACK CFI INIT 1e810 22 .cfa: $rsp .ra: .cfa 8 - ^
STACK CFI 1e810 .cfa: $rsp 48 +
STACK CFI INIT 1e840 27 .cfa: $rsp .ra: .cfa 8 - ^
STACK CFI 1e840 .cfa: $rsp 48 +
STACK CFI INIT 1e870 24 .cfa: $rsp .ra: .cfa 8 - ^
STACK CFI 1e870 .cfa: $rsp 48 +
STACK CFI INIT 1e8a0 2b .cfa: $rsp .ra: .cfa 8 - ^
STACK CFI 1e8a0 .cfa: $rsp 48 +
STACK CFI INIT 1e8d0 3f .cfa: $rsp .ra: .cfa 8 - ^
STACK CFI 1e8d0 .cfa: $rsp 64 +
STACK CFI INIT 1e910 25e .cfa: $rsp .ra: .cfa 8 - ^
STACK CFI 1e910 .cfa: $rsp 80 +
STACK CFI INIT 1eb70 60 .cfa: $rsp .ra: .cfa 8 - ^
STACK CFI 1eb70 .cfa: $rsp 8 +
STACK CFI INIT 1ebd0 2a .cfa: $rsp .ra: .cfa 8 - ^
STACK CFI 1ebd0 .cfa: $rsp 48 +
STACK CFI INIT 1ec00 7e .cfa: $rsp .ra: .cfa 8 - ^
STACK CFI 1ec00 .cfa: $rsp 80 +
STACK CFI INIT 1ec80 64 .cfa: $rsp .ra: .cfa 8 - ^
STACK CFI 1ec80 .cfa: $rsp 80 +
STACK CFI INIT 1ecf0 47 .cfa: $rsp .ra: .cfa 8 - ^
STACK CFI 1ecf0 .cfa: $rsp 64 +
STACK CFI INIT 1ed40 47 .cfa: $rsp .ra: .cfa 8 - ^
STACK CFI 1ed40 .cfa: $rsp 64 +
STACK CFI INIT 1ed90 5c .cfa: $rsp .ra: .cfa 8 - ^
STACK CFI 1ed90 .cfa: $rsp 80 +
STACK CFI INIT 1edf0 d3 .cfa: $rsp .ra: .cfa 8 - ^
STACK CFI 1edf0 .cfa: $rsp 112 +
STACK CFI INIT 1eed0 d3 .cfa: $rsp .ra: .cfa 8 - ^
STACK CFI 1eed0 .cfa: $rsp 96 +
STACK CFI INIT 1efb0 11 .cfa: $rsp .ra: .cfa 8 - ^
STACK CFI 1efb0 .cfa: $rsp 8 +
STACK CFI INIT 1efd0 566 .cfa: $rsp .ra: .cfa 8 - ^
STACK CFI 1efd0 .cfa: $rsp 400 +
STACK CFI INIT 1f540 19 .cfa: $rsp .ra: .cfa 8 - ^
STACK CFI 1f540 .cfa: $rsp 8 +
STACK CFI INIT 1f570 33 .cfa: $rsp .ra: .cfa 8 - ^
STACK CFI 1f570 .cfa: $rsp 48 +
STACK CFI INIT 1f5c0 1a .cfa: $rsp .ra: .cfa 8 - ^
STACK CFI 1f5c0 .cfa: $rsp 8 +
STACK CFI INIT 1f5e0 37 .cfa: $rsp .ra: .cfa 8 - ^
STACK CFI 1f5e0 .cfa: $rsp 64 +
STACK CFI INIT 1f620 3e .cfa: $rsp .ra: .cfa 8 - ^
STACK CFI 1f620 .cfa: $rsp 80 +
STACK CFI INIT 1f660 83 .cfa: $rsp .ra: .cfa 8 - ^
STACK CFI 1f660 .cfa: $rsp 48 +
STACK CFI INIT 1f6f0 44 .cfa: $rsp .ra: .cfa 8 - ^
STACK CFI 1f6f0 .cfa: $rsp 80 +
STACK CFI INIT 1f740 207 .cfa: $rsp .ra: .cfa 8 - ^
STACK CFI 1f740 .cfa: $rsp 80 +
STACK CFI INIT 1f950 1fa .cfa: $rsp .ra: .cfa 8 - ^
STACK CFI 1f950 .cfa: $rsp 64 +
STACK CFI INIT 1fb50 86b .cfa: $rsp .ra: .cfa 8 - ^
STACK CFI 1fb50 .cfa: $rsp 368 +
STACK CFI INIT 203c0 41 .cfa: $rsp .ra: .cfa 8 - ^
STACK CFI 203c0 .cfa: $rsp 48 +
STACK CFI INIT 20410 3c .cfa: $rsp .ra: .cfa 8 - ^
STACK CFI 20410 .cfa: $rsp 48 +
STACK CFI INIT 20450 45 .cfa: $rsp .ra: .cfa 8 - ^
STACK CFI 20450 .cfa: $rsp 64 +
STACK CFI INIT 204a0 a5 .cfa: $rsp .ra: .cfa 8 - ^
STACK CFI 204a0 .cfa: $rsp 80 +
STACK CFI INIT 20550 4e .cfa: $rsp .ra: .cfa 8 - ^
STACK CFI 20550 .cfa: $rsp 48 +
STACK CFI INIT 205b0 1f .cfa: $rsp .ra: .cfa 8 - ^
STACK CFI 205b0 .cfa: $rsp 48 +
STACK CFI INIT 205e0 26 .cfa: $rsp .ra: .cfa 8 - ^
STACK CFI 205e0 .cfa: $rsp 8 +
STACK CFI INIT 20610 e .cfa: $rsp .ra: .cfa 8 - ^
STACK CFI 20610 .cfa: $rsp 8 +
STACK CFI INIT 20620 13 .cfa: $rsp .ra: .cfa 8 - ^
STACK CFI 20620 .cfa: $rsp 8 +
STACK CFI INIT 20640 b .cfa: $rsp .ra: .cfa 8 - ^
STACK CFI 20640 .cfa: $rsp 8 +
STACK CFI INIT 20650 b .cfa: $rsp .ra: .cfa 8 - ^
STACK CFI 20650 .cfa: $rsp 8 +
STACK CFI INIT 20660 b .cfa: $rsp .ra: .cfa 8 - ^
STACK CFI 20660 .cfa: $rsp 8 +
STACK CFI INIT 20670 b .cfa: $rsp .ra: .cfa 8 - ^
STACK CFI 20670 .cfa: $rsp 8 +
STACK CFI INIT 20680 e .cfa: $rsp .ra: .cfa 8 - ^
STACK CFI 20680 .cfa: $rsp 8 +
STACK CFI INIT 20690 10 .cfa: $rsp .ra: .cfa 8 - ^
STACK CFI 20690 .cfa: $rsp 8 +
STACK CFI INIT 206a0 f .cfa: $rsp .ra: .cfa 8 - ^
STACK CFI 206a0 .cfa: $rsp 8 +
STACK CFI INIT 206b0 19 .cfa: $rsp .ra: .cfa 8 - ^
STACK CFI 206b0 .cfa: $rsp 8 +
STACK CFI INIT 206d0 b .cfa: $rsp .ra: .cfa 8 - ^
STACK CFI 206d0 .cfa: $rsp 8 +
STACK CFI INIT 206e0 b .cfa: $rsp .ra: .cfa 8 - ^
STACK CFI 206e0 .cfa: $rsp 8 +
STACK CFI INIT 206f0 54 .cfa: $rsp .ra: .cfa 8 - ^
STACK CFI 206f0 .cfa: $rsp 64 +
STACK CFI INIT 20750 10 .cfa: $rsp .ra: .cfa 8 - ^
STACK CFI 20750 .cfa: $rsp 8 +
STACK CFI INIT 20760 10 .cfa: $rsp .ra: .cfa 8 - ^
STACK CFI 20760 .cfa: $rsp 8 +
STACK CFI INIT 20770 c .cfa: $rsp .ra: .cfa 8 - ^
STACK CFI 20770 .cfa: $rsp 8 +
STACK CFI INIT 20780 89 .cfa: $rsp .ra: .cfa 8 - ^
STACK CFI 20780 .cfa: $rsp 64 +
STACK CFI INIT 20810 207 .cfa: $rsp .ra: .cfa 8 - ^
STACK CFI 20810 .cfa: $rsp 112 +
STACK CFI INIT 20a20 b3 .cfa: $rsp .ra: .cfa 8 - ^
STACK CFI 20a20 .cfa: $rsp 112 +
STACK CFI INIT 20ae0 23 .cfa: $rsp .ra: .cfa 8 - ^
STACK CFI 20ae0 .cfa: $rsp 8 +
STACK CFI INIT 20b10 c8 .cfa: $rsp .ra: .cfa 8 - ^
STACK CFI 20b10 .cfa: $rsp 64 +
STACK CFI INIT 20be0 a2 .cfa: $rsp .ra: .cfa 8 - ^
STACK CFI 20be0 .cfa: $rsp 112 +
STACK CFI INIT 20c90 cd .cfa: $rsp .ra: .cfa 8 - ^
STACK CFI 20c90 .cfa: $rsp 96 +
STACK CFI INIT 20d60 11a .cfa: $rsp .ra: .cfa 8 - ^
STACK CFI 20d60 .cfa: $rsp 64 +
STACK CFI INIT 20e80 a2 .cfa: $rsp .ra: .cfa 8 - ^
STACK CFI 20e80 .cfa: $rsp 112 +
STACK CFI INIT 20f30 4e .cfa: $rsp .ra: .cfa 8 - ^
STACK CFI 20f30 .cfa: $rsp 48 +
STACK CFI INIT 20f90 1f .cfa: $rsp .ra: .cfa 8 - ^
STACK CFI 20f90 .cfa: $rsp 48 +
STACK CFI INIT 20fc0 c .cfa: $rsp .ra: .cfa 8 - ^
STACK CFI 20fc0 .cfa: $rsp 8 +
STACK CFI INIT 20fd0 9d .cfa: $rsp .ra: .cfa 8 - ^
STACK CFI 20fd0 .cfa: $rsp 64 +
STACK CFI INIT 21070 3 .cfa: $rsp .ra: .cfa 8 - ^
STACK CFI 21070 .cfa: $rsp 8 +
STACK CFI INIT 21080 1a .cfa: $rsp .ra: .cfa 8 - ^
STACK CFI 21080 .cfa: $rsp 8 +
STACK CFI INIT 210a0 1a .cfa: $rsp .ra: .cfa 8 - ^
STACK CFI 210a0 .cfa: $rsp 8 +
STACK CFI INIT 210c0 11 .cfa: $rsp .ra: .cfa 8 - ^
STACK CFI 210c0 .cfa: $rsp 8 +
STACK CFI INIT 210e0 2a .cfa: $rsp .ra: .cfa 8 - ^
STACK CFI 210e0 .cfa: $rsp 48 +
STACK CFI INIT 21110 1b .cfa: $rsp .ra: .cfa 8 - ^
STACK CFI 21110 .cfa: $rsp 8 +
STACK CFI INIT 21130 34 .cfa: $rsp .ra: .cfa 8 - ^
STACK CFI 21130 .cfa: $rsp 48 +
STACK CFI INIT 21170 5e .cfa: $rsp .ra: .cfa 8 - ^
STACK CFI 21170 .cfa: $rsp 64 +
STACK CFI INIT 211e0 1f .cfa: $rsp .ra: .cfa 8 - ^
STACK CFI 211e0 .cfa: $rsp 48 +
STACK CFI INIT 21210 37 .cfa: $rsp .ra: .cfa 8 - ^
STACK CFI 21210 .cfa: $rsp 64 +
STACK CFI INIT 21250 20 .cfa: $rsp .ra: .cfa 8 - ^
STACK CFI 21250 .cfa: $rsp 8 +
STACK CFI INIT 21270 38 .cfa: $rsp .ra: .cfa 8 - ^
STACK CFI 21270 .cfa: $rsp 48 +
STACK CFI INIT 212b0 64 .cfa: $rsp .ra: .cfa 8 - ^
STACK CFI 212b0 .cfa: $rsp 48 +
STACK CFI INIT 21320 66 .cfa: $rsp .ra: .cfa 8 - ^
STACK CFI 21320 .cfa: $rsp 48 +
STACK CFI INIT 21390 67 .cfa: $rsp .ra: .cfa 8 - ^
STACK CFI 21390 .cfa: $rsp 48 +
STACK CFI INIT 21400 6a .cfa: $rsp .ra: .cfa 8 - ^
STACK CFI 21400 .cfa: $rsp 48 +
STACK CFI INIT 21470 5c .cfa: $rsp .ra: .cfa 8 - ^
STACK CFI 21470 .cfa: $rsp 64 +
STACK CFI INIT 214d0 1e3 .cfa: $rsp .ra: .cfa 8 - ^
STACK CFI 214d0 .cfa: $rsp 176 +
STACK CFI INIT 216c0 2016 .cfa: $rsp .ra: .cfa 8 - ^
STACK CFI 216c0 .cfa: $rsp 288 +
STACK CFI INIT 236e0 48 .cfa: $rsp .ra: .cfa 8 - ^
STACK CFI 236e0 .cfa: $rsp 64 +
STACK CFI INIT 23730 c0 .cfa: $rsp .ra: .cfa 8 - ^
STACK CFI 23730 .cfa: $rsp 64 +
STACK CFI INIT 237f0 dd .cfa: $rsp .ra: .cfa 8 - ^
STACK CFI 237f0 .cfa: $rsp 96 +
STACK CFI INIT 238d0 256 .cfa: $rsp .ra: .cfa 8 - ^
STACK CFI 238d0 .cfa: $rsp 128 +
STACK CFI INIT 23b30 9b .cfa: $rsp .ra: .cfa 8 - ^
STACK CFI 23b30 .cfa: $rsp 80 +
STACK CFI INIT 23bd0 3c .cfa: $rsp .ra: .cfa 8 - ^
STACK CFI 23bd0 .cfa: $rsp 64 +
STACK CFI INIT 23c10 30 .cfa: $rsp .ra: .cfa 8 - ^
STACK CFI 23c10 .cfa: $rsp 48 +
STACK CFI INIT 23c40 30 .cfa: $rsp .ra: .cfa 8 - ^
STACK CFI 23c40 .cfa: $rsp 48 +
STACK CFI INIT 23c70 90 .cfa: $rsp .ra: .cfa 8 - ^
STACK CFI 23c70 .cfa: $rsp 80 +
STACK CFI INIT 23d00 cf .cfa: $rsp .ra: .cfa 8 - ^
STACK CFI 23d00 .cfa: $rsp 64 +
STACK CFI INIT 23dd0 113 .cfa: $rsp .ra: .cfa 8 - ^
STACK CFI 23dd0 .cfa: $rsp 64 +
STACK CFI INIT 23ef0 3d0 .cfa: $rsp .ra: .cfa 8 - ^
STACK CFI 23ef0 .cfa: $rsp 176 +
STACK CFI INIT 242c0 22 .cfa: $rsp .ra: .cfa 8 - ^
STACK CFI 242c0 .cfa: $rsp 48 +
STACK CFI INIT 242f0 1ee .cfa: $rsp .ra: .cfa 8 - ^
STACK CFI 242f0 .cfa: $rsp 160 +
STACK CFI INIT 244e0 a2 .cfa: $rsp .ra: .cfa 8 - ^
STACK CFI 244e0 .cfa: $rsp 112 +
STACK CFI INIT 24590 c .cfa: $rsp .ra: .cfa 8 - ^
STACK CFI 24590 .cfa: $rsp 8 +
STACK CFI INIT 245a0 b3a .cfa: $rsp .ra: .cfa 8 - ^
STACK CFI 245a0 .cfa: $rsp 288 +
STACK CFI INIT 250e0 161 .cfa: $rsp .ra: .cfa 8 - ^
STACK CFI 250e0 .cfa: $rsp 80 +
STACK CFI INIT 25250 159 .cfa: $rsp .ra: .cfa 8 - ^
STACK CFI 25250 .cfa: $rsp 80 +
STACK CFI INIT 253b0 4c .cfa: $rsp .ra: .cfa 8 - ^
STACK CFI 253b0 .cfa: $rsp 64 +
STACK CFI INIT 25400 69 .cfa: $rsp .ra: .cfa 8 - ^
STACK CFI 25400 .cfa: $rsp 80 +
STACK CFI INIT 25470 9d .cfa: $rsp .ra: .cfa 8 - ^
STACK CFI 25470 .cfa: $rsp 96 +
STACK CFI INIT 25510 47 .cfa: $rsp .ra: .cfa 8 - ^
STACK CFI 25510 .cfa: $rsp 64 +
STACK CFI INIT 25560 19b .cfa: $rsp .ra: .cfa 8 - ^
STACK CFI 25560 .cfa: $rsp 96 +
STACK CFI INIT 25700 ae .cfa: $rsp .ra: .cfa 8 - ^
STACK CFI 25700 .cfa: $rsp 112 +
STACK CFI INIT 257b0 10e .cfa: $rsp .ra: .cfa 8 - ^
STACK CFI 257b0 .cfa: $rsp 80 +
STACK CFI INIT 258c0 41 .cfa: $rsp .ra: .cfa 8 - ^
STACK CFI 258c0 .cfa: $rsp 8 +
STACK CFI INIT 25910 4d .cfa: $rsp .ra: .cfa 8 - ^
STACK CFI 25910 .cfa: $rsp 80 +
STACK CFI INIT 25960 9d .cfa: $rsp .ra: .cfa 8 - ^
STACK CFI 25960 .cfa: $rsp 64 +
STACK CFI INIT 25a00 47 .cfa: $rsp .ra: .cfa 8 - ^
STACK CFI 25a00 .cfa: $rsp 64 +
STACK CFI INIT 25a50 5c .cfa: $rsp .ra: .cfa 8 - ^
STACK CFI 25a50 .cfa: $rsp 80 +
STACK CFI INIT 25ab0 1f .cfa: $rsp .ra: .cfa 8 - ^
STACK CFI 25ab0 .cfa: $rsp 8 +
STACK CFI INIT 25ad0 2d .cfa: $rsp .ra: .cfa 8 - ^
STACK CFI 25ad0 .cfa: $rsp 48 +
STACK CFI INIT 25b00 2d .cfa: $rsp .ra: .cfa 8 - ^
STACK CFI 25b00 .cfa: $rsp 48 +
STACK CFI INIT 25b30 1 .cfa: $rsp .ra: .cfa 8 - ^
STACK CFI 25b30 .cfa: $rsp 8 +
STACK CFI INIT 25b40 1a .cfa: $rsp .ra: .cfa 8 - ^
STACK CFI 25b40 .cfa: $rsp 8 +
STACK CFI INIT 25b60 47 .cfa: $rsp .ra: .cfa 8 - ^
STACK CFI 25b60 .cfa: $rsp 64 +
STACK CFI INIT 25bb0 7 .cfa: $rsp .ra: .cfa 8 - ^
STACK CFI 25bb0 .cfa: $rsp 8 +
STACK CFI INIT 25bc0 1 .cfa: $rsp .ra: .cfa 8 - ^
STACK CFI 25bc0 .cfa: $rsp 8 +
STACK CFI INIT 25bd0 1a .cfa: $rsp .ra: .cfa 8 - ^
STACK CFI 25bd0 .cfa: $rsp 8 +
STACK CFI INIT 25bf0 47 .cfa: $rsp .ra: .cfa 8 - ^
STACK CFI 25bf0 .cfa: $rsp 64 +
STACK CFI INIT 25c40 7 .cfa: $rsp .ra: .cfa 8 - ^
STACK CFI 25c40 .cfa: $rsp 8 +
STACK CFI INIT 25c50 1 .cfa: $rsp .ra: .cfa 8 - ^
STACK CFI 25c50 .cfa: $rsp 8 +
STACK CFI INIT 25c60 1a .cfa: $rsp .ra: .cfa 8 - ^
STACK CFI 25c60 .cfa: $rsp 8 +
STACK CFI INIT 25c80 47 .cfa: $rsp .ra: .cfa 8 - ^
STACK CFI 25c80 .cfa: $rsp 64 +
STACK CFI INIT 25cd0 7 .cfa: $rsp .ra: .cfa 8 - ^
STACK CFI 25cd0 .cfa: $rsp 8 +
STACK CFI INIT 27400 35 .cfa: $rsp .ra: .cfa 8 - ^
STACK CFI 27400 .cfa: $rsp 48 +
STACK CFI INIT 27440 66 .cfa: $rsp .ra: .cfa 8 - ^
STACK CFI 27440 .cfa: $rsp 64 +
STACK CFI INIT 274b0 1f .cfa: $rsp .ra: .cfa 8 - ^
STACK CFI 274b0 .cfa: $rsp 8 +
STACK CFI INIT 274d0 d6 .cfa: $rsp .ra: .cfa 8 - ^
STACK CFI 274d0 .cfa: $rsp 96 +
STACK CFI INIT 275b0 f8 .cfa: $rsp .ra: .cfa 8 - ^
STACK CFI 275b0 .cfa: $rsp 144 +
STACK CFI INIT 276b0 2f .cfa: $rsp .ra: .cfa 8 - ^
STACK CFI 276b0 .cfa: $rsp 48 +
STACK CFI INIT 276e0 73 .cfa: $rsp .ra: .cfa 8 - ^
STACK CFI 276e0 .cfa: $rsp 64 +
STACK CFI INIT 27760 3 .cfa: $rsp .ra: .cfa 8 - ^
STACK CFI 27760 .cfa: $rsp 8 +
STACK CFI INIT 27770 4 .cfa: $rsp .ra: .cfa 8 - ^
STACK CFI 27770 .cfa: $rsp 8 +
STACK CFI INIT 27780 4 .cfa: $rsp .ra: .cfa 8 - ^
STACK CFI 27780 .cfa: $rsp 8 +
STACK CFI INIT 27790 1f9 .cfa: $rsp .ra: .cfa 8 - ^
STACK CFI 27790 .cfa: $rsp 128 +
STACK CFI INIT 27990 2bb .cfa: $rsp .ra: .cfa 8 - ^
STACK CFI 27990 .cfa: $rsp 128 +
STACK CFI INIT 27c50 1a0 .cfa: $rsp .ra: .cfa 8 - ^
STACK CFI 27c50 .cfa: $rsp 48 +
STACK CFI INIT 27df0 ec .cfa: $rsp .ra: .cfa 8 - ^
STACK CFI 27df0 .cfa: $rsp 80 +
STACK CFI INIT 27ee0 1e7 .cfa: $rsp .ra: .cfa 8 - ^
STACK CFI 27ee0 .cfa: $rsp 48 +
STACK CFI INIT 280d0 6a .cfa: $rsp .ra: .cfa 8 - ^
STACK CFI 280d0 .cfa: $rsp 80 +
STACK CFI INIT 28140 7f .cfa: $rsp .ra: .cfa 8 - ^
STACK CFI 28140 .cfa: $rsp 80 +
STACK CFI INIT 281c0 a0 .cfa: $rsp .ra: .cfa 8 - ^
STACK CFI 281c0 .cfa: $rsp 48 +
STACK CFI INIT 28260 da .cfa: $rsp .ra: .cfa 8 - ^
STACK CFI 28260 .cfa: $rsp 48 +
STACK CFI INIT 28340 1e .cfa: $rsp .ra: .cfa 8 - ^
STACK CFI 28340 .cfa: $rsp 8 +
STACK CFI INIT 28360 12 .cfa: $rsp .ra: .cfa 8 - ^
STACK CFI 28360 .cfa: $rsp 8 +
STACK CFI INIT 28380 44 .cfa: $rsp .ra: .cfa 8 - ^
STACK CFI 28380 .cfa: $rsp 8 +
STACK CFI INIT 283d0 8d .cfa: $rsp .ra: .cfa 8 - ^
STACK CFI 283d0 .cfa: $rsp 64 +
STACK CFI INIT 28460 74 .cfa: $rsp .ra: .cfa 8 - ^
STACK CFI 28460 .cfa: $rsp 48 +
STACK CFI INIT 284e0 3e .cfa: $rsp .ra: .cfa 8 - ^
STACK CFI 284e0 .cfa: $rsp 48 +
STACK CFI INIT 28520 6f .cfa: $rsp .ra: .cfa 8 - ^
STACK CFI 28520 .cfa: $rsp 48 +
STACK CFI INIT 28590 37 .cfa: $rsp .ra: .cfa 8 - ^
STACK CFI 28590 .cfa: $rsp 48 +
STACK CFI INIT 285d0 91 .cfa: $rsp .ra: .cfa 8 - ^
STACK CFI 285d0 .cfa: $rsp 48 +
STACK CFI INIT 28670 a6 .cfa: $rsp .ra: .cfa 8 - ^
STACK CFI 28670 .cfa: $rsp 48 +
STACK CFI INIT 28720 3 .cfa: $rsp .ra: .cfa 8 - ^
STACK CFI 28720 .cfa: $rsp 8 +
STACK CFI INIT 28770 6 .cfa: $rsp .ra: .cfa 8 - ^
STACK CFI 28770 .cfa: $rsp 8 +
STACK CFI INIT 28780 6 .cfa: $rsp .ra: .cfa 8 - ^
STACK CFI 28780 .cfa: $rsp 8 +
STACK CFI INIT 28790 138 .cfa: $rsp .ra: .cfa 8 - ^
STACK CFI 28790 .cfa: $rsp 112 +
STACK CFI INIT 28950 25 .cfa: $rsp .ra: .cfa 8 - ^
STACK CFI 28950 .cfa: $rsp 8 +
STACK CFI INIT 28980 c8 .cfa: $rsp .ra: .cfa 8 - ^
STACK CFI 28980 .cfa: $rsp 80 +
STACK CFI INIT 28a50 6f .cfa: $rsp .ra: .cfa 8 - ^
STACK CFI 28a50 .cfa: $rsp 64 +
STACK CFI INIT 28ac0 1f .cfa: $rsp .ra: .cfa 8 - ^
STACK CFI 28ac0 .cfa: $rsp 48 +
STACK CFI INIT 28bd0 41 .cfa: $rsp .ra: .cfa 8 - ^
STACK CFI 28bd0 .cfa: $rsp 96 +
STACK CFI INIT 28c20 c .cfa: $rsp .ra: .cfa 8 - ^
STACK CFI 28c20 .cfa: $rsp 8 +
STACK CFI INIT 28c30 fc .cfa: $rsp .ra: .cfa 8 - ^
STACK CFI 28c30 .cfa: $rsp 144 +
STACK CFI INIT 28d40 476 .cfa: $rsp .ra: .cfa 8 - ^
STACK CFI 28d40 .cfa: $rsp 160 +
STACK CFI INIT 291c0 2a .cfa: $rsp .ra: .cfa 8 - ^
STACK CFI 291c0 .cfa: $rsp 8 +
STACK CFI INIT 291f0 3ff .cfa: $rsp .ra: .cfa 8 - ^
STACK CFI 291f0 .cfa: $rsp 144 +
STACK CFI INIT 295f0 a1 .cfa: $rsp .ra: .cfa 8 - ^
STACK CFI 295f0 .cfa: $rsp 96 +
STACK CFI INIT 296a0 1 .cfa: $rsp .ra: .cfa 8 - ^
STACK CFI 296a0 .cfa: $rsp 8 +
STACK CFI INIT 296b0 1 .cfa: $rsp .ra: .cfa 8 - ^
STACK CFI 296b0 .cfa: $rsp 8 +
STACK CFI INIT 296c0 1 .cfa: $rsp .ra: .cfa 8 - ^
STACK CFI 296c0 .cfa: $rsp 8 +
STACK CFI INIT 296d0 1 .cfa: $rsp .ra: .cfa 8 - ^
STACK CFI 296d0 .cfa: $rsp 8 +
STACK CFI INIT 296e0 3 .cfa: $rsp .ra: .cfa 8 - ^
STACK CFI 296e0 .cfa: $rsp 8 +
STACK CFI INIT 296f0 1 .cfa: $rsp .ra: .cfa 8 - ^
STACK CFI 296f0 .cfa: $rsp 8 +
STACK CFI INIT 29700 1 .cfa: $rsp .ra: .cfa 8 - ^
STACK CFI 29700 .cfa: $rsp 8 +
STACK CFI INIT 29710 1 .cfa: $rsp .ra: .cfa 8 - ^
STACK CFI 29710 .cfa: $rsp 8 +
STACK CFI INIT 29720 17 .cfa: $rsp .ra: .cfa 8 - ^
STACK CFI 29720 .cfa: $rsp 48 +
STACK CFI INIT 29740 1 .cfa: $rsp .ra: .cfa 8 - ^
STACK CFI 29740 .cfa: $rsp 8 +
STACK CFI INIT 29750 1 .cfa: $rsp .ra: .cfa 8 - ^
STACK CFI 29750 .cfa: $rsp 8 +
STACK CFI INIT 29760 1 .cfa: $rsp .ra: .cfa 8 - ^
STACK CFI 29760 .cfa: $rsp 8 +
STACK CFI INIT 29770 1 .cfa: $rsp .ra: .cfa 8 - ^
STACK CFI 29770 .cfa: $rsp 8 +
STACK CFI INIT 29780 3 .cfa: $rsp .ra: .cfa 8 - ^
STACK CFI 29780 .cfa: $rsp 8 +
STACK CFI INIT 29790 11 .cfa: $rsp .ra: .cfa 8 - ^
STACK CFI 29790 .cfa: $rsp 8 +
STACK CFI INIT 297b0 29 .cfa: $rsp .ra: .cfa 8 - ^
STACK CFI 297b0 .cfa: $rsp 48 +
STACK CFI INIT 297e0 f .cfa: $rsp .ra: .cfa 8 - ^
STACK CFI 297e0 .cfa: $rsp 8 +
STACK CFI INIT 297f0 7 .cfa: $rsp .ra: .cfa 8 - ^
STACK CFI 297f0 .cfa: $rsp 8 +
STACK CFI INIT 29800 2f .cfa: $rsp .ra: .cfa 8 - ^
STACK CFI 29800 .cfa: $rsp 48 +
STACK CFI INIT 29830 1 .cfa: $rsp .ra: .cfa 8 - ^
STACK CFI 29830 .cfa: $rsp 8 +
STACK CFI INIT 29840 42 .cfa: $rsp .ra: .cfa 8 - ^
STACK CFI 29840 .cfa: $rsp 8 +
STACK CFI INIT 29890 1 .cfa: $rsp .ra: .cfa 8 - ^
STACK CFI 29890 .cfa: $rsp 8 +
STACK CFI INIT 298a0 48 .cfa: $rsp .ra: .cfa 8 - ^
STACK CFI 298a0 .cfa: $rsp 8 +
STACK CFI INIT 298f0 1 .cfa: $rsp .ra: .cfa 8 - ^
STACK CFI 298f0 .cfa: $rsp 8 +
STACK CFI INIT 29900 40 .cfa: $rsp .ra: .cfa 8 - ^
STACK CFI 29900 .cfa: $rsp 8 +
STACK CFI INIT 29940 7 .cfa: $rsp .ra: .cfa 8 - ^
STACK CFI 29940 .cfa: $rsp 8 +
STACK CFI INIT 29950 2f .cfa: $rsp .ra: .cfa 8 - ^
STACK CFI 29950 .cfa: $rsp 48 +
STACK CFI INIT 29980 1 .cfa: $rsp .ra: .cfa 8 - ^
STACK CFI 29980 .cfa: $rsp 8 +
STACK CFI INIT 29990 d .cfa: $rsp .ra: .cfa 8 - ^
STACK CFI 29990 .cfa: $rsp 8 +
STACK CFI INIT 299a0 1 .cfa: $rsp .ra: .cfa 8 - ^
STACK CFI 299a0 .cfa: $rsp 8 +
STACK CFI INIT 299b0 d .cfa: $rsp .ra: .cfa 8 - ^
STACK CFI 299b0 .cfa: $rsp 8 +
STACK CFI INIT 299c0 1 .cfa: $rsp .ra: .cfa 8 - ^
STACK CFI 299c0 .cfa: $rsp 8 +
STACK CFI INIT 299d0 49 .cfa: $rsp .ra: .cfa 8 - ^
STACK CFI 299d0 .cfa: $rsp 8 +
STACK CFI INIT 29a20 1 .cfa: $rsp .ra: .cfa 8 - ^
STACK CFI 29a20 .cfa: $rsp 8 +
STACK CFI INIT 29a30 f .cfa: $rsp .ra: .cfa 8 - ^
STACK CFI 29a30 .cfa: $rsp 8 +
STACK CFI INIT 29a40 12 .cfa: $rsp .ra: .cfa 8 - ^
STACK CFI 29a40 .cfa: $rsp 8 +
STACK CFI INIT 29a60 16 .cfa: $rsp .ra: .cfa 8 - ^
STACK CFI 29a60 .cfa: $rsp 8 +
STACK CFI INIT 29a80 3 .cfa: $rsp .ra: .cfa 8 - ^
STACK CFI 29a80 .cfa: $rsp 8 +
STACK CFI INIT 29a90 3 .cfa: $rsp .ra: .cfa 8 - ^
STACK CFI 29a90 .cfa: $rsp 8 +
STACK CFI INIT 29aa0 1 .cfa: $rsp .ra: .cfa 8 - ^
STACK CFI 29aa0 .cfa: $rsp 8 +
STACK CFI INIT 29ab0 8a .cfa: $rsp .ra: .cfa 8 - ^
STACK CFI 29ab0 .cfa: $rsp 48 +
STACK CFI INIT 29b40 7a .cfa: $rsp .ra: .cfa 8 - ^
STACK CFI 29b40 .cfa: $rsp 48 +
STACK CFI INIT 29bc0 8a .cfa: $rsp .ra: .cfa 8 - ^
STACK CFI 29bc0 .cfa: $rsp 48 +
STACK CFI INIT 29c50 7a .cfa: $rsp .ra: .cfa 8 - ^
STACK CFI 29c50 .cfa: $rsp 48 +
STACK CFI INIT 29cd0 39 .cfa: $rsp .ra: .cfa 8 - ^
STACK CFI 29cd0 .cfa: $rsp 48 +
STACK CFI INIT 29d10 2d .cfa: $rsp .ra: .cfa 8 - ^
STACK CFI 29d10 .cfa: $rsp 48 +
STACK CFI INIT 29d40 8a .cfa: $rsp .ra: .cfa 8 - ^
STACK CFI 29d40 .cfa: $rsp 48 +
STACK CFI INIT 29dd0 7a .cfa: $rsp .ra: .cfa 8 - ^
STACK CFI 29dd0 .cfa: $rsp 48 +
STACK CFI INIT 29e50 45 .cfa: $rsp .ra: .cfa 8 - ^
STACK CFI 29e50 .cfa: $rsp 48 +
STACK CFI INIT 29ea0 39 .cfa: $rsp .ra: .cfa 8 - ^
STACK CFI 29ea0 .cfa: $rsp 48 +
STACK CFI INIT 29ee0 1 .cfa: $rsp .ra: .cfa 8 - ^
STACK CFI 29ee0 .cfa: $rsp 8 +
STACK CFI INIT 29ef0 8a .cfa: $rsp .ra: .cfa 8 - ^
STACK CFI 29ef0 .cfa: $rsp 48 +
STACK CFI INIT 29f80 7a .cfa: $rsp .ra: .cfa 8 - ^
STACK CFI 29f80 .cfa: $rsp 48 +
STACK CFI INIT 2a000 490 .cfa: $rsp .ra: .cfa 8 - ^
STACK CFI 2a000 .cfa: $rsp 176 +
STACK CFI INIT 2a490 470 .cfa: $rsp .ra: .cfa 8 - ^
STACK CFI 2a490 .cfa: $rsp 176 +
STACK CFI INIT 2a900 b96 .cfa: $rsp .ra: .cfa 8 - ^
STACK CFI 2a900 .cfa: $rsp 304 +
STACK CFI INIT 2b4a0 978 .cfa: $rsp .ra: .cfa 8 - ^
STACK CFI 2b4a0 .cfa: $rsp 272 +
STACK CFI INIT 2be20 366 .cfa: $rsp .ra: .cfa 8 - ^
STACK CFI 2be20 .cfa: $rsp 160 +
STACK CFI INIT 2c190 2a .cfa: $rsp .ra: .cfa 8 - ^
STACK CFI 2c190 .cfa: $rsp 48 +
STACK CFI INIT 2c1c0 11 .cfa: $rsp .ra: .cfa 8 - ^
STACK CFI 2c1c0 .cfa: $rsp 8 +
STACK CFI INIT 2c1e0 1 .cfa: $rsp .ra: .cfa 8 - ^
STACK CFI 2c1e0 .cfa: $rsp 8 +
STACK CFI INIT 2c1f0 14 .cfa: $rsp .ra: .cfa 8 - ^
STACK CFI 2c1f0 .cfa: $rsp 8 +
STACK CFI INIT 2c210 12a .cfa: $rsp .ra: .cfa 8 - ^
STACK CFI 2c210 .cfa: $rsp 112 +
STACK CFI INIT 2c340 d4 .cfa: $rsp .ra: .cfa 8 - ^
STACK CFI 2c340 .cfa: $rsp 80 +
STACK CFI INIT 2c420 14e .cfa: $rsp .ra: .cfa 8 - ^
STACK CFI 2c420 .cfa: $rsp 96 +
STACK CFI INIT 2c570 a6 .cfa: $rsp .ra: .cfa 8 - ^
STACK CFI 2c570 .cfa: $rsp 64 +
STACK CFI INIT 2c620 dd .cfa: $rsp .ra: .cfa 8 - ^
STACK CFI 2c620 .cfa: $rsp 80 +
STACK CFI INIT 2c700 14a .cfa: $rsp .ra: .cfa 8 - ^
STACK CFI 2c700 .cfa: $rsp 128 +
STACK CFI INIT 2c850 58 .cfa: $rsp .ra: .cfa 8 - ^
STACK CFI 2c850 .cfa: $rsp 64 +
STACK CFI INIT 2c8b0 e6 .cfa: $rsp .ra: .cfa 8 - ^
STACK CFI 2c8b0 .cfa: $rsp 96 +
STACK CFI INIT 2c9a0 1d .cfa: $rsp .ra: .cfa 8 - ^
STACK CFI 2c9a0 .cfa: $rsp 8 +
STACK CFI INIT 2c9c0 10a .cfa: $rsp .ra: .cfa 8 - ^
STACK CFI 2c9c0 .cfa: $rsp 112 +
STACK CFI INIT 2cad0 10a .cfa: $rsp .ra: .cfa 8 - ^
STACK CFI 2cad0 .cfa: $rsp 112 +
STACK CFI INIT 2cbe0 70 .cfa: $rsp .ra: .cfa 8 - ^
STACK CFI 2cbe0 .cfa: $rsp 80 +
STACK CFI INIT 2cc50 11a .cfa: $rsp .ra: .cfa 8 - ^
STACK CFI 2cc50 .cfa: $rsp 96 +
STACK CFI INIT 2cd70 c2 .cfa: $rsp .ra: .cfa 8 - ^
STACK CFI 2cd70 .cfa: $rsp 80 +
STACK CFI INIT 2ce40 11a .cfa: $rsp .ra: .cfa 8 - ^
STACK CFI 2ce40 .cfa: $rsp 96 +
STACK CFI INIT 2cf60 11a .cfa: $rsp .ra: .cfa 8 - ^
STACK CFI 2cf60 .cfa: $rsp 96 +
STACK CFI INIT 2d080 1aa .cfa: $rsp .ra: .cfa 8 - ^
STACK CFI 2d080 .cfa: $rsp 96 +
STACK CFI INIT 2d230 109 .cfa: $rsp .ra: .cfa 8 - ^
STACK CFI 2d230 .cfa: $rsp 80 +
STACK CFI INIT 2d340 124 .cfa: $rsp .ra: .cfa 8 - ^
STACK CFI 2d340 .cfa: $rsp 96 +
STACK CFI INIT 2d470 1aa .cfa: $rsp .ra: .cfa 8 - ^
STACK CFI 2d470 .cfa: $rsp 96 +
STACK CFI INIT 2d620 f9 .cfa: $rsp .ra: .cfa 8 - ^
STACK CFI 2d620 .cfa: $rsp 80 +
STACK CFI INIT 2d720 11a .cfa: $rsp .ra: .cfa 8 - ^
STACK CFI 2d720 .cfa: $rsp 96 +
STACK CFI INIT 2d840 11a .cfa: $rsp .ra: .cfa 8 - ^
STACK CFI 2d840 .cfa: $rsp 96 +
STACK CFI INIT 2d960 c2 .cfa: $rsp .ra: .cfa 8 - ^
STACK CFI 2d960 .cfa: $rsp 80 +
STACK CFI INIT 2da30 100 .cfa: $rsp .ra: .cfa 8 - ^
STACK CFI 2da30 .cfa: $rsp 80 +
STACK CFI INIT 2db30 1f .cfa: $rsp .ra: .cfa 8 - ^
STACK CFI 2db30 .cfa: $rsp 8 +
STACK CFI INIT 2db50 100 .cfa: $rsp .ra: .cfa 8 - ^
STACK CFI 2db50 .cfa: $rsp 80 +
STACK CFI INIT 2dc50 42 .cfa: $rsp .ra: .cfa 8 - ^
STACK CFI 2dc50 .cfa: $rsp 48 +
STACK CFI INIT 2dca0 1f .cfa: $rsp .ra: .cfa 8 - ^
STACK CFI 2dca0 .cfa: $rsp 8 +
STACK CFI INIT 2dcc0 100 .cfa: $rsp .ra: .cfa 8 - ^
STACK CFI 2dcc0 .cfa: $rsp 80 +
STACK CFI INIT 2ddc0 a1 .cfa: $rsp .ra: .cfa 8 - ^
STACK CFI 2ddc0 .cfa: $rsp 64 +
STACK CFI INIT 2de70 2a .cfa: $rsp .ra: .cfa 8 - ^
STACK CFI 2de70 .cfa: $rsp 8 +
STACK CFI INIT 2dea0 1ed .cfa: $rsp .ra: .cfa 8 - ^
STACK CFI 2dea0 .cfa: $rsp 80 +
STACK CFI INIT 2e090 72 .cfa: $rsp .ra: .cfa 8 - ^
STACK CFI 2e090 .cfa: $rsp 64 +
STACK CFI INIT 2e110 bf .cfa: $rsp .ra: .cfa 8 - ^
STACK CFI 2e110 .cfa: $rsp 80 +
STACK CFI INIT 2e1d0 1d1 .cfa: $rsp .ra: .cfa 8 - ^
STACK CFI 2e1d0 .cfa: $rsp 80 +
STACK CFI INIT 2e3b0 b4 .cfa: $rsp .ra: .cfa 8 - ^
STACK CFI 2e3b0 .cfa: $rsp 80 +
STACK CFI INIT 2e470 2b3 .cfa: $rsp .ra: .cfa 8 - ^
STACK CFI 2e470 .cfa: $rsp 128 +
STACK CFI INIT 2e730 69 .cfa: $rsp .ra: .cfa 8 - ^
STACK CFI 2e730 .cfa: $rsp 64 +
STACK CFI INIT 2e7a0 67 .cfa: $rsp .ra: .cfa 8 - ^
STACK CFI 2e7a0 .cfa: $rsp 64 +
STACK CFI INIT 2e810 17c .cfa: $rsp .ra: .cfa 8 - ^
STACK CFI 2e810 .cfa: $rsp 112 +
STACK CFI INIT 2e990 3 .cfa: $rsp .ra: .cfa 8 - ^
STACK CFI 2e990 .cfa: $rsp 8 +
STACK CFI INIT 2e9a0 4 .cfa: $rsp .ra: .cfa 8 - ^
STACK CFI 2e9a0 .cfa: $rsp 8 +
STACK CFI INIT 2e9b0 6 .cfa: $rsp .ra: .cfa 8 - ^
STACK CFI 2e9b0 .cfa: $rsp 8 +
STACK CFI INIT 2e9c0 6 .cfa: $rsp .ra: .cfa 8 - ^
STACK CFI 2e9c0 .cfa: $rsp 8 +
STACK CFI INIT 2e9d0 14a .cfa: $rsp .ra: .cfa 8 - ^
STACK CFI 2e9d0 .cfa: $rsp 128 +
STACK CFI INIT 2eb20 153 .cfa: $rsp .ra: .cfa 8 - ^
STACK CFI 2eb20 .cfa: $rsp 112 +
STACK CFI INIT 2ec80 153 .cfa: $rsp .ra: .cfa 8 - ^
STACK CFI 2ec80 .cfa: $rsp 112 +
STACK CFI INIT 2ede0 143 .cfa: $rsp .ra: .cfa 8 - ^
STACK CFI 2ede0 .cfa: $rsp 96 +
STACK CFI INIT 2ef30 143 .cfa: $rsp .ra: .cfa 8 - ^
STACK CFI 2ef30 .cfa: $rsp 96 +
STACK CFI INIT 2f080 f0 .cfa: $rsp .ra: .cfa 8 - ^
STACK CFI 2f080 .cfa: $rsp 96 +
STACK CFI INIT 2f170 f0 .cfa: $rsp .ra: .cfa 8 - ^
STACK CFI 2f170 .cfa: $rsp 96 +
STACK CFI INIT 2f260 6e .cfa: $rsp .ra: .cfa 8 - ^
STACK CFI 2f260 .cfa: $rsp 80 +
STACK CFI INIT 2f2d0 3 .cfa: $rsp .ra: .cfa 8 - ^
STACK CFI 2f2d0 .cfa: $rsp 8 +
STACK CFI INIT 2f2e0 2e .cfa: $rsp .ra: .cfa 8 - ^
STACK CFI 2f2e0 .cfa: $rsp 48 +
STACK CFI INIT 2f310 14 .cfa: $rsp .ra: .cfa 8 - ^
STACK CFI 2f310 .cfa: $rsp 8 +
STACK CFI INIT 2f330 4 .cfa: $rsp .ra: .cfa 8 - ^
STACK CFI 2f330 .cfa: $rsp 8 +
STACK CFI INIT 2f340 10c .cfa: $rsp .ra: .cfa 8 - ^
STACK CFI 2f340 .cfa: $rsp 80 +
STACK CFI INIT 2f450 1d .cfa: $rsp .ra: .cfa 8 - ^
STACK CFI 2f450 .cfa: $rsp 8 +
STACK CFI INIT 2f470 a .cfa: $rsp .ra: .cfa 8 - ^
STACK CFI 2f470 .cfa: $rsp 80 +
STACK CFI INIT 2f47a a .cfa: $rsp .ra: .cfa 8 - ^
STACK CFI 2f47a .cfa: $rsp 64 +
STACK CFI INIT 2f490 1d .cfa: $rsp .ra: .cfa 8 - ^
STACK CFI 2f490 .cfa: $rsp 8 +
STACK CFI INIT 2f4b0 33 .cfa: $rsp .ra: .cfa 8 - ^
STACK CFI 2f4b0 .cfa: $rsp 48 +
STACK CFI INIT 2f4f0 f .cfa: $rsp .ra: .cfa 8 - ^
STACK CFI 2f4f0 .cfa: $rsp 8 +
STACK CFI INIT 2f500 f .cfa: $rsp .ra: .cfa 8 - ^
STACK CFI 2f500 .cfa: $rsp 8 +
STACK CFI INIT 2f510 f .cfa: $rsp .ra: .cfa 8 - ^
STACK CFI 2f510 .cfa: $rsp 8 +
STACK CFI INIT 2f520 69 .cfa: $rsp .ra: .cfa 8 - ^
STACK CFI 2f520 .cfa: $rsp 80 +
STACK CFI INIT 2f590 5 .cfa: $rsp .ra: .cfa 8 - ^
STACK CFI 2f590 .cfa: $rsp 8 +
