MODULE windows x86_64 B7D0608C49464FBA8523B01E19F4D8521 Qt5Sql.pdb
INFO CODE_ID 5C53FB9248000 Qt5Sql.dll
FUNC 1000 c 0 pre_c_init
FUNC 1200 12b 0 _DllMainCRTStartup
FUNC 1330 4f 0 DllMainCRTStartup
FUNC 1380 f 0 atexit
FUNC 13b0 3f 0 _tcf_2
FUNC 13f0 3f 0 _tcf_1
FUNC 14b0 13b 0 isNull
FUNC 15f0 b4 0 value
FUNC 16b0 169 0 value
FUNC 1830 1d 0 lastQuery
FUNC 1860 8 0 result
FUNC 1870 23d 0 seek
FUNC 1ab0 9b 0 next
FUNC 1b50 fa 0 previous
FUNC 1c50 af 0 first
FUNC 1d00 55 0 last
FUNC 1d60 79 0 size
FUNC 1de0 57 0 numRowsAffected
FUNC 1e40 1d 0 lastError
FUNC 1ec0 7f 0 record
FUNC 1f40 15f 0 exec
FUNC 20a0 39 0 execBatch
FUNC 20e0 e 0 bindValue
FUNC 20f0 e 0 bindValue
FUNC 2100 c 0 addBindValue
FUNC 2110 1d 0 boundValue
FUNC 2130 1d 0 boundValue
FUNC 2150 1d 0 executedQuery
FUNC 2170 21 0 lastInsertId
FUNC 21a0 11 0 setNumericalPrecisionPolicy
FUNC 21c0 c 0 numericalPrecisionPolicy
FUNC 21d0 16a 0 finish
FUNC 2340 39 0 nextResult
FUNC 2380 3df 0 boundValues
FUNC 2df0 2f 0 _tcf_0
FUNC 35b0 51b 0 exec
FUNC 3ad0 2f2 0 qInit
FUNC 45c0 202 0 clear
FUNC 47d0 4f7 0 prepare
FUNC 4cd0 1a 0 _tcf_3
FUNC 4cf0 35 0 _tcf_2
FUNC 4e30 6e 0 _tcf_1
FUNC 5060 6c 0 copy
FUNC 51e0 c 0 isOpenError
FUNC 51f0 4e 0 transaction
FUNC 5240 4e 0 commit
FUNC 5290 4e 0 rollback
FUNC 5340 26 0 password
FUNC 5410 21 0 tables
FUNC 5440 21 0 primaryIndex
FUNC 5470 21 0 record
FUNC 54a0 26 0 connectOptions
FUNC 54d0 26 0 connectionName
FUNC 5500 29 0 setNumericalPrecisionPolicy
FUNC 5530 15 0 numericalPrecisionPolicy
FUNC 5550 229 0 connectionNames
FUNC 5780 bf 0 contains
FUNC 5840 219 0 registerSqlDriver
FUNC 5a60 20ee 0 drivers
FUNC 7b50 3b 0 isDriverAvailable
FUNC 7b90 1ed 0 exec
FUNC 8200 c 0 _tcf_4
FUNC 8440 1c6 0 cleanConnections
FUNC 8610 f1 0 cleanDriverDict
FUNC 8730 ef 0 removeDatabase
FUNC 8820 5 0 removeDatabase
FUNC 8830 309 0 addDatabase
FUNC 8b40 26 0 addDatabase
FUNC 8b70 617 0 init
FUNC 9200 26 0 addDatabase
FUNC 9260 315 0 database
FUNC 9580 1a 0 database
FUNC 95a0 48 0 setDatabaseName
FUNC 95f0 48 0 setUserName
FUNC 9640 6f 0 open
FUNC 96b0 48 0 setPassword
FUNC 9700 48 0 setHostName
FUNC 9750 31 0 setPort
FUNC 9790 48 0 setConnectOptions
FUNC 97e0 e9 0 cloneDatabase
FUNC 98d0 79b 0 operator<<
FUNC a070 30 0 _tcf_0
FUNC a1a0 aa 0 operator=
FUNC a250 a5 0 operator==
FUNC a390 13c 0 setRequiredStatus
FUNC a4d0 13c 0 setLength
FUNC a610 13c 0 setPrecision
FUNC a750 14c 0 setDefaultValue
FUNC a8a0 13c 0 setSqlType
FUNC a9e0 14c 0 setGenerated
FUNC ab30 17 0 setValue
FUNC ab50 53 0 clear
FUNC abb0 14c 0 setName
FUNC ad00 14c 0 setReadOnly
FUNC ae90 198 0 setType
FUNC b040 7 0 isNull
FUNC b200 d 0 isValid
FUNC b210 a82 0 operator<<
FUNC bcb0 14c 0 setAutoValue
FUNC c0b0 12a 0 createField
FUNC c220 7c 0 operator=
FUNC c310 7d 0 operator==
FUNC c390 3a 0 value
FUNC c3d0 39 0 fieldName
FUNC c410 173 0 indexOf
FUNC c5e0 32 0 field
FUNC c620 f 0 isEmpty
FUNC c630 13 0 contains
FUNC c650 37 0 isNull
FUNC c690 19 0 isNull
FUNC c6b0 37 0 isGenerated
FUNC c6f0 19 0 isGenerated
FUNC c8b0 32c 0 operator<<
FUNC cbe0 18a 0 append
FUNC cd70 19a 0 clear
FUNC cf10 204 0 clearValues
FUNC d320 36 0 setNull
FUNC d580 3b 0 setGenerated
FUNC d7d0 3a 0 setValue
FUNC d810 ed 0 keyValues
FUNC d900 21b 0 replace
FUNC db20 1ea 0 insert
FUNC dd10 1cb 0 remove
FUNC df00 d8 0 prepareIdentifier
FUNC e1a0 d 0 isOpen
FUNC e1b0 d 0 isOpenError
FUNC e1c0 b 0 setOpen
FUNC e1d0 16 0 setOpenError
FUNC e1f0 3 0 beginTransaction
FUNC e200 d 0 setLastError
FUNC e210 1e 0 lastError
FUNC e230 e 0 tables
FUNC e240 a6 0 primaryIndex
FUNC e2f0 16 0 record
FUNC e370 ab 0 stripDelimiters
FUNC e420 c66 0 sqlStatement
FUNC f090 9cc 0 formatValue
FUNC fa60 12 0 handle
FUNC fa80 3 0 subscribeToNotification
FUNC fa90 e 0 subscribedToNotifications
FUNC faa0 b 0 setNumericalPrecisionPolicy
FUNC fab0 b 0 numericalPrecisionPolicy
FUNC fac0 b 0 dbmsType
FUNC fb50 3e9 0 operator<<
FUNC 10130 48 0 operator=
FUNC 10180 12 0 operator==
FUNC 101a0 12 0 operator!=
FUNC 10330 b 0 setDriverText
FUNC 10370 f 0 setDatabaseText
FUNC 10380 8 0 type
FUNC 10390 8 0 setType
FUNC 103a0 28 0 number
FUNC 103d0 6d 0 setNumber
FUNC 10470 da 0 text
FUNC 10550 d 0 isValid
FUNC 10560 8 0 setAt
FUNC 10570 8 0 setSelect
FUNC 10580 14 0 fetchNext
FUNC 105a0 14 0 fetchPrevious
FUNC 105c0 8 0 setForwardOnly
FUNC 105d0 1 0 virtual_hook
FUNC 105e0 1 0 detachFromResultSet
FUNC 10600 3 0 nextResult
FUNC 10610 12 0 handle
FUNC 10630 b1 0 fieldSerial
FUNC 106f0 f 0 setQuery
FUNC 10700 3d 0 setActive
FUNC 10740 d 0 setLastError
FUNC 10750 16 0 record
FUNC 10940 4f 0 holderAt
FUNC 10990 3bf 0 positionalToNamedBinding
FUNC 11370 c 0 isValid
FUNC 11380 9 0 isActive
FUNC 11390 9 0 isSelect
FUNC 113a0 23 0 driver
FUNC 113d0 1e 0 lastError
FUNC 113f0 9 0 isForwardOnly
FUNC 11400 29 0 addBindValue
FUNC 11430 50 0 boundValue
FUNC 11480 c 0 boundValueCount
FUNC 11490 9 0 boundValues
FUNC 114a0 8 0 bindingSyntax
FUNC 114b0 26 0 executedQuery
FUNC 114e0 c 0 resetBindCount
FUNC 114f0 1a 0 boundValueName
FUNC 11510 7f 0 hasOutValues
FUNC 11590 8 0 numericalPrecisionPolicy
FUNC 115a0 1f8 0 execBatch
FUNC 117a0 10f 0 clear
FUNC 118b0 738 0 namedToPositionalBinding
FUNC 11ff0 79 0 prepare
FUNC 12070 25c 0 savePrepare
FUNC 122d0 7f1 0 exec
FUNC 12ad0 dd 0 boundValue
FUNC 12bb0 f1 0 bindValueType
FUNC 12cb0 459 0 bindValue
FUNC 13110 46 0 bindValueType
FUNC 13160 322 0 bindValue
FUNC 13620 11a 0 operator=
FUNC 13810 b 0 setName
FUNC 13840 b 0 setCursorName
FUNC 13850 273 0 createField
FUNC 13b10 32 0 append
FUNC 13b50 85 0 setDescending
FUNC 13be0 2a 0 fetchPrevious
FUNC 13c10 af 0 fetchLast
FUNC 13cc0 a1 0 data
FUNC 13d70 8a 0 isNull
FUNC 14130 2b 0 clearValues
FUNC 14160 b 0 colCount
FUNC 14170 b 0 cache
FUNC 141b0 4a 0 cleanup
FUNC 14200 2 0 detachFromResultSet
FUNC 14210 75 0 init
FUNC 14290 25 0 init
FUNC 14340 c3 0 cacheNext
FUNC 14410 17f 0 fetch
FUNC 14590 63 0 fetchNext
FUNC 14680 5 0 virtual_hook
FUNC 14690 1a 0 setNumericalPrecisionPolicy
FUNC 148d0 18a 0 prefetch
FUNC 14a60 57 0 columnInQuery
FUNC 14d70 43 0 fetchMore
FUNC 14dc0 32 0 canFetchMore
FUNC 14e40 17 0 beginRemoveRows
FUNC 14e60 17 0 endRemoveRows
FUNC 14f60 2e 0 rowCount
FUNC 14f90 174 0 data
FUNC 15110 21 0 query
FUNC 15140 21 0 lastError
FUNC 15170 10 0 setLastError
FUNC 15180 d7 0 record
FUNC 15260 21 0 record
FUNC 15290 f9 0 removeColumns
FUNC 15400 43 0 initColOffsets
FUNC 15450 4be 0 setQuery
FUNC 15910 56 0 setQuery
FUNC 15970 263 0 insertColumns
FUNC 15be0 1f3 0 clear
FUNC 15de0 26f 0 setHeaderData
FUNC 16050 3e7 0 headerData
FUNC 164e0 39 0 _tcf_0
FUNC 16790 5b 0 record
FUNC 167f0 ba 0 strippedFieldName
FUNC 168b0 70 0 nameToIndex
FUNC 16920 55 0 insertCount
FUNC 16980 8b 0 initRecordAndPrimaryIndex
FUNC 16fc0 1d0 0 setTable
FUNC 17190 26 0 tableName
FUNC 171c0 59 0 isDirty
FUNC 17220 1cb 0 isDirty
FUNC 17400 231 0 insertRowIntoTable
FUNC 17640 b 0 editStrategy
FUNC 17650 11 0 revertRow
FUNC 17670 21 0 primaryKey
FUNC 176a0 10 0 setPrimaryKey
FUNC 176b0 21 0 database
FUNC 176e0 4c 0 sort
FUNC 17730 2d9 0 orderByClause
FUNC 17a10 10 0 fieldIndex
FUNC 17a20 419 0 selectStatement
FUNC 17f00 26 0 filter
FUNC 17f80 16 0 record
FUNC 17fa0 1ba 0 record
FUNC 18160 20a 0 primaryValues
FUNC 18370 38d 0 updateRowInTable
FUNC 18700 32e 0 deleteRowFromTable
FUNC 1ade0 1836 0 clear
FUNC 1c620 1ace 0 select
FUNC 1e0f0 8e 0 revertAll
FUNC 1e180 15 0 revert
FUNC 1e1a0 1e 0 setEditStrategy
FUNC 1e1c0 384 0 submitAll
FUNC 1e550 18 0 submit
FUNC 1e570 67a 0 selectRow
FUNC 1ebf0 57b 0 revertCachedRow
FUNC 1f170 58f 0 removeRows
FUNC 1f700 8ae 0 insertRows
FUNC 1ffb0 742 0 setRecord
FUNC 20700 b3 0 insertRecord
FUNC 207c0 214 0 data
FUNC 209e0 268 0 headerData
FUNC 20c50 353 0 setData
FUNC 20fb0 62 0 rowCount
FUNC 21020 1eb 0 indexInQuery
FUNC 21210 30 0 clear
FUNC 21240 256 0 flags
FUNC 214a0 5 0 revertCachedRow
FUNC 215c0 8e 0 nameToIndex
FUNC 218e0 92 0 clear
FUNC 21980 2f 0 isValid
FUNC 21f20 269 0 relation
FUNC 22190 98 0 fullyQualifiedFieldName
FUNC 22230 5 0 revertRow
FUNC 22240 b 0 setJoinMode
FUNC 22250 55 0 setTable
FUNC 222b0 339 0 translateFieldNames
FUNC 225f0 4e 0 updateRowInTable
FUNC 22640 45 0 insertRowIntoTable
FUNC 22690 878 0 orderByClause
FUNC 23550 ab 0 clearChanges
FUNC 23600 3e 0 clear
FUNC 23640 bb 0 relationModel
FUNC 23700 11a 0 setRelation
FUNC 23820 148 0 clearCache
FUNC 23970 3d9 0 setData
FUNC 23d50 789 0 data
FUNC 244e0 2aac 0 selectStatement
FUNC 26f90 102 0 removeColumns
FUNC 27170 5 0 select
FUNC 27180 1a 0 metaObject
FUNC 27350 47 0 qt_metacast
FUNC 273a0 5c 0 qt_metacall
FUNC 27400 1 0 qt_static_metacall
FUNC 27410 1a 0 metaObject
FUNC 27430 47 0 qt_metacast
FUNC 27480 7 0 qt_metacall
FUNC 27490 1 0 qt_static_metacall
FUNC 274a0 1a 0 metaObject
FUNC 274c0 47 0 qt_metacast
FUNC 27510 7 0 qt_metacall
FUNC 27520 1a 0 metaObject
FUNC 27880 45 0 qt_metacast
FUNC 278d0 5c 0 qt_metacall
FUNC 27930 1a 0 metaObject
FUNC 27980 45 0 qt_metacast
FUNC 279d0 61 0 qt_metacall
FUNC 27fe0 35 0 _do_global_dtors
FUNC 28020 66 0 _do_global_ctors
FUNC 28090 1f 0 _main
FUNC 280b0 d6 0 _security_init_cookie
FUNC 28190 f8 0 _report_gsfailure
FUNC 28290 2f 0 _dyn_tls_dtor
FUNC 28340 3 0 _tlregdtor
FUNC 28570 2bb 0 pei386_runtime_relocator
FUNC 28830 1a0 0 _mingw_SEH_error_handler
FUNC 289d0 ec 0 _mingw_init_ehandler
FUNC 28ac0 1e7 0 gnu_exception_handler
FUNC 28d20 7f 0 __w64_mingwthr_add_key_dtor
FUNC 28da0 a0 0 __w64_mingwthr_remove_key_dtor
FUNC 28e40 da 0 _mingw_TLScallback
FUNC 28fb0 8d 0 FindPESectionByName
FUNC 29040 74 0 _mingw_GetSectionForAddress
FUNC 290c0 3e 0 _mingw_GetSectionCount
FUNC 29100 6f 0 FindPESectionExec
FUNC 29170 37 0 GetPEImageBase
FUNC 291b0 91 0 IsNonwritableInCurrentImage
FUNC 29250 a6 0 _mingw_enum_import_library_names
FUNC 29300 3 0 fpreset
FUNC 29350 6 0 DllEntryPoint
FUNC 29360 6 0 DllMain
FUNC 29410 c8 0 register_onexit_function
FUNC 294e0 6f 0 execute_onexit_table
FUNC 29550 1f 0 _acrt_iob_func
FUNC 29640 1 0 setLastError
FUNC 29650 1 0 setOpenError
FUNC 29660 3 0 open
FUNC 29670 1 0 close
FUNC 29680 1 0 setOpen
FUNC 296e0 3 0 savePrepare
FUNC 296f0 1 0 setLastError
FUNC 29700 1 0 setForwardOnly
FUNC 29740 3 0 exec
FUNC 29780 1 0 setAt
FUNC 297a0 3 0 prepare
FUNC 297b0 1 0 setQuery
FUNC 297c0 1 0 bindValue
FUNC 297d0 1 0 bindValue
FUNC 297f0 1 0 setActive
FUNC 29800 1 0 setSelect
FUNC 29850 97 0 realloc
FUNC 29960 109 0 concat
FUNC 2a450 1776 0 detach_helper
FUNC 2bbd0 bc6 0 detach_helper
FUNC 2c7a0 149 0 erase
FUNC 2cb10 89 0 detach_helper
FUNC 2cbf0 37 0 duplicateNode
FUNC 2cc30 13a 0 take
FUNC 2cd70 4b 0 deleteNode2
FUNC 2cdc0 40 0 duplicateNode
FUNC 2ce00 4b 0 deleteNode2
FUNC 2ce50 44 0 duplicateNode
FUNC 2cee0 3e 0 duplicateNode
FUNC 2cf20 39 0 deleteNode2
FUNC 2cf60 3c 0 duplicateNode
FUNC 2cfa0 1 0 deleteNode2
FUNC 2cfb0 1a 0 duplicateNode
FUNC 2cfd0 b 0 deleteNode2
FUNC 2cfe0 25 0 duplicateNode
FUNC 2d010 11a 0 detach_helper_grow
FUNC 2d260 100 0 detach_helper_grow
FUNC 2d360 41 0 append
FUNC 2d3b0 a1 0 reserve
FUNC 2d530 379 0 reallocData
FUNC 2d8b0 24 0 resize
FUNC 2d8e0 216 0 reallocData
FUNC 2db00 2be 0 reallocData
FUNC 2ddc0 24 0 resize
FUNC 2ddf0 486 0 reallocData
FUNC 2e280 499 0 erase
FUNC 2e720 24 0 resize
FUNC 2e750 1c7 0 reallocData
FUNC 2e920 168 0 erase
FUNC 2ea90 e1 0 append
FUNC 2eb80 1b6 0 insert
FUNC 2ed40 140 0 reallocData
FUNC 2ee80 92 0 append
FUNC 2f1d0 c2 0 keys
FUNC 2f2a0 66 0 findNode
FUNC 2f310 6e 0 findNode
FUNC 2f380 6e 0 findNode
FUNC 2f3f0 6e 0 findNode
FUNC 2f460 6e 0 findNode
FUNC 2f4d0 66 0 findNode
FUNC 2f540 6e 0 findNode
FUNC 2f5b0 7a 0 findNode
FUNC 2f630 7a 0 findNode
FUNC 2f6b0 f9 0 copy
FUNC 2f7b0 ea 0 copy
FUNC 2f8a0 ca 0 copy
FUNC 2f970 fc 0 operator+=<QString, QLatin1Char>
FUNC 2fa70 f 0 GLOBAL__sub_I__ZN10QSqlDriver18qt_static_metacallEP7QObjectN11QMetaObject4CallEiPPv
FUNC 2fa80 f 0 GLOBAL__sub_I__ZN16QSqlDriverPlugin18qt_static_metacallEP7QObjectN11QMetaObject4CallEiPPv
FUNC 2fa90 f 0 GLOBAL__sub_I__ZN14QSqlQueryModel18qt_static_metacallEP7QObjectN11QMetaObject4CallEiPPv
FUNC 2faa0 69 0 _report_error
PUBLIC 30000 0 defaultConnection
PUBLIC 300f0 0 _native_vcclrit_reason
PUBLIC 300f4 0 _native_dllmain_reason
PUBLIC 30100 0 CRT_MT
PUBLIC 30118 0 _imp__register_onexit_function
PUBLIC 30130 0 _imp___acrt_iob_func
PUBLIC 30140 0 _security_cookie
PUBLIC 30150 0 _security_cookie_complement
PUBLIC 315a0 0 hexchars
PUBLIC 31800 0 qt_meta_stringdata_QSqlDriver
PUBLIC 31920 0 qt_meta_data_QSqlDriverPlugin
PUBLIC 31960 0 qt_meta_stringdata_QSqlDriverPlugin
PUBLIC 319e0 0 qt_meta_stringdata_QSqlQueryModel
PUBLIC 31aa0 0 qt_meta_data_QSqlTableModel
PUBLIC 31c20 0 qt_meta_stringdata_QSqlTableModel
PUBLIC 31e20 0 staticMetaObject
PUBLIC 31e60 0 qt_meta_data_QSqlRelationalTableModel
PUBLIC 31f60 0 GS_ExceptionPointers
PUBLIC 31f80 0 _dyn_tls_init_callback
PUBLIC 31fa0 0 tls_used
PUBLIC 38000 0 atexit_table
PUBLIC 38148 0 dict
PUBLIC 38150 0 qDriverDictInit
PUBLIC 38180 0 holder
PUBLIC 381a8 0 wh
PUBLIC 381b0 0 initialized
PUBLIC 381c0 0 GS_ContextRecord
PUBLIC 38740 0 mingw_initltssuo_force
PUBLIC 38744 0 mingw_initltsdyn_force
PUBLIC 38748 0 mingw_initltsdrot_force
PUBLIC 3874c 0 tls_index
PUBLIC 38760 0 was_init
PUBLIC 38764 0 maxSections
PUBLIC 38780 0 _mingw_oldexcpt_handler
PUBLIC 387a0 0 emu_xdata
PUBLIC 38a20 0 key_dtor_list
PUBLIC 38a40 0 _mingwthr_cs
PUBLIC 38a80 0 _RUNTIME_PSEUDO_RELOC_LIST__
PUBLIC 38a81 0 _RUNTIME_PSEUDO_RELOC_LIST_END__
PUBLIC 38a90 0 _native_startup_state
PUBLIC 42000 0 _xc_a
PUBLIC 42008 0 _xc_z
PUBLIC 42010 0 _xi_a
PUBLIC 42020 0 _xi_z
PUBLIC 43000 0 tls_start
PUBLIC 43008 0 tls_end
STACK CFI INIT 1000 c .cfa: $rsp .ra: .cfa 8 - ^
STACK CFI 1000 .cfa: $rsp 8 +
STACK CFI INIT 1010 1ef .cfa: $rsp .ra: .cfa 8 - ^
STACK CFI 1010 .cfa: $rsp 96 +
STACK CFI INIT 1200 12b .cfa: $rsp .ra: .cfa 8 - ^
STACK CFI 1200 .cfa: $rsp 80 +
STACK CFI INIT 1330 4f .cfa: $rsp .ra: .cfa 8 - ^
STACK CFI 1330 .cfa: $rsp 80 +
STACK CFI INIT 1380 f .cfa: $rsp .ra: .cfa 8 - ^
STACK CFI 1380 .cfa: $rsp 8 +
STACK CFI INIT 1390 c .cfa: $rsp .ra: .cfa 8 - ^
STACK CFI 1390 .cfa: $rsp 8 +
STACK CFI INIT 13a0 1 .cfa: $rsp .ra: .cfa 8 - ^
STACK CFI 13a0 .cfa: $rsp 8 +
STACK CFI INIT 13b0 3f .cfa: $rsp .ra: .cfa 8 - ^
STACK CFI 13b0 .cfa: $rsp 48 +
STACK CFI INIT 13f0 3f .cfa: $rsp .ra: .cfa 8 - ^
STACK CFI 13f0 .cfa: $rsp 48 +
STACK CFI INIT 1430 b .cfa: $rsp .ra: .cfa 8 - ^
STACK CFI 1430 .cfa: $rsp 8 +
STACK CFI INIT 1440 67 .cfa: $rsp .ra: .cfa 8 - ^
STACK CFI 1440 .cfa: $rsp 64 +
STACK CFI INIT 14b0 13b .cfa: $rsp .ra: .cfa 8 - ^
STACK CFI 14b0 .cfa: $rsp 128 +
STACK CFI INIT 15f0 b4 .cfa: $rsp .ra: .cfa 8 - ^
STACK CFI 15f0 .cfa: $rsp 96 +
STACK CFI INIT 16b0 169 .cfa: $rsp .ra: .cfa 8 - ^
STACK CFI 16b0 .cfa: $rsp 128 +
STACK CFI INIT 1820 c .cfa: $rsp .ra: .cfa 8 - ^
STACK CFI 1820 .cfa: $rsp 8 +
STACK CFI INIT 1830 1d .cfa: $rsp .ra: .cfa 8 - ^
STACK CFI 1830 .cfa: $rsp 48 +
STACK CFI INIT 1850 c .cfa: $rsp .ra: .cfa 8 - ^
STACK CFI 1850 .cfa: $rsp 8 +
STACK CFI INIT 1860 8 .cfa: $rsp .ra: .cfa 8 - ^
STACK CFI 1860 .cfa: $rsp 8 +
STACK CFI INIT 1870 23d .cfa: $rsp .ra: .cfa 8 - ^
STACK CFI 1870 .cfa: $rsp 112 +
STACK CFI INIT 1ab0 9b .cfa: $rsp .ra: .cfa 8 - ^
STACK CFI 1ab0 .cfa: $rsp 64 +
STACK CFI INIT 1b50 fa .cfa: $rsp .ra: .cfa 8 - ^
STACK CFI 1b50 .cfa: $rsp 96 +
STACK CFI INIT 1c50 af .cfa: $rsp .ra: .cfa 8 - ^
STACK CFI 1c50 .cfa: $rsp 80 +
STACK CFI INIT 1d00 55 .cfa: $rsp .ra: .cfa 8 - ^
STACK CFI 1d00 .cfa: $rsp 48 +
STACK CFI INIT 1d60 79 .cfa: $rsp .ra: .cfa 8 - ^
STACK CFI 1d60 .cfa: $rsp 48 +
STACK CFI INIT 1de0 57 .cfa: $rsp .ra: .cfa 8 - ^
STACK CFI 1de0 .cfa: $rsp 48 +
STACK CFI INIT 1e40 1d .cfa: $rsp .ra: .cfa 8 - ^
STACK CFI 1e40 .cfa: $rsp 48 +
STACK CFI INIT 1e60 c .cfa: $rsp .ra: .cfa 8 - ^
STACK CFI 1e60 .cfa: $rsp 8 +
STACK CFI INIT 1e70 c .cfa: $rsp .ra: .cfa 8 - ^
STACK CFI 1e70 .cfa: $rsp 8 +
STACK CFI INIT 1e80 c .cfa: $rsp .ra: .cfa 8 - ^
STACK CFI 1e80 .cfa: $rsp 8 +
STACK CFI INIT 1e90 c .cfa: $rsp .ra: .cfa 8 - ^
STACK CFI 1e90 .cfa: $rsp 8 +
STACK CFI INIT 1ea0 11 .cfa: $rsp .ra: .cfa 8 - ^
STACK CFI 1ea0 .cfa: $rsp 8 +
STACK CFI INIT 1ec0 7f .cfa: $rsp .ra: .cfa 8 - ^
STACK CFI 1ec0 .cfa: $rsp 96 +
STACK CFI INIT 1f40 15f .cfa: $rsp .ra: .cfa 8 - ^
STACK CFI 1f40 .cfa: $rsp 160 +
STACK CFI INIT 20a0 39 .cfa: $rsp .ra: .cfa 8 - ^
STACK CFI 20a0 .cfa: $rsp 64 +
STACK CFI INIT 20e0 e .cfa: $rsp .ra: .cfa 8 - ^
STACK CFI 20e0 .cfa: $rsp 8 +
STACK CFI INIT 20f0 e .cfa: $rsp .ra: .cfa 8 - ^
STACK CFI 20f0 .cfa: $rsp 8 +
STACK CFI INIT 2100 c .cfa: $rsp .ra: .cfa 8 - ^
STACK CFI 2100 .cfa: $rsp 8 +
STACK CFI INIT 2110 1d .cfa: $rsp .ra: .cfa 8 - ^
STACK CFI 2110 .cfa: $rsp 48 +
STACK CFI INIT 2130 1d .cfa: $rsp .ra: .cfa 8 - ^
STACK CFI 2130 .cfa: $rsp 48 +
STACK CFI INIT 2150 1d .cfa: $rsp .ra: .cfa 8 - ^
STACK CFI 2150 .cfa: $rsp 48 +
STACK CFI INIT 2170 21 .cfa: $rsp .ra: .cfa 8 - ^
STACK CFI 2170 .cfa: $rsp 48 +
STACK CFI INIT 21a0 11 .cfa: $rsp .ra: .cfa 8 - ^
STACK CFI 21a0 .cfa: $rsp 8 +
STACK CFI INIT 21c0 c .cfa: $rsp .ra: .cfa 8 - ^
STACK CFI 21c0 .cfa: $rsp 8 +
STACK CFI INIT 21d0 16a .cfa: $rsp .ra: .cfa 8 - ^
STACK CFI 21d0 .cfa: $rsp 160 +
STACK CFI INIT 2340 39 .cfa: $rsp .ra: .cfa 8 - ^
STACK CFI 2340 .cfa: $rsp 48 +
STACK CFI INIT 2380 3df .cfa: $rsp .ra: .cfa 8 - ^
STACK CFI 2380 .cfa: $rsp 176 +
STACK CFI INIT 2760 329 .cfa: $rsp .ra: .cfa 8 - ^
STACK CFI 2760 .cfa: $rsp 176 +
STACK CFI INIT 2a90 356 .cfa: $rsp .ra: .cfa 8 - ^
STACK CFI 2a90 .cfa: $rsp 176 +
STACK CFI INIT 2df0 2f .cfa: $rsp .ra: .cfa 8 - ^
STACK CFI 2df0 .cfa: $rsp 48 +
STACK CFI INIT 2e20 36 .cfa: $rsp .ra: .cfa 8 - ^
STACK CFI 2e20 .cfa: $rsp 48 +
STACK CFI INIT 2e60 59 .cfa: $rsp .ra: .cfa 8 - ^
STACK CFI 2e60 .cfa: $rsp 64 +
STACK CFI INIT 2ec0 361 .cfa: $rsp .ra: .cfa 8 - ^
STACK CFI 2ec0 .cfa: $rsp 176 +
STACK CFI INIT 3230 374 .cfa: $rsp .ra: .cfa 8 - ^
STACK CFI 3230 .cfa: $rsp 192 +
STACK CFI INIT 35b0 51b .cfa: $rsp .ra: .cfa 8 - ^
STACK CFI 35b0 .cfa: $rsp 192 +
STACK CFI INIT 3ad0 2f2 .cfa: $rsp .ra: .cfa 8 - ^
STACK CFI 3ad0 .cfa: $rsp 176 +
STACK CFI INIT 3dd0 3bc .cfa: $rsp .ra: .cfa 8 - ^
STACK CFI 3dd0 .cfa: $rsp 208 +
STACK CFI INIT 4190 423 .cfa: $rsp .ra: .cfa 8 - ^
STACK CFI 4190 .cfa: $rsp 192 +
STACK CFI INIT 45c0 202 .cfa: $rsp .ra: .cfa 8 - ^
STACK CFI 45c0 .cfa: $rsp 160 +
STACK CFI INIT 47d0 4f7 .cfa: $rsp .ra: .cfa 8 - ^
STACK CFI 47d0 .cfa: $rsp 192 +
STACK CFI INIT 4cd0 1a .cfa: $rsp .ra: .cfa 8 - ^
STACK CFI 4cd0 .cfa: $rsp 8 +
STACK CFI INIT 4cf0 35 .cfa: $rsp .ra: .cfa 8 - ^
STACK CFI 4cf0 .cfa: $rsp 8 +
STACK CFI INIT 4d30 77 .cfa: $rsp .ra: .cfa 8 - ^
STACK CFI 4d30 .cfa: $rsp 80 +
STACK CFI INIT 4db0 77 .cfa: $rsp .ra: .cfa 8 - ^
STACK CFI 4db0 .cfa: $rsp 80 +
STACK CFI INIT 4e30 6e .cfa: $rsp .ra: .cfa 8 - ^
STACK CFI 4e30 .cfa: $rsp 48 +
STACK CFI INIT 4ea0 83 .cfa: $rsp .ra: .cfa 8 - ^
STACK CFI 4ea0 .cfa: $rsp 80 +
STACK CFI INIT 4f30 9e .cfa: $rsp .ra: .cfa 8 - ^
STACK CFI 4f30 .cfa: $rsp 64 +
STACK CFI INIT 4fd0 83 .cfa: $rsp .ra: .cfa 8 - ^
STACK CFI 4fd0 .cfa: $rsp 48 +
STACK CFI INIT 5060 6c .cfa: $rsp .ra: .cfa 8 - ^
STACK CFI 5060 .cfa: $rsp 64 +
STACK CFI INIT 50d0 5f .cfa: $rsp .ra: .cfa 8 - ^
STACK CFI 50d0 .cfa: $rsp 64 +
STACK CFI INIT 5130 b .cfa: $rsp .ra: .cfa 8 - ^
STACK CFI 5130 .cfa: $rsp 8 +
STACK CFI INIT 5140 5e .cfa: $rsp .ra: .cfa 8 - ^
STACK CFI 5140 .cfa: $rsp 80 +
STACK CFI INIT 51a0 23 .cfa: $rsp .ra: .cfa 8 - ^
STACK CFI 51a0 .cfa: $rsp 8 +
STACK CFI INIT 51d0 e .cfa: $rsp .ra: .cfa 8 - ^
STACK CFI 51d0 .cfa: $rsp 8 +
STACK CFI INIT 51e0 c .cfa: $rsp .ra: .cfa 8 - ^
STACK CFI 51e0 .cfa: $rsp 8 +
STACK CFI INIT 51f0 4e .cfa: $rsp .ra: .cfa 8 - ^
STACK CFI 51f0 .cfa: $rsp 48 +
STACK CFI INIT 5240 4e .cfa: $rsp .ra: .cfa 8 - ^
STACK CFI 5240 .cfa: $rsp 48 +
STACK CFI INIT 5290 4e .cfa: $rsp .ra: .cfa 8 - ^
STACK CFI 5290 .cfa: $rsp 48 +
STACK CFI INIT 52e0 26 .cfa: $rsp .ra: .cfa 8 - ^
STACK CFI 52e0 .cfa: $rsp 8 +
STACK CFI INIT 5310 26 .cfa: $rsp .ra: .cfa 8 - ^
STACK CFI 5310 .cfa: $rsp 8 +
STACK CFI INIT 5340 26 .cfa: $rsp .ra: .cfa 8 - ^
STACK CFI 5340 .cfa: $rsp 8 +
STACK CFI INIT 5370 26 .cfa: $rsp .ra: .cfa 8 - ^
STACK CFI 5370 .cfa: $rsp 8 +
STACK CFI INIT 53a0 26 .cfa: $rsp .ra: .cfa 8 - ^
STACK CFI 53a0 .cfa: $rsp 8 +
STACK CFI INIT 53d0 7 .cfa: $rsp .ra: .cfa 8 - ^
STACK CFI 53d0 .cfa: $rsp 8 +
STACK CFI INIT 53e0 8 .cfa: $rsp .ra: .cfa 8 - ^
STACK CFI 53e0 .cfa: $rsp 8 +
STACK CFI INIT 53f0 1d .cfa: $rsp .ra: .cfa 8 - ^
STACK CFI 53f0 .cfa: $rsp 48 +
STACK CFI INIT 5410 21 .cfa: $rsp .ra: .cfa 8 - ^
STACK CFI 5410 .cfa: $rsp 48 +
STACK CFI INIT 5440 21 .cfa: $rsp .ra: .cfa 8 - ^
STACK CFI 5440 .cfa: $rsp 48 +
STACK CFI INIT 5470 21 .cfa: $rsp .ra: .cfa 8 - ^
STACK CFI 5470 .cfa: $rsp 48 +
STACK CFI INIT 54a0 26 .cfa: $rsp .ra: .cfa 8 - ^
STACK CFI 54a0 .cfa: $rsp 8 +
STACK CFI INIT 54d0 26 .cfa: $rsp .ra: .cfa 8 - ^
STACK CFI 54d0 .cfa: $rsp 8 +
STACK CFI INIT 5500 29 .cfa: $rsp .ra: .cfa 8 - ^
STACK CFI 5500 .cfa: $rsp 64 +
STACK CFI INIT 5530 15 .cfa: $rsp .ra: .cfa 8 - ^
STACK CFI 5530 .cfa: $rsp 8 +
STACK CFI INIT 5550 229 .cfa: $rsp .ra: .cfa 8 - ^
STACK CFI 5550 .cfa: $rsp 112 +
STACK CFI INIT 5780 bf .cfa: $rsp .ra: .cfa 8 - ^
STACK CFI 5780 .cfa: $rsp 64 +
STACK CFI INIT 5840 219 .cfa: $rsp .ra: .cfa 8 - ^
STACK CFI 5840 .cfa: $rsp 96 +
STACK CFI INIT 5a60 20ee .cfa: $rsp .ra: .cfa 8 - ^
STACK CFI 5a60 .cfa: $rsp 144 +
STACK CFI INIT 7b50 3b .cfa: $rsp .ra: .cfa 8 - ^
STACK CFI 7b50 .cfa: $rsp 80 +
STACK CFI INIT 7b90 1ed .cfa: $rsp .ra: .cfa 8 - ^
STACK CFI 7b90 .cfa: $rsp 160 +
STACK CFI INIT 7d80 238 .cfa: $rsp .ra: .cfa 8 - ^
STACK CFI 7d80 .cfa: $rsp 128 +
STACK CFI INIT 7fc0 236 .cfa: $rsp .ra: .cfa 8 - ^
STACK CFI 7fc0 .cfa: $rsp 64 +
STACK CFI INIT 8200 c .cfa: $rsp .ra: .cfa 8 - ^
STACK CFI 8200 .cfa: $rsp 8 +
STACK CFI INIT 8210 61 .cfa: $rsp .ra: .cfa 8 - ^
STACK CFI 8210 .cfa: $rsp 64 +
STACK CFI INIT 8280 59 .cfa: $rsp .ra: .cfa 8 - ^
STACK CFI 8280 .cfa: $rsp 64 +
STACK CFI INIT 82e0 3b .cfa: $rsp .ra: .cfa 8 - ^
STACK CFI 82e0 .cfa: $rsp 64 +
STACK CFI INIT 8320 113 .cfa: $rsp .ra: .cfa 8 - ^
STACK CFI 8320 .cfa: $rsp 112 +
STACK CFI INIT 8440 1c6 .cfa: $rsp .ra: .cfa 8 - ^
STACK CFI 8440 .cfa: $rsp 80 +
STACK CFI INIT 8610 f1 .cfa: $rsp .ra: .cfa 8 - ^
STACK CFI 8610 .cfa: $rsp 64 +
STACK CFI INIT 8710 1a .cfa: $rsp .ra: .cfa 8 - ^
STACK CFI 8710 .cfa: $rsp 48 +
STACK CFI INIT 8730 ef .cfa: $rsp .ra: .cfa 8 - ^
STACK CFI 8730 .cfa: $rsp 96 +
STACK CFI INIT 8820 5 .cfa: $rsp .ra: .cfa 8 - ^
STACK CFI 8820 .cfa: $rsp 8 +
STACK CFI INIT 8830 309 .cfa: $rsp .ra: .cfa 8 - ^
STACK CFI 8830 .cfa: $rsp 144 +
STACK CFI INIT 8b40 26 .cfa: $rsp .ra: .cfa 8 - ^
STACK CFI 8b40 .cfa: $rsp 64 +
STACK CFI INIT 8b70 617 .cfa: $rsp .ra: .cfa 8 - ^
STACK CFI 8b70 .cfa: $rsp 160 +
STACK CFI INIT 9190 6d .cfa: $rsp .ra: .cfa 8 - ^
STACK CFI 9190 .cfa: $rsp 64 +
STACK CFI INIT 9200 26 .cfa: $rsp .ra: .cfa 8 - ^
STACK CFI 9200 .cfa: $rsp 64 +
STACK CFI INIT 9230 25 .cfa: $rsp .ra: .cfa 8 - ^
STACK CFI 9230 .cfa: $rsp 48 +
STACK CFI INIT 9260 315 .cfa: $rsp .ra: .cfa 8 - ^
STACK CFI 9260 .cfa: $rsp 192 +
STACK CFI INIT 9580 1a .cfa: $rsp .ra: .cfa 8 - ^
STACK CFI 9580 .cfa: $rsp 48 +
STACK CFI INIT 95a0 48 .cfa: $rsp .ra: .cfa 8 - ^
STACK CFI 95a0 .cfa: $rsp 64 +
STACK CFI INIT 95f0 48 .cfa: $rsp .ra: .cfa 8 - ^
STACK CFI 95f0 .cfa: $rsp 64 +
STACK CFI INIT 9640 6f .cfa: $rsp .ra: .cfa 8 - ^
STACK CFI 9640 .cfa: $rsp 96 +
STACK CFI INIT 96b0 48 .cfa: $rsp .ra: .cfa 8 - ^
STACK CFI 96b0 .cfa: $rsp 64 +
STACK CFI INIT 9700 48 .cfa: $rsp .ra: .cfa 8 - ^
STACK CFI 9700 .cfa: $rsp 64 +
STACK CFI INIT 9750 31 .cfa: $rsp .ra: .cfa 8 - ^
STACK CFI 9750 .cfa: $rsp 64 +
STACK CFI INIT 9790 48 .cfa: $rsp .ra: .cfa 8 - ^
STACK CFI 9790 .cfa: $rsp 64 +
STACK CFI INIT 97e0 e9 .cfa: $rsp .ra: .cfa 8 - ^
STACK CFI 97e0 .cfa: $rsp 96 +
STACK CFI INIT 98d0 79b .cfa: $rsp .ra: .cfa 8 - ^
STACK CFI 98d0 .cfa: $rsp 160 +
STACK CFI INIT a070 30 .cfa: $rsp .ra: .cfa 8 - ^
STACK CFI a070 .cfa: $rsp 48 +
STACK CFI INIT a0a0 ca .cfa: $rsp .ra: .cfa 8 - ^
STACK CFI a0a0 .cfa: $rsp 96 +
STACK CFI INIT a170 21 .cfa: $rsp .ra: .cfa 8 - ^
STACK CFI a170 .cfa: $rsp 8 +
STACK CFI INIT a1a0 aa .cfa: $rsp .ra: .cfa 8 - ^
STACK CFI a1a0 .cfa: $rsp 80 +
STACK CFI INIT a250 a5 .cfa: $rsp .ra: .cfa 8 - ^
STACK CFI a250 .cfa: $rsp 96 +
STACK CFI INIT a300 87 .cfa: $rsp .ra: .cfa 8 - ^
STACK CFI a300 .cfa: $rsp 64 +
STACK CFI INIT a390 13c .cfa: $rsp .ra: .cfa 8 - ^
STACK CFI a390 .cfa: $rsp 80 +
STACK CFI INIT a4d0 13c .cfa: $rsp .ra: .cfa 8 - ^
STACK CFI a4d0 .cfa: $rsp 80 +
STACK CFI INIT a610 13c .cfa: $rsp .ra: .cfa 8 - ^
STACK CFI a610 .cfa: $rsp 80 +
STACK CFI INIT a750 14c .cfa: $rsp .ra: .cfa 8 - ^
STACK CFI a750 .cfa: $rsp 80 +
STACK CFI INIT a8a0 13c .cfa: $rsp .ra: .cfa 8 - ^
STACK CFI a8a0 .cfa: $rsp 80 +
STACK CFI INIT a9e0 14c .cfa: $rsp .ra: .cfa 8 - ^
STACK CFI a9e0 .cfa: $rsp 80 +
STACK CFI INIT ab30 17 .cfa: $rsp .ra: .cfa 8 - ^
STACK CFI ab30 .cfa: $rsp 8 +
STACK CFI INIT ab50 53 .cfa: $rsp .ra: .cfa 8 - ^
STACK CFI ab50 .cfa: $rsp 96 +
STACK CFI INIT abb0 14c .cfa: $rsp .ra: .cfa 8 - ^
STACK CFI abb0 .cfa: $rsp 80 +
STACK CFI INIT ad00 14c .cfa: $rsp .ra: .cfa 8 - ^
STACK CFI ad00 .cfa: $rsp 80 +
STACK CFI INIT ae50 26 .cfa: $rsp .ra: .cfa 8 - ^
STACK CFI ae50 .cfa: $rsp 8 +
STACK CFI INIT ae80 8 .cfa: $rsp .ra: .cfa 8 - ^
STACK CFI ae80 .cfa: $rsp 8 +
STACK CFI INIT ae90 198 .cfa: $rsp .ra: .cfa 8 - ^
STACK CFI ae90 .cfa: $rsp 112 +
STACK CFI INIT b030 c .cfa: $rsp .ra: .cfa 8 - ^
STACK CFI b030 .cfa: $rsp 8 +
STACK CFI INIT b040 7 .cfa: $rsp .ra: .cfa 8 - ^
STACK CFI b040 .cfa: $rsp 8 +
STACK CFI INIT b050 137 .cfa: $rsp .ra: .cfa 8 - ^
STACK CFI b050 .cfa: $rsp 80 +
STACK CFI INIT b190 8 .cfa: $rsp .ra: .cfa 8 - ^
STACK CFI b190 .cfa: $rsp 8 +
STACK CFI INIT b1a0 8 .cfa: $rsp .ra: .cfa 8 - ^
STACK CFI b1a0 .cfa: $rsp 8 +
STACK CFI INIT b1b0 8 .cfa: $rsp .ra: .cfa 8 - ^
STACK CFI b1b0 .cfa: $rsp 8 +
STACK CFI INIT b1c0 1f .cfa: $rsp .ra: .cfa 8 - ^
STACK CFI b1c0 .cfa: $rsp 48 +
STACK CFI INIT b1e0 8 .cfa: $rsp .ra: .cfa 8 - ^
STACK CFI b1e0 .cfa: $rsp 8 +
STACK CFI INIT b1f0 c .cfa: $rsp .ra: .cfa 8 - ^
STACK CFI b1f0 .cfa: $rsp 8 +
STACK CFI INIT b200 d .cfa: $rsp .ra: .cfa 8 - ^
STACK CFI b200 .cfa: $rsp 8 +
STACK CFI INIT b210 a82 .cfa: $rsp .ra: .cfa 8 - ^
STACK CFI b210 .cfa: $rsp 192 +
STACK CFI INIT bca0 e .cfa: $rsp .ra: .cfa 8 - ^
STACK CFI bca0 .cfa: $rsp 8 +
STACK CFI INIT bcb0 14c .cfa: $rsp .ra: .cfa 8 - ^
STACK CFI bcb0 .cfa: $rsp 80 +
STACK CFI INIT be00 52 .cfa: $rsp .ra: .cfa 8 - ^
STACK CFI be00 .cfa: $rsp 64 +
STACK CFI INIT be60 a2 .cfa: $rsp .ra: .cfa 8 - ^
STACK CFI be60 .cfa: $rsp 112 +
STACK CFI INIT bf10 90 .cfa: $rsp .ra: .cfa 8 - ^
STACK CFI bf10 .cfa: $rsp 64 +
STACK CFI INIT bfa0 12 .cfa: $rsp .ra: .cfa 8 - ^
STACK CFI bfa0 .cfa: $rsp 8 +
STACK CFI INIT bfc0 ea .cfa: $rsp .ra: .cfa 8 - ^
STACK CFI bfc0 .cfa: $rsp 80 +
STACK CFI INIT c0b0 12a .cfa: $rsp .ra: .cfa 8 - ^
STACK CFI c0b0 .cfa: $rsp 96 +
STACK CFI INIT c1e0 2c .cfa: $rsp .ra: .cfa 8 - ^
STACK CFI c1e0 .cfa: $rsp 48 +
STACK CFI INIT c210 c .cfa: $rsp .ra: .cfa 8 - ^
STACK CFI c210 .cfa: $rsp 8 +
STACK CFI INIT c220 7c .cfa: $rsp .ra: .cfa 8 - ^
STACK CFI c220 .cfa: $rsp 64 +
STACK CFI INIT c2a0 6a .cfa: $rsp .ra: .cfa 8 - ^
STACK CFI c2a0 .cfa: $rsp 48 +
STACK CFI INIT c310 7d .cfa: $rsp .ra: .cfa 8 - ^
STACK CFI c310 .cfa: $rsp 64 +
STACK CFI INIT c390 3a .cfa: $rsp .ra: .cfa 8 - ^
STACK CFI c390 .cfa: $rsp 96 +
STACK CFI INIT c3d0 39 .cfa: $rsp .ra: .cfa 8 - ^
STACK CFI c3d0 .cfa: $rsp 96 +
STACK CFI INIT c410 173 .cfa: $rsp .ra: .cfa 8 - ^
STACK CFI c410 .cfa: $rsp 160 +
STACK CFI INIT c590 2f .cfa: $rsp .ra: .cfa 8 - ^
STACK CFI c590 .cfa: $rsp 64 +
STACK CFI INIT c5c0 1c .cfa: $rsp .ra: .cfa 8 - ^
STACK CFI c5c0 .cfa: $rsp 48 +
STACK CFI INIT c5e0 32 .cfa: $rsp .ra: .cfa 8 - ^
STACK CFI c5e0 .cfa: $rsp 64 +
STACK CFI INIT c620 f .cfa: $rsp .ra: .cfa 8 - ^
STACK CFI c620 .cfa: $rsp 8 +
STACK CFI INIT c630 13 .cfa: $rsp .ra: .cfa 8 - ^
STACK CFI c630 .cfa: $rsp 48 +
STACK CFI INIT c650 37 .cfa: $rsp .ra: .cfa 8 - ^
STACK CFI c650 .cfa: $rsp 96 +
STACK CFI INIT c690 19 .cfa: $rsp .ra: .cfa 8 - ^
STACK CFI c690 .cfa: $rsp 48 +
STACK CFI INIT c6b0 37 .cfa: $rsp .ra: .cfa 8 - ^
STACK CFI c6b0 .cfa: $rsp 96 +
STACK CFI INIT c6f0 19 .cfa: $rsp .ra: .cfa 8 - ^
STACK CFI c6f0 .cfa: $rsp 48 +
STACK CFI INIT c710 a .cfa: $rsp .ra: .cfa 8 - ^
STACK CFI c710 .cfa: $rsp 8 +
STACK CFI INIT c720 18a .cfa: $rsp .ra: .cfa 8 - ^
STACK CFI c720 .cfa: $rsp 96 +
STACK CFI INIT c8b0 32c .cfa: $rsp .ra: .cfa 8 - ^
STACK CFI c8b0 .cfa: $rsp 224 +
STACK CFI INIT cbe0 18a .cfa: $rsp .ra: .cfa 8 - ^
STACK CFI cbe0 .cfa: $rsp 112 +
STACK CFI INIT cd70 19a .cfa: $rsp .ra: .cfa 8 - ^
STACK CFI cd70 .cfa: $rsp 96 +
STACK CFI INIT cf10 204 .cfa: $rsp .ra: .cfa 8 - ^
STACK CFI cf10 .cfa: $rsp 96 +
STACK CFI INIT d120 1da .cfa: $rsp .ra: .cfa 8 - ^
STACK CFI d120 .cfa: $rsp 112 +
STACK CFI INIT d300 15 .cfa: $rsp .ra: .cfa 8 - ^
STACK CFI d300 .cfa: $rsp 8 +
STACK CFI INIT d320 36 .cfa: $rsp .ra: .cfa 8 - ^
STACK CFI d320 .cfa: $rsp 48 +
STACK CFI INIT d360 1ea .cfa: $rsp .ra: .cfa 8 - ^
STACK CFI d360 .cfa: $rsp 128 +
STACK CFI INIT d550 21 .cfa: $rsp .ra: .cfa 8 - ^
STACK CFI d550 .cfa: $rsp 8 +
STACK CFI INIT d580 3b .cfa: $rsp .ra: .cfa 8 - ^
STACK CFI d580 .cfa: $rsp 64 +
STACK CFI INIT d5c0 1ea .cfa: $rsp .ra: .cfa 8 - ^
STACK CFI d5c0 .cfa: $rsp 128 +
STACK CFI INIT d7b0 15 .cfa: $rsp .ra: .cfa 8 - ^
STACK CFI d7b0 .cfa: $rsp 8 +
STACK CFI INIT d7d0 3a .cfa: $rsp .ra: .cfa 8 - ^
STACK CFI d7d0 .cfa: $rsp 64 +
STACK CFI INIT d810 ed .cfa: $rsp .ra: .cfa 8 - ^
STACK CFI d810 .cfa: $rsp 144 +
STACK CFI INIT d900 21b .cfa: $rsp .ra: .cfa 8 - ^
STACK CFI d900 .cfa: $rsp 128 +
STACK CFI INIT db20 1ea .cfa: $rsp .ra: .cfa 8 - ^
STACK CFI db20 .cfa: $rsp 128 +
STACK CFI INIT dd10 1cb .cfa: $rsp .ra: .cfa 8 - ^
STACK CFI dd10 .cfa: $rsp 112 +
STACK CFI INIT dee0 1b .cfa: $rsp .ra: .cfa 8 - ^
STACK CFI dee0 .cfa: $rsp 8 +
STACK CFI INIT df00 d8 .cfa: $rsp .ra: .cfa 8 - ^
STACK CFI df00 .cfa: $rsp 96 +
STACK CFI INIT dfe0 13c .cfa: $rsp .ra: .cfa 8 - ^
STACK CFI dfe0 .cfa: $rsp 112 +
STACK CFI INIT e120 22 .cfa: $rsp .ra: .cfa 8 - ^
STACK CFI e120 .cfa: $rsp 48 +
STACK CFI INIT e150 15 .cfa: $rsp .ra: .cfa 8 - ^
STACK CFI e150 .cfa: $rsp 8 +
STACK CFI INIT e170 2e .cfa: $rsp .ra: .cfa 8 - ^
STACK CFI e170 .cfa: $rsp 48 +
STACK CFI INIT e1a0 d .cfa: $rsp .ra: .cfa 8 - ^
STACK CFI e1a0 .cfa: $rsp 8 +
STACK CFI INIT e1b0 d .cfa: $rsp .ra: .cfa 8 - ^
STACK CFI e1b0 .cfa: $rsp 8 +
STACK CFI INIT e1c0 b .cfa: $rsp .ra: .cfa 8 - ^
STACK CFI e1c0 .cfa: $rsp 8 +
STACK CFI INIT e1d0 16 .cfa: $rsp .ra: .cfa 8 - ^
STACK CFI e1d0 .cfa: $rsp 8 +
STACK CFI INIT e1f0 3 .cfa: $rsp .ra: .cfa 8 - ^
STACK CFI e1f0 .cfa: $rsp 8 +
STACK CFI INIT e200 d .cfa: $rsp .ra: .cfa 8 - ^
STACK CFI e200 .cfa: $rsp 8 +
STACK CFI INIT e210 1e .cfa: $rsp .ra: .cfa 8 - ^
STACK CFI e210 .cfa: $rsp 48 +
STACK CFI INIT e230 e .cfa: $rsp .ra: .cfa 8 - ^
STACK CFI e230 .cfa: $rsp 8 +
STACK CFI INIT e240 a6 .cfa: $rsp .ra: .cfa 8 - ^
STACK CFI e240 .cfa: $rsp 64 +
STACK CFI INIT e2f0 16 .cfa: $rsp .ra: .cfa 8 - ^
STACK CFI e2f0 .cfa: $rsp 48 +
STACK CFI INIT e310 52 .cfa: $rsp .ra: .cfa 8 - ^
STACK CFI e310 .cfa: $rsp 48 +
STACK CFI INIT e370 ab .cfa: $rsp .ra: .cfa 8 - ^
STACK CFI e370 .cfa: $rsp 80 +
STACK CFI INIT e420 c66 .cfa: $rsp .ra: .cfa 8 - ^
STACK CFI e420 .cfa: $rsp 240 +
STACK CFI INIT f090 9cc .cfa: $rsp .ra: .cfa 8 - ^
STACK CFI f090 .cfa: $rsp 192 +
STACK CFI INIT fa60 12 .cfa: $rsp .ra: .cfa 8 - ^
STACK CFI fa60 .cfa: $rsp 8 +
STACK CFI INIT fa80 3 .cfa: $rsp .ra: .cfa 8 - ^
STACK CFI fa80 .cfa: $rsp 8 +
STACK CFI INIT fa90 e .cfa: $rsp .ra: .cfa 8 - ^
STACK CFI fa90 .cfa: $rsp 8 +
STACK CFI INIT faa0 b .cfa: $rsp .ra: .cfa 8 - ^
STACK CFI faa0 .cfa: $rsp 8 +
STACK CFI INIT fab0 b .cfa: $rsp .ra: .cfa 8 - ^
STACK CFI fab0 .cfa: $rsp 8 +
STACK CFI INIT fac0 b .cfa: $rsp .ra: .cfa 8 - ^
STACK CFI fac0 .cfa: $rsp 8 +
STACK CFI INIT fad0 22 .cfa: $rsp .ra: .cfa 8 - ^
STACK CFI fad0 .cfa: $rsp 48 +
STACK CFI INIT fb00 15 .cfa: $rsp .ra: .cfa 8 - ^
STACK CFI fb00 .cfa: $rsp 8 +
STACK CFI INIT fb20 2e .cfa: $rsp .ra: .cfa 8 - ^
STACK CFI fb20 .cfa: $rsp 48 +
STACK CFI INIT fb50 3e9 .cfa: $rsp .ra: .cfa 8 - ^
STACK CFI fb50 .cfa: $rsp 144 +
STACK CFI INIT ff40 de .cfa: $rsp .ra: .cfa 8 - ^
STACK CFI ff40 .cfa: $rsp 112 +
STACK CFI INIT 10020 83 .cfa: $rsp .ra: .cfa 8 - ^
STACK CFI 10020 .cfa: $rsp 96 +
STACK CFI INIT 100b0 71 .cfa: $rsp .ra: .cfa 8 - ^
STACK CFI 100b0 .cfa: $rsp 80 +
STACK CFI INIT 10130 48 .cfa: $rsp .ra: .cfa 8 - ^
STACK CFI 10130 .cfa: $rsp 80 +
STACK CFI INIT 10180 12 .cfa: $rsp .ra: .cfa 8 - ^
STACK CFI 10180 .cfa: $rsp 8 +
STACK CFI INIT 101a0 12 .cfa: $rsp .ra: .cfa 8 - ^
STACK CFI 101a0 .cfa: $rsp 8 +
STACK CFI INIT 101c0 13a .cfa: $rsp .ra: .cfa 8 - ^
STACK CFI 101c0 .cfa: $rsp 64 +
STACK CFI INIT 10300 26 .cfa: $rsp .ra: .cfa 8 - ^
STACK CFI 10300 .cfa: $rsp 8 +
STACK CFI INIT 10330 b .cfa: $rsp .ra: .cfa 8 - ^
STACK CFI 10330 .cfa: $rsp 8 +
STACK CFI INIT 10340 26 .cfa: $rsp .ra: .cfa 8 - ^
STACK CFI 10340 .cfa: $rsp 8 +
STACK CFI INIT 10370 f .cfa: $rsp .ra: .cfa 8 - ^
STACK CFI 10370 .cfa: $rsp 8 +
STACK CFI INIT 10380 8 .cfa: $rsp .ra: .cfa 8 - ^
STACK CFI 10380 .cfa: $rsp 8 +
STACK CFI INIT 10390 8 .cfa: $rsp .ra: .cfa 8 - ^
STACK CFI 10390 .cfa: $rsp 8 +
STACK CFI INIT 103a0 28 .cfa: $rsp .ra: .cfa 8 - ^
STACK CFI 103a0 .cfa: $rsp 8 +
STACK CFI INIT 103d0 6d .cfa: $rsp .ra: .cfa 8 - ^
STACK CFI 103d0 .cfa: $rsp 64 +
STACK CFI INIT 10440 26 .cfa: $rsp .ra: .cfa 8 - ^
STACK CFI 10440 .cfa: $rsp 8 +
STACK CFI INIT 10470 da .cfa: $rsp .ra: .cfa 8 - ^
STACK CFI 10470 .cfa: $rsp 80 +
STACK CFI INIT 10550 d .cfa: $rsp .ra: .cfa 8 - ^
STACK CFI 10550 .cfa: $rsp 8 +
STACK CFI INIT 10560 8 .cfa: $rsp .ra: .cfa 8 - ^
STACK CFI 10560 .cfa: $rsp 8 +
STACK CFI INIT 10570 8 .cfa: $rsp .ra: .cfa 8 - ^
STACK CFI 10570 .cfa: $rsp 8 +
STACK CFI INIT 10580 14 .cfa: $rsp .ra: .cfa 8 - ^
STACK CFI 10580 .cfa: $rsp 8 +
STACK CFI INIT 105a0 14 .cfa: $rsp .ra: .cfa 8 - ^
STACK CFI 105a0 .cfa: $rsp 8 +
STACK CFI INIT 105c0 8 .cfa: $rsp .ra: .cfa 8 - ^
STACK CFI 105c0 .cfa: $rsp 8 +
STACK CFI INIT 105d0 1 .cfa: $rsp .ra: .cfa 8 - ^
STACK CFI 105d0 .cfa: $rsp 8 +
STACK CFI INIT 105e0 1 .cfa: $rsp .ra: .cfa 8 - ^
STACK CFI 105e0 .cfa: $rsp 8 +
STACK CFI INIT 105f0 8 .cfa: $rsp .ra: .cfa 8 - ^
STACK CFI 105f0 .cfa: $rsp 8 +
STACK CFI INIT 10600 3 .cfa: $rsp .ra: .cfa 8 - ^
STACK CFI 10600 .cfa: $rsp 8 +
STACK CFI INIT 10610 12 .cfa: $rsp .ra: .cfa 8 - ^
STACK CFI 10610 .cfa: $rsp 8 +
STACK CFI INIT 10630 b1 .cfa: $rsp .ra: .cfa 8 - ^
STACK CFI 10630 .cfa: $rsp 96 +
STACK CFI INIT 106f0 f .cfa: $rsp .ra: .cfa 8 - ^
STACK CFI 106f0 .cfa: $rsp 8 +
STACK CFI INIT 10700 3d .cfa: $rsp .ra: .cfa 8 - ^
STACK CFI 10700 .cfa: $rsp 64 +
STACK CFI INIT 10740 d .cfa: $rsp .ra: .cfa 8 - ^
STACK CFI 10740 .cfa: $rsp 8 +
STACK CFI INIT 10750 16 .cfa: $rsp .ra: .cfa 8 - ^
STACK CFI 10750 .cfa: $rsp 48 +
STACK CFI INIT 10770 5b .cfa: $rsp .ra: .cfa 8 - ^
STACK CFI 10770 .cfa: $rsp 80 +
STACK CFI INIT 107d0 b3 .cfa: $rsp .ra: .cfa 8 - ^
STACK CFI 107d0 .cfa: $rsp 80 +
STACK CFI INIT 10890 a6 .cfa: $rsp .ra: .cfa 8 - ^
STACK CFI 10890 .cfa: $rsp 80 +
STACK CFI INIT 10940 4f .cfa: $rsp .ra: .cfa 8 - ^
STACK CFI 10940 .cfa: $rsp 48 +
STACK CFI INIT 10990 3bf .cfa: $rsp .ra: .cfa 8 - ^
STACK CFI 10990 .cfa: $rsp 144 +
STACK CFI INIT 10d50 1c6 .cfa: $rsp .ra: .cfa 8 - ^
STACK CFI 10d50 .cfa: $rsp 112 +
STACK CFI INIT 10f20 4c .cfa: $rsp .ra: .cfa 8 - ^
STACK CFI 10f20 .cfa: $rsp 48 +
STACK CFI INIT 10f70 1db .cfa: $rsp .ra: .cfa 8 - ^
STACK CFI 10f70 .cfa: $rsp 48 +
STACK CFI INIT 11150 1da .cfa: $rsp .ra: .cfa 8 - ^
STACK CFI 11150 .cfa: $rsp 64 +
STACK CFI INIT 11330 26 .cfa: $rsp .ra: .cfa 8 - ^
STACK CFI 11330 .cfa: $rsp 8 +
STACK CFI INIT 11360 8 .cfa: $rsp .ra: .cfa 8 - ^
STACK CFI 11360 .cfa: $rsp 8 +
STACK CFI INIT 11370 c .cfa: $rsp .ra: .cfa 8 - ^
STACK CFI 11370 .cfa: $rsp 8 +
STACK CFI INIT 11380 9 .cfa: $rsp .ra: .cfa 8 - ^
STACK CFI 11380 .cfa: $rsp 8 +
STACK CFI INIT 11390 9 .cfa: $rsp .ra: .cfa 8 - ^
STACK CFI 11390 .cfa: $rsp 8 +
STACK CFI INIT 113a0 23 .cfa: $rsp .ra: .cfa 8 - ^
STACK CFI 113a0 .cfa: $rsp 8 +
STACK CFI INIT 113d0 1e .cfa: $rsp .ra: .cfa 8 - ^
STACK CFI 113d0 .cfa: $rsp 48 +
STACK CFI INIT 113f0 9 .cfa: $rsp .ra: .cfa 8 - ^
STACK CFI 113f0 .cfa: $rsp 8 +
STACK CFI INIT 11400 29 .cfa: $rsp .ra: .cfa 8 - ^
STACK CFI 11400 .cfa: $rsp 48 +
STACK CFI INIT 11430 50 .cfa: $rsp .ra: .cfa 8 - ^
STACK CFI 11430 .cfa: $rsp 48 +
STACK CFI INIT 11480 c .cfa: $rsp .ra: .cfa 8 - ^
STACK CFI 11480 .cfa: $rsp 8 +
STACK CFI INIT 11490 9 .cfa: $rsp .ra: .cfa 8 - ^
STACK CFI 11490 .cfa: $rsp 8 +
STACK CFI INIT 114a0 8 .cfa: $rsp .ra: .cfa 8 - ^
STACK CFI 114a0 .cfa: $rsp 8 +
STACK CFI INIT 114b0 26 .cfa: $rsp .ra: .cfa 8 - ^
STACK CFI 114b0 .cfa: $rsp 8 +
STACK CFI INIT 114e0 c .cfa: $rsp .ra: .cfa 8 - ^
STACK CFI 114e0 .cfa: $rsp 8 +
STACK CFI INIT 114f0 1a .cfa: $rsp .ra: .cfa 8 - ^
STACK CFI 114f0 .cfa: $rsp 48 +
STACK CFI INIT 11510 7f .cfa: $rsp .ra: .cfa 8 - ^
STACK CFI 11510 .cfa: $rsp 64 +
STACK CFI INIT 11590 8 .cfa: $rsp .ra: .cfa 8 - ^
STACK CFI 11590 .cfa: $rsp 8 +
STACK CFI INIT 115a0 1f8 .cfa: $rsp .ra: .cfa 8 - ^
STACK CFI 115a0 .cfa: $rsp 112 +
STACK CFI INIT 117a0 10f .cfa: $rsp .ra: .cfa 8 - ^
STACK CFI 117a0 .cfa: $rsp 64 +
STACK CFI INIT 118b0 738 .cfa: $rsp .ra: .cfa 8 - ^
STACK CFI 118b0 .cfa: $rsp 192 +
STACK CFI INIT 11ff0 79 .cfa: $rsp .ra: .cfa 8 - ^
STACK CFI 11ff0 .cfa: $rsp 80 +
STACK CFI INIT 12070 25c .cfa: $rsp .ra: .cfa 8 - ^
STACK CFI 12070 .cfa: $rsp 96 +
STACK CFI INIT 122d0 7f1 .cfa: $rsp .ra: .cfa 8 - ^
STACK CFI 122d0 .cfa: $rsp 272 +
STACK CFI INIT 12ad0 dd .cfa: $rsp .ra: .cfa 8 - ^
STACK CFI 12ad0 .cfa: $rsp 80 +
STACK CFI INIT 12bb0 f1 .cfa: $rsp .ra: .cfa 8 - ^
STACK CFI 12bb0 .cfa: $rsp 80 +
STACK CFI INIT 12cb0 459 .cfa: $rsp .ra: .cfa 8 - ^
STACK CFI 12cb0 .cfa: $rsp 144 +
STACK CFI INIT 13110 46 .cfa: $rsp .ra: .cfa 8 - ^
STACK CFI 13110 .cfa: $rsp 48 +
STACK CFI INIT 13160 322 .cfa: $rsp .ra: .cfa 8 - ^
STACK CFI 13160 .cfa: $rsp 176 +
STACK CFI INIT 13490 66 .cfa: $rsp .ra: .cfa 8 - ^
STACK CFI 13490 .cfa: $rsp 64 +
STACK CFI INIT 13500 11b .cfa: $rsp .ra: .cfa 8 - ^
STACK CFI 13500 .cfa: $rsp 64 +
STACK CFI INIT 13620 11a .cfa: $rsp .ra: .cfa 8 - ^
STACK CFI 13620 .cfa: $rsp 64 +
STACK CFI INIT 13740 c6 .cfa: $rsp .ra: .cfa 8 - ^
STACK CFI 13740 .cfa: $rsp 48 +
STACK CFI INIT 13810 b .cfa: $rsp .ra: .cfa 8 - ^
STACK CFI 13810 .cfa: $rsp 8 +
STACK CFI INIT 13820 1d .cfa: $rsp .ra: .cfa 8 - ^
STACK CFI 13820 .cfa: $rsp 8 +
STACK CFI INIT 13840 b .cfa: $rsp .ra: .cfa 8 - ^
STACK CFI 13840 .cfa: $rsp 8 +
STACK CFI INIT 13850 273 .cfa: $rsp .ra: .cfa 8 - ^
STACK CFI 13850 .cfa: $rsp 144 +
STACK CFI INIT 13ad0 32 .cfa: $rsp .ra: .cfa 8 - ^
STACK CFI 13ad0 .cfa: $rsp 64 +
STACK CFI INIT 13b10 32 .cfa: $rsp .ra: .cfa 8 - ^
STACK CFI 13b10 .cfa: $rsp 80 +
STACK CFI INIT 13b50 85 .cfa: $rsp .ra: .cfa 8 - ^
STACK CFI 13b50 .cfa: $rsp 64 +
STACK CFI INIT 13be0 2a .cfa: $rsp .ra: .cfa 8 - ^
STACK CFI 13be0 .cfa: $rsp 64 +
STACK CFI INIT 13c10 af .cfa: $rsp .ra: .cfa 8 - ^
STACK CFI 13c10 .cfa: $rsp 64 +
STACK CFI INIT 13cc0 a1 .cfa: $rsp .ra: .cfa 8 - ^
STACK CFI 13cc0 .cfa: $rsp 80 +
STACK CFI INIT 13d70 8a .cfa: $rsp .ra: .cfa 8 - ^
STACK CFI 13d70 .cfa: $rsp 80 +
STACK CFI INIT 13e00 5b .cfa: $rsp .ra: .cfa 8 - ^
STACK CFI 13e00 .cfa: $rsp 80 +
STACK CFI INIT 13e60 b3 .cfa: $rsp .ra: .cfa 8 - ^
STACK CFI 13e60 .cfa: $rsp 80 +
STACK CFI INIT 13f20 197 .cfa: $rsp .ra: .cfa 8 - ^
STACK CFI 13f20 .cfa: $rsp 112 +
STACK CFI INIT 140c0 23 .cfa: $rsp .ra: .cfa 8 - ^
STACK CFI 140c0 .cfa: $rsp 8 +
STACK CFI INIT 140f0 13 .cfa: $rsp .ra: .cfa 8 - ^
STACK CFI 140f0 .cfa: $rsp 8 +
STACK CFI INIT 14110 1d .cfa: $rsp .ra: .cfa 8 - ^
STACK CFI 14110 .cfa: $rsp 48 +
STACK CFI INIT 14130 2b .cfa: $rsp .ra: .cfa 8 - ^
STACK CFI 14130 .cfa: $rsp 48 +
STACK CFI INIT 14160 b .cfa: $rsp .ra: .cfa 8 - ^
STACK CFI 14160 .cfa: $rsp 8 +
STACK CFI INIT 14170 b .cfa: $rsp .ra: .cfa 8 - ^
STACK CFI 14170 .cfa: $rsp 8 +
STACK CFI INIT 14180 2e .cfa: $rsp .ra: .cfa 8 - ^
STACK CFI 14180 .cfa: $rsp 48 +
STACK CFI INIT 141b0 4a .cfa: $rsp .ra: .cfa 8 - ^
STACK CFI 141b0 .cfa: $rsp 64 +
STACK CFI INIT 14200 2 .cfa: $rsp .ra: .cfa 8 - ^
STACK CFI 14200 .cfa: $rsp 8 +
STACK CFI INIT 14210 75 .cfa: $rsp .ra: .cfa 8 - ^
STACK CFI 14210 .cfa: $rsp 80 +
STACK CFI INIT 14290 25 .cfa: $rsp .ra: .cfa 8 - ^
STACK CFI 14290 .cfa: $rsp 64 +
STACK CFI INIT 142c0 5f .cfa: $rsp .ra: .cfa 8 - ^
STACK CFI 142c0 .cfa: $rsp 64 +
STACK CFI INIT 14320 13 .cfa: $rsp .ra: .cfa 8 - ^
STACK CFI 14320 .cfa: $rsp 8 +
STACK CFI INIT 14340 c3 .cfa: $rsp .ra: .cfa 8 - ^
STACK CFI 14340 .cfa: $rsp 80 +
STACK CFI INIT 14410 17f .cfa: $rsp .ra: .cfa 8 - ^
STACK CFI 14410 .cfa: $rsp 80 +
STACK CFI INIT 14590 63 .cfa: $rsp .ra: .cfa 8 - ^
STACK CFI 14590 .cfa: $rsp 64 +
STACK CFI INIT 14600 77 .cfa: $rsp .ra: .cfa 8 - ^
STACK CFI 14600 .cfa: $rsp 64 +
STACK CFI INIT 14680 5 .cfa: $rsp .ra: .cfa 8 - ^
STACK CFI 14680 .cfa: $rsp 8 +
STACK CFI INIT 14690 1a .cfa: $rsp .ra: .cfa 8 - ^
STACK CFI 14690 .cfa: $rsp 48 +
STACK CFI INIT 146b0 1 .cfa: $rsp .ra: .cfa 8 - ^
STACK CFI 146b0 .cfa: $rsp 8 +
STACK CFI INIT 146c0 30 .cfa: $rsp .ra: .cfa 8 - ^
STACK CFI 146c0 .cfa: $rsp 8 +
STACK CFI INIT 146f0 ab .cfa: $rsp .ra: .cfa 8 - ^
STACK CFI 146f0 .cfa: $rsp 96 +
STACK CFI INIT 147a0 77 .cfa: $rsp .ra: .cfa 8 - ^
STACK CFI 147a0 .cfa: $rsp 80 +
STACK CFI INIT 14820 83 .cfa: $rsp .ra: .cfa 8 - ^
STACK CFI 14820 .cfa: $rsp 48 +
STACK CFI INIT 148b0 1f .cfa: $rsp .ra: .cfa 8 - ^
STACK CFI 148b0 .cfa: $rsp 48 +
STACK CFI INIT 148d0 18a .cfa: $rsp .ra: .cfa 8 - ^
STACK CFI 148d0 .cfa: $rsp 112 +
STACK CFI INIT 14a60 57 .cfa: $rsp .ra: .cfa 8 - ^
STACK CFI 14a60 .cfa: $rsp 64 +
STACK CFI INIT 14ac0 226 .cfa: $rsp .ra: .cfa 8 - ^
STACK CFI 14ac0 .cfa: $rsp 144 +
STACK CFI INIT 14cf0 22 .cfa: $rsp .ra: .cfa 8 - ^
STACK CFI 14cf0 .cfa: $rsp 48 +
STACK CFI INIT 14d20 15 .cfa: $rsp .ra: .cfa 8 - ^
STACK CFI 14d20 .cfa: $rsp 8 +
STACK CFI INIT 14d40 2e .cfa: $rsp .ra: .cfa 8 - ^
STACK CFI 14d40 .cfa: $rsp 48 +
STACK CFI INIT 14d70 43 .cfa: $rsp .ra: .cfa 8 - ^
STACK CFI 14d70 .cfa: $rsp 8 +
STACK CFI INIT 14dc0 32 .cfa: $rsp .ra: .cfa 8 - ^
STACK CFI 14dc0 .cfa: $rsp 8 +
STACK CFI INIT 14e00 17 .cfa: $rsp .ra: .cfa 8 - ^
STACK CFI 14e00 .cfa: $rsp 8 +
STACK CFI INIT 14e20 17 .cfa: $rsp .ra: .cfa 8 - ^
STACK CFI 14e20 .cfa: $rsp 8 +
STACK CFI INIT 14e40 17 .cfa: $rsp .ra: .cfa 8 - ^
STACK CFI 14e40 .cfa: $rsp 8 +
STACK CFI INIT 14e60 17 .cfa: $rsp .ra: .cfa 8 - ^
STACK CFI 14e60 .cfa: $rsp 8 +
STACK CFI INIT 14e80 17 .cfa: $rsp .ra: .cfa 8 - ^
STACK CFI 14e80 .cfa: $rsp 8 +
STACK CFI INIT 14ea0 17 .cfa: $rsp .ra: .cfa 8 - ^
STACK CFI 14ea0 .cfa: $rsp 8 +
STACK CFI INIT 14ec0 17 .cfa: $rsp .ra: .cfa 8 - ^
STACK CFI 14ec0 .cfa: $rsp 8 +
STACK CFI INIT 14ee0 17 .cfa: $rsp .ra: .cfa 8 - ^
STACK CFI 14ee0 .cfa: $rsp 8 +
STACK CFI INIT 14f00 3d .cfa: $rsp .ra: .cfa 8 - ^
STACK CFI 14f00 .cfa: $rsp 48 +
STACK CFI INIT 14f40 17 .cfa: $rsp .ra: .cfa 8 - ^
STACK CFI 14f40 .cfa: $rsp 8 +
STACK CFI INIT 14f60 2e .cfa: $rsp .ra: .cfa 8 - ^
STACK CFI 14f60 .cfa: $rsp 8 +
STACK CFI INIT 14f90 174 .cfa: $rsp .ra: .cfa 8 - ^
STACK CFI 14f90 .cfa: $rsp 160 +
STACK CFI INIT 15110 21 .cfa: $rsp .ra: .cfa 8 - ^
STACK CFI 15110 .cfa: $rsp 48 +
STACK CFI INIT 15140 21 .cfa: $rsp .ra: .cfa 8 - ^
STACK CFI 15140 .cfa: $rsp 48 +
STACK CFI INIT 15170 10 .cfa: $rsp .ra: .cfa 8 - ^
STACK CFI 15170 .cfa: $rsp 8 +
STACK CFI INIT 15180 d7 .cfa: $rsp .ra: .cfa 8 - ^
STACK CFI 15180 .cfa: $rsp 176 +
STACK CFI INIT 15260 21 .cfa: $rsp .ra: .cfa 8 - ^
STACK CFI 15260 .cfa: $rsp 48 +
STACK CFI INIT 15290 f9 .cfa: $rsp .ra: .cfa 8 - ^
STACK CFI 15290 .cfa: $rsp 112 +
STACK CFI INIT 15390 62 .cfa: $rsp .ra: .cfa 8 - ^
STACK CFI 15390 .cfa: $rsp 64 +
STACK CFI INIT 15400 43 .cfa: $rsp .ra: .cfa 8 - ^
STACK CFI 15400 .cfa: $rsp 48 +
STACK CFI INIT 15450 4be .cfa: $rsp .ra: .cfa 8 - ^
STACK CFI 15450 .cfa: $rsp 224 +
STACK CFI INIT 15910 56 .cfa: $rsp .ra: .cfa 8 - ^
STACK CFI 15910 .cfa: $rsp 96 +
STACK CFI INIT 15970 263 .cfa: $rsp .ra: .cfa 8 - ^
STACK CFI 15970 .cfa: $rsp 192 +
STACK CFI INIT 15be0 1f3 .cfa: $rsp .ra: .cfa 8 - ^
STACK CFI 15be0 .cfa: $rsp 144 +
STACK CFI INIT 15de0 26f .cfa: $rsp .ra: .cfa 8 - ^
STACK CFI 15de0 .cfa: $rsp 160 +
STACK CFI INIT 16050 3e7 .cfa: $rsp .ra: .cfa 8 - ^
STACK CFI 16050 .cfa: $rsp 192 +
STACK CFI INIT 16440 12 .cfa: $rsp .ra: .cfa 8 - ^
STACK CFI 16440 .cfa: $rsp 8 +
STACK CFI INIT 16460 7e .cfa: $rsp .ra: .cfa 8 - ^
STACK CFI 16460 .cfa: $rsp 64 +
STACK CFI INIT 164e0 39 .cfa: $rsp .ra: .cfa 8 - ^
STACK CFI 164e0 .cfa: $rsp 8 +
STACK CFI INIT 16520 26c .cfa: $rsp .ra: .cfa 8 - ^
STACK CFI 16520 .cfa: $rsp 176 +
STACK CFI INIT 16790 5b .cfa: $rsp .ra: .cfa 8 - ^
STACK CFI 16790 .cfa: $rsp 64 +
STACK CFI INIT 167f0 ba .cfa: $rsp .ra: .cfa 8 - ^
STACK CFI 167f0 .cfa: $rsp 80 +
STACK CFI INIT 168b0 70 .cfa: $rsp .ra: .cfa 8 - ^
STACK CFI 168b0 .cfa: $rsp 96 +
STACK CFI INIT 16920 55 .cfa: $rsp .ra: .cfa 8 - ^
STACK CFI 16920 .cfa: $rsp 80 +
STACK CFI INIT 16980 8b .cfa: $rsp .ra: .cfa 8 - ^
STACK CFI 16980 .cfa: $rsp 112 +
STACK CFI INIT 16a10 19 .cfa: $rsp .ra: .cfa 8 - ^
STACK CFI 16a10 .cfa: $rsp 8 +
STACK CFI INIT 16a30 432 .cfa: $rsp .ra: .cfa 8 - ^
STACK CFI 16a30 .cfa: $rsp 144 +
STACK CFI INIT 16e70 100 .cfa: $rsp .ra: .cfa 8 - ^
STACK CFI 16e70 .cfa: $rsp 80 +
STACK CFI INIT 16f70 13 .cfa: $rsp .ra: .cfa 8 - ^
STACK CFI 16f70 .cfa: $rsp 8 +
STACK CFI INIT 16f90 2d .cfa: $rsp .ra: .cfa 8 - ^
STACK CFI 16f90 .cfa: $rsp 48 +
STACK CFI INIT 16fc0 1d0 .cfa: $rsp .ra: .cfa 8 - ^
STACK CFI 16fc0 .cfa: $rsp 176 +
STACK CFI INIT 17190 26 .cfa: $rsp .ra: .cfa 8 - ^
STACK CFI 17190 .cfa: $rsp 8 +
STACK CFI INIT 171c0 59 .cfa: $rsp .ra: .cfa 8 - ^
STACK CFI 171c0 .cfa: $rsp 64 +
STACK CFI INIT 17220 1cb .cfa: $rsp .ra: .cfa 8 - ^
STACK CFI 17220 .cfa: $rsp 176 +
STACK CFI INIT 173f0 5 .cfa: $rsp .ra: .cfa 8 - ^
STACK CFI 173f0 .cfa: $rsp 8 +
STACK CFI INIT 17400 231 .cfa: $rsp .ra: .cfa 8 - ^
STACK CFI 17400 .cfa: $rsp 192 +
STACK CFI INIT 17640 b .cfa: $rsp .ra: .cfa 8 - ^
STACK CFI 17640 .cfa: $rsp 8 +
STACK CFI INIT 17650 11 .cfa: $rsp .ra: .cfa 8 - ^
STACK CFI 17650 .cfa: $rsp 8 +
STACK CFI INIT 17670 21 .cfa: $rsp .ra: .cfa 8 - ^
STACK CFI 17670 .cfa: $rsp 48 +
STACK CFI INIT 176a0 10 .cfa: $rsp .ra: .cfa 8 - ^
STACK CFI 176a0 .cfa: $rsp 8 +
STACK CFI INIT 176b0 21 .cfa: $rsp .ra: .cfa 8 - ^
STACK CFI 176b0 .cfa: $rsp 48 +
STACK CFI INIT 176e0 4c .cfa: $rsp .ra: .cfa 8 - ^
STACK CFI 176e0 .cfa: $rsp 48 +
STACK CFI INIT 17730 2d9 .cfa: $rsp .ra: .cfa 8 - ^
STACK CFI 17730 .cfa: $rsp 160 +
STACK CFI INIT 17a10 10 .cfa: $rsp .ra: .cfa 8 - ^
STACK CFI 17a10 .cfa: $rsp 8 +
STACK CFI INIT 17a20 419 .cfa: $rsp .ra: .cfa 8 - ^
STACK CFI 17a20 .cfa: $rsp 176 +
STACK CFI INIT 17e40 b6 .cfa: $rsp .ra: .cfa 8 - ^
STACK CFI 17e40 .cfa: $rsp 96 +
STACK CFI INIT 17f00 26 .cfa: $rsp .ra: .cfa 8 - ^
STACK CFI 17f00 .cfa: $rsp 8 +
STACK CFI INIT 17f30 47 .cfa: $rsp .ra: .cfa 8 - ^
STACK CFI 17f30 .cfa: $rsp 64 +
STACK CFI INIT 17f80 16 .cfa: $rsp .ra: .cfa 8 - ^
STACK CFI 17f80 .cfa: $rsp 48 +
STACK CFI INIT 17fa0 1ba .cfa: $rsp .ra: .cfa 8 - ^
STACK CFI 17fa0 .cfa: $rsp 192 +
STACK CFI INIT 18160 20a .cfa: $rsp .ra: .cfa 8 - ^
STACK CFI 18160 .cfa: $rsp 208 +
STACK CFI INIT 18370 38d .cfa: $rsp .ra: .cfa 8 - ^
STACK CFI 18370 .cfa: $rsp 240 +
STACK CFI INIT 18700 32e .cfa: $rsp .ra: .cfa 8 - ^
STACK CFI 18700 .cfa: $rsp 224 +
STACK CFI INIT 18a30 16cd .cfa: $rsp .ra: .cfa 8 - ^
STACK CFI 18a30 .cfa: $rsp 112 +
STACK CFI INIT 1a100 cb9 .cfa: $rsp .ra: .cfa 8 - ^
STACK CFI 1a100 .cfa: $rsp 112 +
STACK CFI INIT 1adc0 1f .cfa: $rsp .ra: .cfa 8 - ^
STACK CFI 1adc0 .cfa: $rsp 48 +
STACK CFI INIT 1ade0 1836 .cfa: $rsp .ra: .cfa 8 - ^
STACK CFI 1ade0 .cfa: $rsp 128 +
STACK CFI INIT 1c620 1ace .cfa: $rsp .ra: .cfa 8 - ^
STACK CFI 1c620 .cfa: $rsp 192 +
STACK CFI INIT 1e0f0 8e .cfa: $rsp .ra: .cfa 8 - ^
STACK CFI 1e0f0 .cfa: $rsp 96 +
STACK CFI INIT 1e180 15 .cfa: $rsp .ra: .cfa 8 - ^
STACK CFI 1e180 .cfa: $rsp 8 +
STACK CFI INIT 1e1a0 1e .cfa: $rsp .ra: .cfa 8 - ^
STACK CFI 1e1a0 .cfa: $rsp 64 +
STACK CFI INIT 1e1c0 384 .cfa: $rsp .ra: .cfa 8 - ^
STACK CFI 1e1c0 .cfa: $rsp 176 +
STACK CFI INIT 1e550 18 .cfa: $rsp .ra: .cfa 8 - ^
STACK CFI 1e550 .cfa: $rsp 8 +
STACK CFI INIT 1e570 67a .cfa: $rsp .ra: .cfa 8 - ^
STACK CFI 1e570 .cfa: $rsp 288 +
STACK CFI INIT 1ebf0 57b .cfa: $rsp .ra: .cfa 8 - ^
STACK CFI 1ebf0 .cfa: $rsp 272 +
STACK CFI INIT 1f170 58f .cfa: $rsp .ra: .cfa 8 - ^
STACK CFI 1f170 .cfa: $rsp 224 +
STACK CFI INIT 1f700 8ae .cfa: $rsp .ra: .cfa 8 - ^
STACK CFI 1f700 .cfa: $rsp 256 +
STACK CFI INIT 1ffb0 742 .cfa: $rsp .ra: .cfa 8 - ^
STACK CFI 1ffb0 .cfa: $rsp 240 +
STACK CFI INIT 20700 b3 .cfa: $rsp .ra: .cfa 8 - ^
STACK CFI 20700 .cfa: $rsp 128 +
STACK CFI INIT 207c0 214 .cfa: $rsp .ra: .cfa 8 - ^
STACK CFI 207c0 .cfa: $rsp 208 +
STACK CFI INIT 209e0 268 .cfa: $rsp .ra: .cfa 8 - ^
STACK CFI 209e0 .cfa: $rsp 240 +
STACK CFI INIT 20c50 353 .cfa: $rsp .ra: .cfa 8 - ^
STACK CFI 20c50 .cfa: $rsp 240 +
STACK CFI INIT 20fb0 62 .cfa: $rsp .ra: .cfa 8 - ^
STACK CFI 20fb0 .cfa: $rsp 96 +
STACK CFI INIT 21020 1eb .cfa: $rsp .ra: .cfa 8 - ^
STACK CFI 21020 .cfa: $rsp 208 +
STACK CFI INIT 21210 30 .cfa: $rsp .ra: .cfa 8 - ^
STACK CFI 21210 .cfa: $rsp 64 +
STACK CFI INIT 21240 256 .cfa: $rsp .ra: .cfa 8 - ^
STACK CFI 21240 .cfa: $rsp 192 +
STACK CFI INIT 214a0 5 .cfa: $rsp .ra: .cfa 8 - ^
STACK CFI 214a0 .cfa: $rsp 8 +
STACK CFI INIT 214b0 77 .cfa: $rsp .ra: .cfa 8 - ^
STACK CFI 214b0 .cfa: $rsp 80 +
STACK CFI INIT 21530 83 .cfa: $rsp .ra: .cfa 8 - ^
STACK CFI 21530 .cfa: $rsp 80 +
STACK CFI INIT 215c0 8e .cfa: $rsp .ra: .cfa 8 - ^
STACK CFI 215c0 .cfa: $rsp 96 +
STACK CFI INIT 21650 1b6 .cfa: $rsp .ra: .cfa 8 - ^
STACK CFI 21650 .cfa: $rsp 96 +
STACK CFI INIT 21810 3c .cfa: $rsp .ra: .cfa 8 - ^
STACK CFI 21810 .cfa: $rsp 64 +
STACK CFI INIT 21850 5 .cfa: $rsp .ra: .cfa 8 - ^
STACK CFI 21850 .cfa: $rsp 8 +
STACK CFI INIT 21860 7f .cfa: $rsp .ra: .cfa 8 - ^
STACK CFI 21860 .cfa: $rsp 64 +
STACK CFI INIT 218e0 92 .cfa: $rsp .ra: .cfa 8 - ^
STACK CFI 218e0 .cfa: $rsp 64 +
STACK CFI INIT 21980 2f .cfa: $rsp .ra: .cfa 8 - ^
STACK CFI 21980 .cfa: $rsp 8 +
STACK CFI INIT 219b0 52 .cfa: $rsp .ra: .cfa 8 - ^
STACK CFI 219b0 .cfa: $rsp 96 +
STACK CFI INIT 21a10 d6 .cfa: $rsp .ra: .cfa 8 - ^
STACK CFI 21a10 .cfa: $rsp 80 +
STACK CFI INIT 21af0 3d6 .cfa: $rsp .ra: .cfa 8 - ^
STACK CFI 21af0 .cfa: $rsp 144 +
STACK CFI INIT 21ed0 13 .cfa: $rsp .ra: .cfa 8 - ^
STACK CFI 21ed0 .cfa: $rsp 8 +
STACK CFI INIT 21ef0 2d .cfa: $rsp .ra: .cfa 8 - ^
STACK CFI 21ef0 .cfa: $rsp 48 +
STACK CFI INIT 21f20 269 .cfa: $rsp .ra: .cfa 8 - ^
STACK CFI 21f20 .cfa: $rsp 128 +
STACK CFI INIT 22190 98 .cfa: $rsp .ra: .cfa 8 - ^
STACK CFI 22190 .cfa: $rsp 64 +
STACK CFI INIT 22230 5 .cfa: $rsp .ra: .cfa 8 - ^
STACK CFI 22230 .cfa: $rsp 8 +
STACK CFI INIT 22240 b .cfa: $rsp .ra: .cfa 8 - ^
STACK CFI 22240 .cfa: $rsp 8 +
STACK CFI INIT 22250 55 .cfa: $rsp .ra: .cfa 8 - ^
STACK CFI 22250 .cfa: $rsp 96 +
STACK CFI INIT 222b0 339 .cfa: $rsp .ra: .cfa 8 - ^
STACK CFI 222b0 .cfa: $rsp 208 +
STACK CFI INIT 225f0 4e .cfa: $rsp .ra: .cfa 8 - ^
STACK CFI 225f0 .cfa: $rsp 96 +
STACK CFI INIT 22640 45 .cfa: $rsp .ra: .cfa 8 - ^
STACK CFI 22640 .cfa: $rsp 80 +
STACK CFI INIT 22690 878 .cfa: $rsp .ra: .cfa 8 - ^
STACK CFI 22690 .cfa: $rsp 240 +
STACK CFI INIT 22f10 63a .cfa: $rsp .ra: .cfa 8 - ^
STACK CFI 22f10 .cfa: $rsp 304 +
STACK CFI INIT 23550 ab .cfa: $rsp .ra: .cfa 8 - ^
STACK CFI 23550 .cfa: $rsp 80 +
STACK CFI INIT 23600 3e .cfa: $rsp .ra: .cfa 8 - ^
STACK CFI 23600 .cfa: $rsp 64 +
STACK CFI INIT 23640 bb .cfa: $rsp .ra: .cfa 8 - ^
STACK CFI 23640 .cfa: $rsp 64 +
STACK CFI INIT 23700 11a .cfa: $rsp .ra: .cfa 8 - ^
STACK CFI 23700 .cfa: $rsp 80 +
STACK CFI INIT 23820 148 .cfa: $rsp .ra: .cfa 8 - ^
STACK CFI 23820 .cfa: $rsp 112 +
STACK CFI INIT 23970 3d9 .cfa: $rsp .ra: .cfa 8 - ^
STACK CFI 23970 .cfa: $rsp 160 +
STACK CFI INIT 23d50 789 .cfa: $rsp .ra: .cfa 8 - ^
STACK CFI 23d50 .cfa: $rsp 272 +
STACK CFI INIT 244e0 2aac .cfa: $rsp .ra: .cfa 8 - ^
STACK CFI 244e0 .cfa: $rsp 496 +
STACK CFI INIT 26f90 102 .cfa: $rsp .ra: .cfa 8 - ^
STACK CFI 26f90 .cfa: $rsp 128 +
STACK CFI INIT 270a0 c2 .cfa: $rsp .ra: .cfa 8 - ^
STACK CFI 270a0 .cfa: $rsp 80 +
STACK CFI INIT 27170 5 .cfa: $rsp .ra: .cfa 8 - ^
STACK CFI 27170 .cfa: $rsp 8 +
STACK CFI INIT 27180 1a .cfa: $rsp .ra: .cfa 8 - ^
STACK CFI 27180 .cfa: $rsp 8 +
STACK CFI INIT 271a0 2d .cfa: $rsp .ra: .cfa 8 - ^
STACK CFI 271a0 .cfa: $rsp 64 +
STACK CFI INIT 271d0 44 .cfa: $rsp .ra: .cfa 8 - ^
STACK CFI 271d0 .cfa: $rsp 80 +
STACK CFI INIT 27220 c6 .cfa: $rsp .ra: .cfa 8 - ^
STACK CFI 27220 .cfa: $rsp 96 +
STACK CFI INIT 272f0 60 .cfa: $rsp .ra: .cfa 8 - ^
STACK CFI 272f0 .cfa: $rsp 8 +
STACK CFI INIT 27350 47 .cfa: $rsp .ra: .cfa 8 - ^
STACK CFI 27350 .cfa: $rsp 64 +
STACK CFI INIT 273a0 5c .cfa: $rsp .ra: .cfa 8 - ^
STACK CFI 273a0 .cfa: $rsp 80 +
STACK CFI INIT 27400 1 .cfa: $rsp .ra: .cfa 8 - ^
STACK CFI 27400 .cfa: $rsp 8 +
STACK CFI INIT 27410 1a .cfa: $rsp .ra: .cfa 8 - ^
STACK CFI 27410 .cfa: $rsp 8 +
STACK CFI INIT 27430 47 .cfa: $rsp .ra: .cfa 8 - ^
STACK CFI 27430 .cfa: $rsp 64 +
STACK CFI INIT 27480 7 .cfa: $rsp .ra: .cfa 8 - ^
STACK CFI 27480 .cfa: $rsp 8 +
STACK CFI INIT 27490 1 .cfa: $rsp .ra: .cfa 8 - ^
STACK CFI 27490 .cfa: $rsp 8 +
STACK CFI INIT 274a0 1a .cfa: $rsp .ra: .cfa 8 - ^
STACK CFI 274a0 .cfa: $rsp 8 +
STACK CFI INIT 274c0 47 .cfa: $rsp .ra: .cfa 8 - ^
STACK CFI 274c0 .cfa: $rsp 64 +
STACK CFI INIT 27510 7 .cfa: $rsp .ra: .cfa 8 - ^
STACK CFI 27510 .cfa: $rsp 8 +
STACK CFI INIT 27520 1a .cfa: $rsp .ra: .cfa 8 - ^
STACK CFI 27520 .cfa: $rsp 8 +
STACK CFI INIT 27540 3b .cfa: $rsp .ra: .cfa 8 - ^
STACK CFI 27540 .cfa: $rsp 80 +
STACK CFI INIT 27580 30 .cfa: $rsp .ra: .cfa 8 - ^
STACK CFI 27580 .cfa: $rsp 64 +
STACK CFI INIT 275b0 3e .cfa: $rsp .ra: .cfa 8 - ^
STACK CFI 275b0 .cfa: $rsp 80 +
STACK CFI INIT 275f0 39 .cfa: $rsp .ra: .cfa 8 - ^
STACK CFI 275f0 .cfa: $rsp 64 +
STACK CFI INIT 27630 19e .cfa: $rsp .ra: .cfa 8 - ^
STACK CFI 27630 .cfa: $rsp 96 +
STACK CFI INIT 277d0 a3 .cfa: $rsp .ra: .cfa 8 - ^
STACK CFI 277d0 .cfa: $rsp 8 +
STACK CFI INIT 27880 45 .cfa: $rsp .ra: .cfa 8 - ^
STACK CFI 27880 .cfa: $rsp 64 +
STACK CFI INIT 278d0 5c .cfa: $rsp .ra: .cfa 8 - ^
STACK CFI 278d0 .cfa: $rsp 80 +
STACK CFI INIT 27930 1a .cfa: $rsp .ra: .cfa 8 - ^
STACK CFI 27930 .cfa: $rsp 8 +
STACK CFI INIT 27950 23 .cfa: $rsp .ra: .cfa 8 - ^
STACK CFI 27950 .cfa: $rsp 8 +
STACK CFI INIT 27980 45 .cfa: $rsp .ra: .cfa 8 - ^
STACK CFI 27980 .cfa: $rsp 64 +
STACK CFI INIT 279d0 61 .cfa: $rsp .ra: .cfa 8 - ^
STACK CFI 279d0 .cfa: $rsp 80 +
STACK CFI INIT 27fe0 35 .cfa: $rsp .ra: .cfa 8 - ^
STACK CFI 27fe0 .cfa: $rsp 48 +
STACK CFI INIT 28020 66 .cfa: $rsp .ra: .cfa 8 - ^
STACK CFI 28020 .cfa: $rsp 64 +
STACK CFI INIT 28090 1f .cfa: $rsp .ra: .cfa 8 - ^
STACK CFI 28090 .cfa: $rsp 8 +
STACK CFI INIT 280b0 d6 .cfa: $rsp .ra: .cfa 8 - ^
STACK CFI 280b0 .cfa: $rsp 96 +
STACK CFI INIT 28190 f8 .cfa: $rsp .ra: .cfa 8 - ^
STACK CFI 28190 .cfa: $rsp 144 +
STACK CFI INIT 28290 2f .cfa: $rsp .ra: .cfa 8 - ^
STACK CFI 28290 .cfa: $rsp 48 +
STACK CFI INIT 282c0 73 .cfa: $rsp .ra: .cfa 8 - ^
STACK CFI 282c0 .cfa: $rsp 64 +
STACK CFI INIT 28340 3 .cfa: $rsp .ra: .cfa 8 - ^
STACK CFI 28340 .cfa: $rsp 8 +
STACK CFI INIT 28350 4 .cfa: $rsp .ra: .cfa 8 - ^
STACK CFI 28350 .cfa: $rsp 8 +
STACK CFI INIT 28360 4 .cfa: $rsp .ra: .cfa 8 - ^
STACK CFI 28360 .cfa: $rsp 8 +
STACK CFI INIT 28370 1f9 .cfa: $rsp .ra: .cfa 8 - ^
STACK CFI 28370 .cfa: $rsp 128 +
STACK CFI INIT 28570 2bb .cfa: $rsp .ra: .cfa 8 - ^
STACK CFI 28570 .cfa: $rsp 128 +
STACK CFI INIT 28830 1a0 .cfa: $rsp .ra: .cfa 8 - ^
STACK CFI 28830 .cfa: $rsp 48 +
STACK CFI INIT 289d0 ec .cfa: $rsp .ra: .cfa 8 - ^
STACK CFI 289d0 .cfa: $rsp 80 +
STACK CFI INIT 28ac0 1e7 .cfa: $rsp .ra: .cfa 8 - ^
STACK CFI 28ac0 .cfa: $rsp 48 +
STACK CFI INIT 28cb0 6a .cfa: $rsp .ra: .cfa 8 - ^
STACK CFI 28cb0 .cfa: $rsp 80 +
STACK CFI INIT 28d20 7f .cfa: $rsp .ra: .cfa 8 - ^
STACK CFI 28d20 .cfa: $rsp 80 +
STACK CFI INIT 28da0 a0 .cfa: $rsp .ra: .cfa 8 - ^
STACK CFI 28da0 .cfa: $rsp 48 +
STACK CFI INIT 28e40 da .cfa: $rsp .ra: .cfa 8 - ^
STACK CFI 28e40 .cfa: $rsp 48 +
STACK CFI INIT 28f20 1e .cfa: $rsp .ra: .cfa 8 - ^
STACK CFI 28f20 .cfa: $rsp 8 +
STACK CFI INIT 28f40 12 .cfa: $rsp .ra: .cfa 8 - ^
STACK CFI 28f40 .cfa: $rsp 8 +
STACK CFI INIT 28f60 44 .cfa: $rsp .ra: .cfa 8 - ^
STACK CFI 28f60 .cfa: $rsp 8 +
STACK CFI INIT 28fb0 8d .cfa: $rsp .ra: .cfa 8 - ^
STACK CFI 28fb0 .cfa: $rsp 64 +
STACK CFI INIT 29040 74 .cfa: $rsp .ra: .cfa 8 - ^
STACK CFI 29040 .cfa: $rsp 48 +
STACK CFI INIT 290c0 3e .cfa: $rsp .ra: .cfa 8 - ^
STACK CFI 290c0 .cfa: $rsp 48 +
STACK CFI INIT 29100 6f .cfa: $rsp .ra: .cfa 8 - ^
STACK CFI 29100 .cfa: $rsp 48 +
STACK CFI INIT 29170 37 .cfa: $rsp .ra: .cfa 8 - ^
STACK CFI 29170 .cfa: $rsp 48 +
STACK CFI INIT 291b0 91 .cfa: $rsp .ra: .cfa 8 - ^
STACK CFI 291b0 .cfa: $rsp 48 +
STACK CFI INIT 29250 a6 .cfa: $rsp .ra: .cfa 8 - ^
STACK CFI 29250 .cfa: $rsp 48 +
STACK CFI INIT 29300 3 .cfa: $rsp .ra: .cfa 8 - ^
STACK CFI 29300 .cfa: $rsp 8 +
STACK CFI INIT 29350 6 .cfa: $rsp .ra: .cfa 8 - ^
STACK CFI 29350 .cfa: $rsp 8 +
STACK CFI INIT 29360 6 .cfa: $rsp .ra: .cfa 8 - ^
STACK CFI 29360 .cfa: $rsp 8 +
STACK CFI INIT 293e0 25 .cfa: $rsp .ra: .cfa 8 - ^
STACK CFI 293e0 .cfa: $rsp 8 +
STACK CFI INIT 29410 c8 .cfa: $rsp .ra: .cfa 8 - ^
STACK CFI 29410 .cfa: $rsp 80 +
STACK CFI INIT 294e0 6f .cfa: $rsp .ra: .cfa 8 - ^
STACK CFI 294e0 .cfa: $rsp 64 +
STACK CFI INIT 29550 1f .cfa: $rsp .ra: .cfa 8 - ^
STACK CFI 29550 .cfa: $rsp 48 +
STACK CFI INIT 29640 1 .cfa: $rsp .ra: .cfa 8 - ^
STACK CFI 29640 .cfa: $rsp 8 +
STACK CFI INIT 29650 1 .cfa: $rsp .ra: .cfa 8 - ^
STACK CFI 29650 .cfa: $rsp 8 +
STACK CFI INIT 29660 3 .cfa: $rsp .ra: .cfa 8 - ^
STACK CFI 29660 .cfa: $rsp 8 +
STACK CFI INIT 29670 1 .cfa: $rsp .ra: .cfa 8 - ^
STACK CFI 29670 .cfa: $rsp 8 +
STACK CFI INIT 29680 1 .cfa: $rsp .ra: .cfa 8 - ^
STACK CFI 29680 .cfa: $rsp 8 +
STACK CFI INIT 29690 29 .cfa: $rsp .ra: .cfa 8 - ^
STACK CFI 29690 .cfa: $rsp 48 +
STACK CFI INIT 296c0 f .cfa: $rsp .ra: .cfa 8 - ^
STACK CFI 296c0 .cfa: $rsp 8 +
STACK CFI INIT 296d0 3 .cfa: $rsp .ra: .cfa 8 - ^
STACK CFI 296d0 .cfa: $rsp 8 +
STACK CFI INIT 296e0 3 .cfa: $rsp .ra: .cfa 8 - ^
STACK CFI 296e0 .cfa: $rsp 8 +
STACK CFI INIT 296f0 1 .cfa: $rsp .ra: .cfa 8 - ^
STACK CFI 296f0 .cfa: $rsp 8 +
STACK CFI INIT 29700 1 .cfa: $rsp .ra: .cfa 8 - ^
STACK CFI 29700 .cfa: $rsp 8 +
STACK CFI INIT 29710 3 .cfa: $rsp .ra: .cfa 8 - ^
STACK CFI 29710 .cfa: $rsp 8 +
STACK CFI INIT 29720 12 .cfa: $rsp .ra: .cfa 8 - ^
STACK CFI 29720 .cfa: $rsp 8 +
STACK CFI INIT 29740 3 .cfa: $rsp .ra: .cfa 8 - ^
STACK CFI 29740 .cfa: $rsp 8 +
STACK CFI INIT 29750 6 .cfa: $rsp .ra: .cfa 8 - ^
STACK CFI 29750 .cfa: $rsp 8 +
STACK CFI INIT 29760 3 .cfa: $rsp .ra: .cfa 8 - ^
STACK CFI 29760 .cfa: $rsp 8 +
STACK CFI INIT 29770 3 .cfa: $rsp .ra: .cfa 8 - ^
STACK CFI 29770 .cfa: $rsp 8 +
STACK CFI INIT 29780 1 .cfa: $rsp .ra: .cfa 8 - ^
STACK CFI 29780 .cfa: $rsp 8 +
STACK CFI INIT 29790 3 .cfa: $rsp .ra: .cfa 8 - ^
STACK CFI 29790 .cfa: $rsp 8 +
STACK CFI INIT 297a0 3 .cfa: $rsp .ra: .cfa 8 - ^
STACK CFI 297a0 .cfa: $rsp 8 +
STACK CFI INIT 297b0 1 .cfa: $rsp .ra: .cfa 8 - ^
STACK CFI 297b0 .cfa: $rsp 8 +
STACK CFI INIT 297c0 1 .cfa: $rsp .ra: .cfa 8 - ^
STACK CFI 297c0 .cfa: $rsp 8 +
STACK CFI INIT 297d0 1 .cfa: $rsp .ra: .cfa 8 - ^
STACK CFI 297d0 .cfa: $rsp 8 +
STACK CFI INIT 297e0 3 .cfa: $rsp .ra: .cfa 8 - ^
STACK CFI 297e0 .cfa: $rsp 8 +
STACK CFI INIT 297f0 1 .cfa: $rsp .ra: .cfa 8 - ^
STACK CFI 297f0 .cfa: $rsp 8 +
STACK CFI INIT 29800 1 .cfa: $rsp .ra: .cfa 8 - ^
STACK CFI 29800 .cfa: $rsp 8 +
STACK CFI INIT 29810 29 .cfa: $rsp .ra: .cfa 8 - ^
STACK CFI 29810 .cfa: $rsp 48 +
STACK CFI INIT 29840 f .cfa: $rsp .ra: .cfa 8 - ^
STACK CFI 29840 .cfa: $rsp 8 +
STACK CFI INIT 29850 97 .cfa: $rsp .ra: .cfa 8 - ^
STACK CFI 29850 .cfa: $rsp 80 +
STACK CFI INIT 298f0 36 .cfa: $rsp .ra: .cfa 8 - ^
STACK CFI 298f0 .cfa: $rsp 48 +
STACK CFI INIT 29930 2a .cfa: $rsp .ra: .cfa 8 - ^
STACK CFI 29930 .cfa: $rsp 48 +
STACK CFI INIT 29960 109 .cfa: $rsp .ra: .cfa 8 - ^
STACK CFI 29960 .cfa: $rsp 80 +
STACK CFI INIT 29a70 1e6 .cfa: $rsp .ra: .cfa 8 - ^
STACK CFI 29a70 .cfa: $rsp 48 +
STACK CFI INIT 29c60 1f6 .cfa: $rsp .ra: .cfa 8 - ^
STACK CFI 29c60 .cfa: $rsp 48 +
STACK CFI INIT 29e60 29 .cfa: $rsp .ra: .cfa 8 - ^
STACK CFI 29e60 .cfa: $rsp 48 +
STACK CFI INIT 29e90 f .cfa: $rsp .ra: .cfa 8 - ^
STACK CFI 29e90 .cfa: $rsp 8 +
STACK CFI INIT 29ea0 a0 .cfa: $rsp .ra: .cfa 8 - ^
STACK CFI 29ea0 .cfa: $rsp 80 +
STACK CFI INIT 29f40 216 .cfa: $rsp .ra: .cfa 8 - ^
STACK CFI 29f40 .cfa: $rsp 48 +
STACK CFI INIT 2a160 229 .cfa: $rsp .ra: .cfa 8 - ^
STACK CFI 2a160 .cfa: $rsp 48 +
STACK CFI INIT 2a390 5e .cfa: $rsp .ra: .cfa 8 - ^
STACK CFI 2a390 .cfa: $rsp 48 +
STACK CFI INIT 2a3f0 5c .cfa: $rsp .ra: .cfa 8 - ^
STACK CFI 2a3f0 .cfa: $rsp 48 +
STACK CFI INIT 2a450 1776 .cfa: $rsp .ra: .cfa 8 - ^
STACK CFI 2a450 .cfa: $rsp 128 +
STACK CFI INIT 2bbd0 bc6 .cfa: $rsp .ra: .cfa 8 - ^
STACK CFI 2bbd0 .cfa: $rsp 128 +
STACK CFI INIT 2c7a0 149 .cfa: $rsp .ra: .cfa 8 - ^
STACK CFI 2c7a0 .cfa: $rsp 96 +
STACK CFI INIT 2c8f0 21b .cfa: $rsp .ra: .cfa 8 - ^
STACK CFI 2c8f0 .cfa: $rsp 160 +
STACK CFI INIT 2cb10 89 .cfa: $rsp .ra: .cfa 8 - ^
STACK CFI 2cb10 .cfa: $rsp 64 +
STACK CFI INIT 2cba0 4b .cfa: $rsp .ra: .cfa 8 - ^
STACK CFI 2cba0 .cfa: $rsp 48 +
STACK CFI INIT 2cbf0 37 .cfa: $rsp .ra: .cfa 8 - ^
STACK CFI 2cbf0 .cfa: $rsp 8 +
STACK CFI INIT 2cc30 13a .cfa: $rsp .ra: .cfa 8 - ^
STACK CFI 2cc30 .cfa: $rsp 96 +
STACK CFI INIT 2cd70 4b .cfa: $rsp .ra: .cfa 8 - ^
STACK CFI 2cd70 .cfa: $rsp 48 +
STACK CFI INIT 2cdc0 40 .cfa: $rsp .ra: .cfa 8 - ^
STACK CFI 2cdc0 .cfa: $rsp 8 +
STACK CFI INIT 2ce00 4b .cfa: $rsp .ra: .cfa 8 - ^
STACK CFI 2ce00 .cfa: $rsp 48 +
STACK CFI INIT 2ce50 44 .cfa: $rsp .ra: .cfa 8 - ^
STACK CFI 2ce50 .cfa: $rsp 8 +
STACK CFI INIT 2cea0 39 .cfa: $rsp .ra: .cfa 8 - ^
STACK CFI 2cea0 .cfa: $rsp 8 +
STACK CFI INIT 2cee0 3e .cfa: $rsp .ra: .cfa 8 - ^
STACK CFI 2cee0 .cfa: $rsp 8 +
STACK CFI INIT 2cf20 39 .cfa: $rsp .ra: .cfa 8 - ^
STACK CFI 2cf20 .cfa: $rsp 8 +
STACK CFI INIT 2cf60 3c .cfa: $rsp .ra: .cfa 8 - ^
STACK CFI 2cf60 .cfa: $rsp 8 +
STACK CFI INIT 2cfa0 1 .cfa: $rsp .ra: .cfa 8 - ^
STACK CFI 2cfa0 .cfa: $rsp 8 +
STACK CFI INIT 2cfb0 1a .cfa: $rsp .ra: .cfa 8 - ^
STACK CFI 2cfb0 .cfa: $rsp 8 +
STACK CFI INIT 2cfd0 b .cfa: $rsp .ra: .cfa 8 - ^
STACK CFI 2cfd0 .cfa: $rsp 8 +
STACK CFI INIT 2cfe0 25 .cfa: $rsp .ra: .cfa 8 - ^
STACK CFI 2cfe0 .cfa: $rsp 8 +
STACK CFI INIT 2d010 11a .cfa: $rsp .ra: .cfa 8 - ^
STACK CFI 2d010 .cfa: $rsp 64 +
STACK CFI INIT 2d130 76 .cfa: $rsp .ra: .cfa 8 - ^
STACK CFI 2d130 .cfa: $rsp 48 +
STACK CFI INIT 2d1b0 1d .cfa: $rsp .ra: .cfa 8 - ^
STACK CFI 2d1b0 .cfa: $rsp 8 +
STACK CFI INIT 2d1d0 8b .cfa: $rsp .ra: .cfa 8 - ^
STACK CFI 2d1d0 .cfa: $rsp 80 +
STACK CFI INIT 2d260 100 .cfa: $rsp .ra: .cfa 8 - ^
STACK CFI 2d260 .cfa: $rsp 80 +
STACK CFI INIT 2d360 41 .cfa: $rsp .ra: .cfa 8 - ^
STACK CFI 2d360 .cfa: $rsp 48 +
STACK CFI INIT 2d3b0 a1 .cfa: $rsp .ra: .cfa 8 - ^
STACK CFI 2d3b0 .cfa: $rsp 64 +
STACK CFI INIT 2d460 75 .cfa: $rsp .ra: .cfa 8 - ^
STACK CFI 2d460 .cfa: $rsp 64 +
STACK CFI INIT 2d4e0 1f .cfa: $rsp .ra: .cfa 8 - ^
STACK CFI 2d4e0 .cfa: $rsp 8 +
STACK CFI INIT 2d500 2a .cfa: $rsp .ra: .cfa 8 - ^
STACK CFI 2d500 .cfa: $rsp 8 +
STACK CFI INIT 2d530 379 .cfa: $rsp .ra: .cfa 8 - ^
STACK CFI 2d530 .cfa: $rsp 128 +
STACK CFI INIT 2d8b0 24 .cfa: $rsp .ra: .cfa 8 - ^
STACK CFI 2d8b0 .cfa: $rsp 8 +
STACK CFI INIT 2d8e0 216 .cfa: $rsp .ra: .cfa 8 - ^
STACK CFI 2d8e0 .cfa: $rsp 96 +
STACK CFI INIT 2db00 2be .cfa: $rsp .ra: .cfa 8 - ^
STACK CFI 2db00 .cfa: $rsp 128 +
STACK CFI INIT 2ddc0 24 .cfa: $rsp .ra: .cfa 8 - ^
STACK CFI 2ddc0 .cfa: $rsp 8 +
STACK CFI INIT 2ddf0 486 .cfa: $rsp .ra: .cfa 8 - ^
STACK CFI 2ddf0 .cfa: $rsp 112 +
STACK CFI INIT 2e280 499 .cfa: $rsp .ra: .cfa 8 - ^
STACK CFI 2e280 .cfa: $rsp 128 +
STACK CFI INIT 2e720 24 .cfa: $rsp .ra: .cfa 8 - ^
STACK CFI 2e720 .cfa: $rsp 8 +
STACK CFI INIT 2e750 1c7 .cfa: $rsp .ra: .cfa 8 - ^
STACK CFI 2e750 .cfa: $rsp 112 +
STACK CFI INIT 2e920 168 .cfa: $rsp .ra: .cfa 8 - ^
STACK CFI 2e920 .cfa: $rsp 128 +
STACK CFI INIT 2ea90 e1 .cfa: $rsp .ra: .cfa 8 - ^
STACK CFI 2ea90 .cfa: $rsp 112 +
STACK CFI INIT 2eb80 1b6 .cfa: $rsp .ra: .cfa 8 - ^
STACK CFI 2eb80 .cfa: $rsp 176 +
STACK CFI INIT 2ed40 140 .cfa: $rsp .ra: .cfa 8 - ^
STACK CFI 2ed40 .cfa: $rsp 80 +
STACK CFI INIT 2ee80 92 .cfa: $rsp .ra: .cfa 8 - ^
STACK CFI 2ee80 .cfa: $rsp 64 +
STACK CFI INIT 2ef20 69 .cfa: $rsp .ra: .cfa 8 - ^
STACK CFI 2ef20 .cfa: $rsp 64 +
STACK CFI INIT 2ef90 67 .cfa: $rsp .ra: .cfa 8 - ^
STACK CFI 2ef90 .cfa: $rsp 64 +
STACK CFI INIT 2f000 37 .cfa: $rsp .ra: .cfa 8 - ^
STACK CFI 2f000 .cfa: $rsp 48 +
STACK CFI INIT 2f040 18 .cfa: $rsp .ra: .cfa 8 - ^
STACK CFI 2f040 .cfa: $rsp 8 +
STACK CFI INIT 2f060 3 .cfa: $rsp .ra: .cfa 8 - ^
STACK CFI 2f060 .cfa: $rsp 8 +
STACK CFI INIT 2f070 153 .cfa: $rsp .ra: .cfa 8 - ^
STACK CFI 2f070 .cfa: $rsp 144 +
STACK CFI INIT 2f1d0 c2 .cfa: $rsp .ra: .cfa 8 - ^
STACK CFI 2f1d0 .cfa: $rsp 96 +
STACK CFI INIT 2f2a0 66 .cfa: $rsp .ra: .cfa 8 - ^
STACK CFI 2f2a0 .cfa: $rsp 64 +
STACK CFI INIT 2f310 6e .cfa: $rsp .ra: .cfa 8 - ^
STACK CFI 2f310 .cfa: $rsp 80 +
STACK CFI INIT 2f380 6e .cfa: $rsp .ra: .cfa 8 - ^
STACK CFI 2f380 .cfa: $rsp 80 +
STACK CFI INIT 2f3f0 6e .cfa: $rsp .ra: .cfa 8 - ^
STACK CFI 2f3f0 .cfa: $rsp 80 +
STACK CFI INIT 2f460 6e .cfa: $rsp .ra: .cfa 8 - ^
STACK CFI 2f460 .cfa: $rsp 80 +
STACK CFI INIT 2f4d0 66 .cfa: $rsp .ra: .cfa 8 - ^
STACK CFI 2f4d0 .cfa: $rsp 64 +
STACK CFI INIT 2f540 6e .cfa: $rsp .ra: .cfa 8 - ^
STACK CFI 2f540 .cfa: $rsp 80 +
STACK CFI INIT 2f5b0 7a .cfa: $rsp .ra: .cfa 8 - ^
STACK CFI 2f5b0 .cfa: $rsp 16 +
STACK CFI INIT 2f630 7a .cfa: $rsp .ra: .cfa 8 - ^
STACK CFI 2f630 .cfa: $rsp 16 +
STACK CFI INIT 2f6b0 f9 .cfa: $rsp .ra: .cfa 8 - ^
STACK CFI 2f6b0 .cfa: $rsp 96 +
STACK CFI INIT 2f7b0 ea .cfa: $rsp .ra: .cfa 8 - ^
STACK CFI 2f7b0 .cfa: $rsp 80 +
STACK CFI INIT 2f8a0 ca .cfa: $rsp .ra: .cfa 8 - ^
STACK CFI 2f8a0 .cfa: $rsp 80 +
STACK CFI INIT 2f970 fc .cfa: $rsp .ra: .cfa 8 - ^
STACK CFI 2f970 .cfa: $rsp 64 +
STACK CFI INIT 2fa70 f .cfa: $rsp .ra: .cfa 8 - ^
STACK CFI 2fa70 .cfa: $rsp 8 +
STACK CFI INIT 2fa80 f .cfa: $rsp .ra: .cfa 8 - ^
STACK CFI 2fa80 .cfa: $rsp 8 +
STACK CFI INIT 2fa90 f .cfa: $rsp .ra: .cfa 8 - ^
STACK CFI 2fa90 .cfa: $rsp 8 +
STACK CFI INIT 2faa0 69 .cfa: $rsp .ra: .cfa 8 - ^
STACK CFI 2faa0 .cfa: $rsp 80 +
STACK CFI INIT 2fb10 5 .cfa: $rsp .ra: .cfa 8 - ^
STACK CFI 2fb10 .cfa: $rsp 8 +
