MODULE windows x86_64 7C87973AA0E647AA945AD2CDE9A30B631 Qt5Network.pdb
INFO CODE_ID 5C53FC2F199000 Qt5Network.dll
FUNC 1000 c 0 pre_c_init
FUNC 1200 12b 0 _DllMainCRTStartup
FUNC 1330 4f 0 DllMainCRTStartup
FUNC 1380 f 0 atexit
FUNC 1510 2f6 0 proxyAuthenticationKey
FUNC 1810 5 0 clearCache
FUNC 1ec0 6d8 0 fetchCachedCredentials
FUNC 25a0 9de 0 cacheProxyCredentials
FUNC 2f80 1039 0 cacheCredentials
FUNC 3fc0 1a 0 metaObject
FUNC 41e0 41 0 _tcf_1
FUNC 4230 41 0 _tcf_0
FUNC 4510 21 0 proxy
FUNC 4540 40 0 setProxy
FUNC 4580 c 0 proxyFactory
FUNC 4590 5b 0 setProxyFactory
FUNC 45f0 9 0 cache
FUNC 4600 4a 0 setCache
FUNC 4650 5c 0 cookieJar
FUNC 46b0 9f 0 setCookieJar
FUNC 4750 b 0 setStrictTransportSecurityEnabled
FUNC 4770 10 0 addStrictTransportSecurityHosts
FUNC 4780 21 0 strictTransportSecurityHosts
FUNC 47b0 dc 0 getNetworkSession
FUNC 4890 d5 0 getNetworkSession
FUNC 4970 76 0 configuration
FUNC 49f0 137 0 activeConfiguration
FUNC 4b30 cc 0 networkAccessible
FUNC 4c00 85 0 setNetworkAccessible
FUNC 4c90 b 0 setRedirectPolicy
FUNC 4cb0 1c8 0 supportedSchemes
FUNC 4f50 61 0 q_replyEncrypted
FUNC 4fc0 6b 0 q_replySslErrors
FUNC 5030 75 0 q_replyPreSharedKeyAuthenticationRequired
FUNC 50b0 12a 0 postProcess
FUNC 51e0 2a 0 head
FUNC 5210 2a 0 get
FUNC 5240 c4 0 connectToHost
FUNC 5310 2a 0 post
FUNC 5340 6c 0 post
FUNC 53b0 2a 0 put
FUNC 53e0 6c 0 put
FUNC 5450 2a 0 deleteResource
FUNC 5480 86 0 sendCustomRequest
FUNC 5510 76 0 sendCustomRequest
FUNC 55f0 4c6 0 authenticationRequired
FUNC 5ac0 288 0 proxyAuthenticationRequired
FUNC 5d60 a7 0 createThread
FUNC 5e10 a0 0 destroyThread
FUNC 5ee0 26 0 clearConnectionCache
FUNC 5f10 36 0 clearAccessCache
FUNC 5f50 18d 0 q_networkSessionClosed
FUNC 60e0 244 0 q_networkSessionStateChanged
FUNC 6330 40a 0 createSession
FUNC 6740 31 0 setConfiguration
FUNC 6780 114 0 q_onlineStateChanged
FUNC 68a0 b8 0 q_networkSessionFailed
FUNC 6960 12b 0 supportedSchemesImplementation
FUNC 6a90 363 0 prepareMultipart
FUNC 6e00 50 0 post
FUNC 6e50 50 0 put
FUNC 6ea0 55 0 sendCustomRequest
FUNC 6f00 26f 0 _tcf_4
FUNC 7d40 402 0 _tcf_3
FUNC 8150 226 0 queryProxy
FUNC 8380 2d6 0 q_configurationChanged
FUNC 8660 6fd 0 qt_static_metacall
FUNC 8d60 f95 0 createRequest
FUNC 9d00 2bc 0 _tcf_5
FUNC 9fc0 280 0 connectToHostEncrypted
FUNC bab0 47 0 qt_metacast
FUNC bb00 cc 0 qt_metacall
FUNC bce0 b0 0 detach_helper
FUNC bf10 4 0 setExpires
FUNC bf20 4 0 setShareable
FUNC bf80 259 0 clear
FUNC c280 6e 0 updateTimer
FUNC c2f0 99 0 emitEntryReady
FUNC c390 24 0 hasEntry
FUNC c3c0 9c 0 timerEvent
FUNC c460 ca 0 unlinkEntry
FUNC c530 aa 0 requestEntryNow
FUNC c5e0 d6 0 linkEntry
FUNC c6c0 2cd 0 releaseEntry
FUNC c990 27d 0 requestEntry
FUNC cc10 12b 0 removeEntry
FUNC cd40 2a9 0 addEntry
FUNC d100 87 0 _tcf_0
FUNC d190 1bd 0 _tcf_2
FUNC d5c0 1ed 0 createUploadByteDevice
FUNC d7b0 15 0 emitReplyUploadProgress
FUNC d8a0 1 0 downstreamReadyWrite
FUNC d8b0 1 0 setDownstreamLimited
FUNC d8c0 1 0 copyFinished
FUNC d8d0 16 0 fetchCacheMetaData
FUNC d8f0 b 0 operation
FUNC d900 21 0 request
FUNC d930 99 0 proxyList
FUNC d9d0 13 0 networkCache
FUNC d9f0 c 0 setCachingEnabled
FUNC da00 9 0 isCachingEnabled
FUNC da10 9 0 nextDownstreamBlockSize
FUNC da20 9 0 writeDownstreamData
FUNC da30 9 0 writeDownstreamData
FUNC da40 9 0 writeDownstreamDataDownloadBuffer
FUNC da50 9 0 getDownloadBuffer
FUNC da60 1e 0 header
FUNC da80 10 0 setHeader
FUNC da90 d 0 hasRawHeader
FUNC daa0 1e 0 rawHeader
FUNC dac0 1e 0 rawHeaderList
FUNC dae0 10 0 setRawHeader
FUNC daf0 1e 0 attribute
FUNC db40 12 0 setUrl
FUNC db60 9 0 finished
FUNC db70 9 0 error
FUNC db80 66 0 proxyAuthenticationRequired
FUNC dbf0 42 0 authenticationRequired
FUNC dc40 9 0 metaDataChanged
FUNC dc50 9 0 redirectionRequested
FUNC dc60 9 0 encrypted
FUNC dc70 9 0 sslErrors
FUNC e210 15f 0 setAttribute
FUNC e370 6d8 0 start
FUNC ee70 1f3 0 loadFileInfo
FUNC f070 b6 0 supportedSchemes
FUNC f130 4b6 0 readMoreFromFile
FUNC f5f0 5 0 downstreamReadyWrite
FUNC f670 965 0 open
FUNC ffe0 256 0 uploadReadyReadSlot
FUNC 10240 30 0 closeDownstreamChannel
FUNC 102e0 605 0 sendCacheContents
FUNC 108f0 191 0 open
FUNC 10aa0 3c 0 nextNonWhitespace
FUNC 10ae0 b7 0 checkStaticArray
FUNC 10ba0 375 0 nextField
FUNC 112a0 196 0 operator=
FUNC 11440 145 0 operator==
FUNC 11590 74 0 hasSameIdentifier
FUNC 11650 1e 0 expirationDate
FUNC 11670 26 0 domain
FUNC 116a0 26 0 path
FUNC 11700 26 0 value
FUNC 11730 4d4 0 toRawForm
FUNC 11c10 190 0 operator<<
FUNC 11da0 2bc 0 _tcf_1
FUNC 12610 2e3 0 normalize
FUNC 12900 1ebb 0 parseSetCookieHeaderLine
FUNC 147c0 124 0 parseCookies
FUNC 14a00 9f 0 setCookiesFromUrl
FUNC 14ae0 281 0 validateCookie
FUNC 14d70 1e 0 allCookies
FUNC 14d90 42 0 setAllCookies
FUNC 14de0 b7 0 insertCookie
FUNC 14ea0 109 0 deleteCookie
FUNC 14fb0 681 0 cookiesForUrl
FUNC 15960 1e 0 url
FUNC 15980 58 0 sslConfiguration
FUNC 159e0 23 0 originatingObject
FUNC 15a10 7 0 priority
FUNC 15a20 7 0 maximumRedirectsAllowed
FUNC 15a30 81 0 findRawHeader
FUNC 15ac0 34 0 hasRawHeader
FUNC 15b00 7e 0 rawHeader
FUNC 15b80 3fa 0 fromHttpDate
FUNC 15f80 df 0 toHttpDate
FUNC 16060 117 0 operator=
FUNC 163c0 16 0 allRawHeaders
FUNC 163e0 65 0 header
FUNC 16450 69 0 attribute
FUNC 164c0 469 0 setRawHeaderInternal
FUNC 16930 199 0 rawHeadersKeys
FUNC 16ad0 1d 0 rawHeaderList
FUNC 16af0 66 0 operator==
FUNC 16b60 36 0 setMaximumRedirectsAllowed
FUNC 16ba0 36 0 setPriority
FUNC 16be0 55 0 setUrl
FUNC 16c40 6a 0 setOriginatingObject
FUNC 16cb0 9d 0 setSslConfiguration
FUNC 16e90 19f 0 setAttribute
FUNC 17030 2bc 0 _tcf_1
FUNC 172f0 afc 0 parseAndSetHeader
FUNC 17df0 6d 0 setRawHeader
FUNC 17e60 ee 0 setAllRawHeaders
FUNC 17f90 1222 0 setCookedHeader
FUNC 191c0 50 0 setHeader
FUNC 19320 6 0 isSequential
FUNC 19330 c 0 readBufferSize
FUNC 19340 c 0 setReadBufferSize
FUNC 19350 23 0 manager
FUNC 19380 21 0 request
FUNC 193b0 b 0 operation
FUNC 193c0 b 0 error
FUNC 193e0 f 0 isRunning
FUNC 193f0 22 0 url
FUNC 19420 95 0 header
FUNC 194c0 3b 0 hasRawHeader
FUNC 19500 82 0 rawHeader
FUNC 19590 b 0 rawHeaderPairs
FUNC 195a0 21 0 rawHeaderList
FUNC 195d0 43 0 sslConfiguration
FUNC 19620 23 0 setSslConfiguration
FUNC 19650 23 0 ignoreSslErrors
FUNC 19680 1 0 ignoreSslErrors
FUNC 19690 8 0 writeData
FUNC 196a0 b 0 setOperation
FUNC 196b0 10 0 setRequest
FUNC 196c0 14 0 setError
FUNC 196e0 b 0 setFinished
FUNC 196f0 12 0 setUrl
FUNC 19710 10 0 setHeader
FUNC 19720 10 0 setRawHeader
FUNC 19730 77 0 attribute
FUNC 19a40 15f 0 setAttribute
FUNC 19ba0 7 0 close
FUNC 19bb0 21 0 sslConfigurationImplementation
FUNC 19be0 21 0 ignoreSslErrors
FUNC 19c10 21 0 ignoreSslErrorsImplementation
FUNC 19c40 1 0 qt_static_metacall
FUNC 19c50 3f 0 bytesAvailable
FUNC 19c90 11 0 downloadBufferDeleter
FUNC 19cf0 47 0 setSslConfigurationImplementation
FUNC 19d40 1a 0 metaObject
FUNC 19d60 1a 0 metaObject
FUNC 19ec0 20b 0 q_bufferOutgoingDataFinished
FUNC 1a0d0 1bf 0 q_bufferOutgoingData
FUNC 1a2a0 61 0 resumeNotificationHandling
FUNC 1a330 82 0 createCache
FUNC 1a5b0 ab 0 emitUploadProgress
FUNC 1aa70 3e 0 appendDownstreamData
FUNC 1aab0 1e4 0 getDownloadBuffer
FUNC 1aca0 15c 0 setDownloadBuffer
FUNC 1ae00 f4 0 appendDownstreamDataDownloadBuffer
FUNC 1af90 1df 0 redirectionRequested
FUNC 1b170 9 0 encrypted
FUNC 1b180 9 0 sslErrors
FUNC 1be40 b2 0 backendNotify
FUNC 1bf00 8c 0 setReadBufferSize
FUNC 1bf90 98 0 readData
FUNC 1c030 2f1 0 q_copyReadyRead
FUNC 1c340 fb 0 appendDownstreamData
FUNC 1c440 1a1 0 appendDownstreamDataSignalEmissions
FUNC 1c5f0 22b 0 appendDownstreamData
FUNC 1d040 113 0 abort
FUNC 1d160 c8 0 close
FUNC 1d230 3a7 0 metaDataChanged
FUNC 1d5e0 2bc 0 _tcf_1
FUNC 1d8a0 20a 0 handleNotifications
FUNC 1e0f0 68e 0 setup
FUNC 1e9e0 33 0 event
FUNC 1ea20 45 0 qt_metacast
FUNC 1ea70 45 0 qt_metacast
FUNC 1eac0 77 0 qt_metacall
FUNC 1eb40 5 0 qt_metacall
FUNC 1eb50 6 0 isSequential
FUNC 1eb60 1 0 qt_static_metacall
FUNC 1ebb0 12 0 readData
FUNC 1ebd0 1a 0 metaObject
FUNC 1fe80 5 0 abort
FUNC 1fe90 2b 0 bytesAvailable
FUNC 1fec0 12 0 size
FUNC 1fee0 45 0 qt_metacast
FUNC 1ff30 5 0 qt_metacall
FUNC 1ff40 7 0 abort
FUNC 1ff50 6 0 isSequential
FUNC 201f0 4c 0 size
FUNC 203d0 1a 0 metaObject
FUNC 224b0 56 0 fileOpenFinished
FUNC 22870 45 0 qt_metacast
FUNC 228c0 5f 0 qt_metacall
FUNC 22b20 156 0 operator==
FUNC 22c80 1fe 0 isValid
FUNC 23030 90 0 _tcf_0
FUNC 23180 cd 0 operator=
FUNC 23270 249 0 save
FUNC 234c0 16 0 operator<<
FUNC 234e0 38 0 setSaveToDisk
FUNC 23520 55 0 setLastModified
FUNC 23580 55 0 setExpirationDate
FUNC 235e0 64 0 setRawHeaders
FUNC 23650 a5 0 setAttributes
FUNC 23700 14a 0 setUrl
FUNC 23850 434 0 load
FUNC 23c90 16 0 operator>>
FUNC 23d10 416 0 open
FUNC 24130 7 0 close
FUNC 24140 76 0 isTOKEN
FUNC 24250 1cd 0 processDirective
FUNC 24420 297 0 nextToken
FUNC 248a0 aa 0 parseSTSHeader
FUNC 24a60 fa 0 policies
FUNC 24b60 27c 0 isKnownHost
FUNC 24de0 17c 0 updateKnownHost
FUNC 24f60 183 0 updateFromHeaders
FUNC 250f0 ec 0 updateFromPolicies
FUNC 251e0 91 0 updateKnownHost
FUNC 25280 2040 0 clear
FUNC 272c0 fa 0 operator==
FUNC 274c0 71 0 operator=
FUNC 27540 1e 0 host
FUNC 27560 1e 0 expiry
FUNC 27580 8 0 includesSubDomains
FUNC 27590 56 0 isExpired
FUNC 275f0 38 0 setIncludesSubDomains
FUNC 27630 55 0 setExpiry
FUNC 27690 5f 0 setHost
FUNC 277e0 1a 0 metaObject
FUNC 27800 1a 0 metaObject
FUNC 27820 1a 0 metaObject
FUNC 27e30 59 0 setBytesTotal
FUNC 27e90 206 0 connectToHost
FUNC 280a0 7a 0 setupListener
FUNC 28120 32 0 waitForConnection
FUNC 281d0 c3 0 read
FUNC 282a0 ad 0 readAll
FUNC 28350 20f 0 writeData
FUNC 28650 d1 0 socketConnectionClosed
FUNC 28730 6f 0 socketBytesWritten
FUNC 28a50 292 0 error
FUNC 28f60 10 0 read
FUNC 28fa0 1e 0 currentId
FUNC 28fe0 27 0 currentDevice
FUNC 29010 18 0 hasPendingCommands
FUNC 29030 b 0 state
FUNC 29040 b 0 error
FUNC 29050 26 0 errorString
FUNC 29080 74 0 q_piFtpReply
FUNC 29220 91 0 clearPendingCommands
FUNC 2a4a0 7c 0 addCommand
FUNC 2a520 c6 0 connectToHost
FUNC 2a5f0 bb 0 close
FUNC 2a6b0 7b 0 setTransferMode
FUNC 2a730 c3 0 setProxy
FUNC 2a800 140 0 rawCommand
FUNC 2a940 228 0 list
FUNC 2ab70 11e 0 cd
FUNC 2ac90 2c6 0 get
FUNC 2af60 326 0 put
FUNC 2b290 366 0 put
FUNC 2b600 11e 0 remove
FUNC 2b720 11e 0 mkdir
FUNC 2b840 11e 0 rmdir
FUNC 2b960 1d6 0 rename
FUNC 2bb40 486 0 login
FUNC 2cad0 bfb 0 processReply
FUNC 2d6d0 11d 0 clearPendingCommands
FUNC 2d8a0 e2 0 connectToHost
FUNC 2d990 7ac 0 q_startNextCommand
FUNC 2e140 194 0 q_piFinished
FUNC 2e390 4e1 0 q_piError
FUNC 2e880 3f7 0 qt_static_metacall
FUNC 2ec80 4e 0 connectionClosed
FUNC 2fda0 186 0 setupSocket
FUNC 2ff30 2fd 0 qt_static_metacall
FUNC 30230 79 0 connected
FUNC 302b0 32d 0 qt_static_metacall
FUNC 305e0 47 0 qt_metacast
FUNC 30630 47 0 qt_metacast
FUNC 30680 47 0 qt_metacast
FUNC 306d0 7a 0 qt_metacall
FUNC 30750 7a 0 qt_metacall
FUNC 307d0 5f 0 qt_metacall
FUNC 308c0 133 0 makeCacheKey
FUNC 30df0 d80 0 ftpDone
FUNC 31b70 1a4 0 ftpConnectionReady
FUNC 31d20 1c6 0 ftpRawCommandReply
FUNC 31ef0 7be 0 open
FUNC 326b0 ca 0 supportedSchemes
FUNC 32780 1a8 0 ftpReadyRead
FUNC 32bd0 52 0 cacheSize
FUNC 32c30 236 0 prepareLayout
FUNC 32e70 268 0 setCacheDirectory
FUNC 33100 db 0 updateMetaData
FUNC 331f0 32 0 setMaximumCacheSize
FUNC 33230 3a 0 clear
FUNC 33270 3aa 0 uniqueFileName
FUNC 33620 91 0 tmpCacheFileName
FUNC 336c0 ee 0 cacheFileName
FUNC 337b0 a2 0 writeCompressedData
FUNC 33860 2a8 0 canCompress
FUNC 33b10 6d 0 writeHeader
FUNC 33db0 278 0 remove
FUNC 34030 285 0 read
FUNC 342c0 306 0 data
FUNC 345d0 a3 0 fileMetaData
FUNC 34680 ba 0 metaData
FUNC 34740 720 0 expire
FUNC 34e60 4f1 0 prepare
FUNC 35360 3e0 0 storeItem
FUNC 35740 1c2 0 insert
FUNC 35930 5 0 bitLength
FUNC 35940 b 0 byteLength
FUNC 35950 7 0 begin
FUNC 35960 8 0 end
FUNC 35970 19 0 clear
FUNC 359e0 13 0 hasMoreBits
FUNC 35a30 18 0 rewindOffset
FUNC 35a50 162 0 read
FUNC 35bc0 187 0 read
FUNC 35d50 4 0 error
FUNC 35d70 71 0 writeBits
FUNC 35df0 9d 0 write
FUNC 35e90 b6 0 write
FUNC 35f50 35 0 _tcf_0
FUNC 361b0 3db 0 __introsort_loop<__gnu_cxx::__normal_iterator<HPack::CodeEntry*, std::vector<HPack::CodeEntry> >, long long int, __gnu_cxx::__ops::_Iter_comp_iter<HPack::HuffmanDecoder::HuffmanDecoder()::<lambda(const HPack::CodeEntry&, const HPack::CodeEntry&)> > >
FUNC 36650 53 0 huffman_encoded_bit_length
FUNC 366b0 143 0 huffman_encode_string
FUNC 36830 1e5 0 decodeStream
FUNC 36a70 e5 0 addTable
FUNC 36dd0 66 0 huffman_decode_string
FUNC 36fc0 67 0 header_size
FUNC 37080 5 0 dynamicTableSize
FUNC 37090 93 0 encodeSizeUpdate
FUNC 37130 5 0 setMaxDynamicTableSize
FUNC 37180 13e 0 encodeLiteralField
FUNC 372c0 11b 0 encodeLiteralField
FUNC 373e0 d0 0 encodeHeaderField
FUNC 374b0 2be 0 encodeResponsePseudoHeaders
FUNC 37770 d3 0 encodeResponse
FUNC 37850 9b 0 encodeMethod
FUNC 378f0 608 0 encodeRequestPseudoHeaders
FUNC 37f00 cb 0 encodeRequest
FUNC 38000 9 0 dynamicTableSize
FUNC 38010 9 0 setMaxDynamicTableSize
FUNC 38020 53 0 decodeSizeUpdate
FUNC 38090 169 0 processDecodedField
FUNC 38200 11f 0 decodeIndexedField
FUNC 38320 1b6 0 decodeLiteralField
FUNC 384e0 1ec 0 decodeHeaderFields
FUNC 386d0 3d 0 compare
FUNC 38710 de 0 _tcf_0
FUNC 3b530 26 0 numberOfEntries
FUNC 3b560 1c 0 numberOfStaticEntries
FUNC 3b580 7 0 numberOfDynamicEntries
FUNC 3b590 7 0 dynamicDataSize
FUNC 3b750 c 0 fieldName
FUNC 3b760 f 0 fieldValue
FUNC 3b770 6f 0 front
FUNC 3b7f0 81 0 back
FUNC 3b880 6e 0 indexOfChunk
FUNC 3b980 44 0 keyToIndex
FUNC 3b9d0 33a 0 indexOf
FUNC 3bd10 2d7 0 indexOf
FUNC 3c030 9f 0 backKey
FUNC 3c0d0 536 0 clearDynamicTable
FUNC 3ca60 4 0 setMaxDynamicTableSize
FUNC 3ca70 2bd 0 prependField
FUNC 3ce10 64 0 priority
FUNC 3ce80 d7 0 validateHeader
FUNC 3cf60 c5 0 validatePayload
FUNC 3d030 75 0 dataSize
FUNC 3d0b0 2f 0 hpackBlockSize
FUNC 3d0e0 6d 0 dataBegin
FUNC 3d150 3a 0 hpackBlockBegin
FUNC 3d190 45 0 readPayload
FUNC 3d250 7 0 setType
FUNC 3d2b0 38 0 write
FUNC 3d2f0 115 0 writeDATA
FUNC 3d410 8a 0 start
FUNC 3d510 1d9 0 writeHEADERS
FUNC 3d6f0 77 0 readHeader
FUNC 3d770 d7 0 read
FUNC 3d850 3d 0 append
FUNC 3d9e0 5 0 reply
FUNC 3da20 23 0 weight
FUNC 3da50 5 0 data
FUNC 3da60 e 0 _tcf_0
FUNC 3da70 68 0 QT_HTTP2
FUNC 3dae0 37b 0 qt_error
FUNC 3de60 32 0 qt_error_string
FUNC 3dea0 69 0 qt_error
FUNC 3df80 5 0 setReply
FUNC 3e220 206 0 urlkey_from_request
FUNC 3e430 7 0 q_readyRead
FUNC 3e450 53 0 sendWINDOW_UPDATE
FUNC 3e5d0 57 0 sendSETTINGS_ACK
FUNC 3e630 53 0 sendRST_STREAM
FUNC 3e690 6f 0 sendGOAWAY
FUNC 3e700 388 0 finishStream
FUNC 3ea90 1e8 0 finishStreamWithError
FUNC 3ec80 8a 0 finishStreamWithError
FUNC 3ed10 12f 0 streamWasReset
FUNC 3ee60 16d 0 closeSession
FUNC 3efd0 1c7 0 connectionError
FUNC 3f1a0 a0 0 handlePING
FUNC 3f240 b6 0 handlePRIORITY
FUNC 3f300 6a5 0 updateStream
FUNC 3f9b0 6a3 0 updateStream
FUNC 40060 a7c 0 sendHEADERS
FUNC 40d80 1e5 0 addToSuspended
FUNC 40f70 2d6 0 removeFromSuspended
FUNC 41250 20a 0 sendDATA
FUNC 41460 4fc 0 markAsReset
FUNC 41960 37 0 resetPromisedStream
FUNC 419a0 119 0 popStreamToResume
FUNC 41ac0 27c 0 deleteActiveStream
FUNC 41d40 e1 0 q_uploadDataReadyRead
FUNC 41e30 88 0 q_replyDestroyed
FUNC 41ec0 5c1 0 handleDATA
FUNC 42490 de 0 handleRST_STREAM
FUNC 42570 30d 0 handleWINDOW_UPDATE
FUNC 42880 5f5 0 acceptSetting
FUNC 42e80 cf 0 handleSETTINGS
FUNC 42f50 118 0 resumeSuspendedStreams
FUNC 43070 399 0 createNewStream
FUNC 43410 6a3 0 tryReserveStream
FUNC 43ac0 397 0 handleContinuedHEADERS
FUNC 43e60 181 0 handleHEADERS
FUNC 43ff0 221 0 handlePUSH_PROMISE
FUNC 442b0 96b 0 initReplyFromPushPromise
FUNC 44c80 326 0 handleGOAWAY
FUNC 44fb0 1e9 0 q_receiveReply
FUNC 451b0 4c1 0 sendRequest
FUNC 45690 5d 0 isSequential
FUNC 456f0 8 0 writeData
FUNC 45700 30 0 _tcf_0
FUNC 457c0 13f 0 operator==
FUNC 45950 b 0 setContentType
FUNC 45960 26 0 boundary
FUNC 45990 f 0 setBoundary
FUNC 460e0 17c 0 operator=
FUNC 465d0 65 0 append
FUNC 46750 61 0 bytesAvailable
FUNC 467c0 e2 0 readData
FUNC 468b0 52 0 size
FUNC 46910 dd 0 size
FUNC 469f0 3a 0 setBodyDevice
FUNC 46a30 50 0 setHeader
FUNC 46a80 52 0 setRawHeader
FUNC 46ae0 45 0 setBody
FUNC 46b30 552 0 readData
FUNC 47090 d8 0 reset
FUNC 471c0 1a 0 metaObject
FUNC 47700 132 0 init
FUNC 47840 68 0 pauseConnection
FUNC 478b0 4cd 0 resumeConnection
FUNC 47de0 3b2 0 shouldEmitChannelError
FUNC 481a0 c 0 uncompressedBytesAvailable
FUNC 481b0 27 0 uncompressedBytesAvailableNextBlock
FUNC 481e0 2fb 0 copyCredentials
FUNC 484e0 4cc 0 createAuthorization
FUNC 489b0 7d 0 updateChannel
FUNC 48a30 aa 0 predictNextRequest
FUNC 48ae0 468 0 errorDetail
FUNC 48f50 205 0 readMoreLater
FUNC 49160 ec 0 startNetworkLayerStateLookup
FUNC 49250 5a 0 networkLayerDetected
FUNC 494b0 26 0 hostName
FUNC 494e0 c 0 port
FUNC 494f0 c 0 isSsl
FUNC 49500 c 0 channels
FUNC 49510 193 0 setCacheProxy
FUNC 496b0 21 0 cacheProxy
FUNC 496e0 4d 0 setTransparentProxy
FUNC 49730 28 0 transparentProxy
FUNC 49760 b 0 connectionType
FUNC 49770 b 0 setConnectionType
FUNC 49780 5d 0 setSslConfiguration
FUNC 497e0 2f 0 sslContext
FUNC 49810 5f 0 setSslContext
FUNC 49870 7d 0 ignoreSslErrors
FUNC 498f0 7e 0 ignoreSslErrors
FUNC 49970 c 0 preConnectFinished
FUNC 49980 b9 0 emitProxyAuthenticationRequired
FUNC 49cd0 3bd 0 emitReplyError
FUNC 4a090 46e 0 handleAuthenticateChallenge
FUNC 4a500 264 0 requeueRequest
FUNC 4a770 8f8 0 removeReply
FUNC 4b070 10e8 0 prepareRequest
FUNC 4c160 2b6 0 dequeueRequest
FUNC 4c880 3dc 0 startHostInfoLookup
FUNC 4cc60 617 0 parseRedirectResponse
FUNC 4d280 1f2 0 fillPipeline
FUNC 4d480 3a0 0 fillPipeline
FUNC 4dc10 2e2 0 queueRequest
FUNC 4df00 9 0 sendRequest
FUNC 4df70 47 0 qt_metacast
FUNC 4dfc0 5f 0 qt_metacall
FUNC 4e020 1a 0 metaObject
FUNC 4e0e0 1bd 0 _tcf_1
FUNC 4eb40 61 0 close
FUNC 4ebb0 61 0 abort
FUNC 4ec50 246 0 detectPipeliningSupport
FUNC 4ef40 2f 0 setProxy
FUNC 4ef70 23 0 ignoreSslErrors
FUNC 4efa0 2f 0 setSslConfiguration
FUNC 4efd0 41 0 pipelineFlush
FUNC 4f020 8 0 isSocketBusy
FUNC 4f860 57 0 setConnection
FUNC 4f8c0 60 0 ignoreSslErrors
FUNC 4fc40 237 0 closeAndResendCurrentRequest
FUNC 505b0 237 0 resendCurrentRequest
FUNC 507f0 417 0 q_disconnected
FUNC 517f0 176 0 emitFinishedWithError
FUNC 53370 3ec 0 qt_static_metacall
FUNC 54040 47 0 qt_metacast
FUNC 54090 7a 0 qt_metacall
FUNC 54420 f4 0 contentLength
FUNC 54520 f 0 operator==
FUNC 54530 499 0 setHeaderField
FUNC 549d0 bb 0 setContentLength
FUNC 54a90 e7 0 headerFieldValues
FUNC 54b80 e6 0 headerField
FUNC 54e00 1f 0 url
FUNC 54e30 f 0 setUrl
FUNC 54e50 22 0 redirectUrl
FUNC 54e80 12 0 setRedirectUrl
FUNC 54ec0 d 0 contentLength
FUNC 54ee0 d 0 setContentLength
FUNC 54f00 d6 0 header
FUNC 54ff0 1e 0 headerField
FUNC 55020 d 0 setHeaderField
FUNC 55040 21 0 request
FUNC 55070 2e 0 setRequest
FUNC 550a0 b 0 statusCode
FUNC 550b0 b 0 setStatusCode
FUNC 550c0 26 0 errorString
FUNC 550f0 26 0 reasonPhrase
FUNC 55120 12 0 setErrorString
FUNC 55140 b 0 majorVersion
FUNC 55160 b 0 minorVersion
FUNC 55220 17 0 readAnyAvailable
FUNC 55240 27 0 sizeNextBlock
FUNC 552b0 c 0 setReadBufferSize
FUNC 55300 34 0 setUserProvidedDownloadBuffer
FUNC 55340 c 0 userProvidedDownloadBuffer
FUNC 55350 f 0 abort
FUNC 55360 f 0 isAborted
FUNC 55380 c 0 isPipeliningUsed
FUNC 55390 c 0 isSpdyUsed
FUNC 553a0 b 0 setSpdyWasUsed
FUNC 553b0 c 0 removedContentLength
FUNC 553c0 23 0 connection
FUNC 556b0 1c 0 bytesAvailable
FUNC 556d0 12c 0 isCompressed
FUNC 558e0 173 0 parseStatus
FUNC 55a60 1c2 0 readStatus
FUNC 55c40 13 0 isConnectionCloseEnabled
FUNC 55c60 52 0 readBodyVeryFast
FUNC 55cc0 44 0 initializeInflateStream
FUNC 55d10 252 0 getChunkSize
FUNC 55f70 2a 0 isRedirecting
FUNC 55fa0 6 0 isRedirecting
FUNC 55fb0 1b 0 shouldEmitSignals
FUNC 55fd0 6c 0 expectContent
FUNC 560c0 41 0 setSslConfiguration
FUNC 56110 41 0 ignoreSslErrors
FUNC 56160 41 0 ignoreSslErrors
FUNC 561b0 b5 0 clearHttpLayerInformation
FUNC 56270 78 0 clear
FUNC 562f0 1e7 0 findChallenge
FUNC 564e0 233 0 authenticationMethod
FUNC 56720 3d 0 eraseData
FUNC 56760 209 0 removeAutoDecompressHeader
FUNC 56970 276 0 read
FUNC 56bf0 266 0 readAll
FUNC 57110 195 0 readBodyFast
FUNC 572b0 207 0 readReplyBodyRaw
FUNC 574c0 1b4 0 readReplyBodyChunked
FUNC 57bb0 16c 0 readBody
FUNC 57d20 413 0 parseHeader
FUNC 58140 9 0 parseHeader
FUNC 58150 82a 0 readHeader
FUNC 58bf0 1f 0 url
FUNC 58c10 9 0 contentLength
FUNC 58c20 1a 0 headerField
FUNC 58c40 c6 0 header
FUNC 58e90 15f 0 methodName
FUNC 58ff0 116 0 uri
FUNC 591b0 9 0 isSsl
FUNC 591c0 9 0 isPreConnect
FUNC 591d0 d 0 isFollowRedirects
FUNC 591e0 8 0 redirectPolicy
FUNC 591f0 8 0 redirectCount
FUNC 59200 d 0 operator==
FUNC 59210 8 0 operation
FUNC 59220 26 0 customVerb
FUNC 59250 8 0 priority
FUNC 59260 9 0 isPipeliningAllowed
FUNC 59270 9 0 isSPDYAllowed
FUNC 59280 9 0 isHTTP2Allowed
FUNC 59290 9 0 withCredentials
FUNC 592a0 9 0 uploadByteDevice
FUNC 59370 65 0 operator=
FUNC 59430 625 0 header
FUNC 59a60 4d 0 setHeaderField
FUNC 59ab0 3c 0 setOperation
FUNC 59af0 3c 0 setRedirectCount
FUNC 59b30 48 0 setWithCredentials
FUNC 59b80 48 0 setUploadByteDevice
FUNC 59bd0 3c 0 setPriority
FUNC 59c10 48 0 setPipeliningAllowed
FUNC 59c60 48 0 setSPDYAllowed
FUNC 59cb0 48 0 setHTTP2Allowed
FUNC 59d00 48 0 setSsl
FUNC 59d50 48 0 setPreConnect
FUNC 59da0 3c 0 setRedirectPolicy
FUNC 59de0 43 0 setContentLength
FUNC 59e30 57 0 setUrl
FUNC 59e90 57 0 setCustomVerb
FUNC 59ef0 be 0 q_readyRead
FUNC 59fb0 587 0 q_receiveReply
FUNC 5a560 e86 0 sendRequest
FUNC 5b3f0 11 0 downloadBufferDeleter
FUNC 5b410 e 0 _tcf_1
FUNC 5b6a0 5f0 0 makeCacheKey
FUNC 5be10 212 0 abortRequest
FUNC 5c030 3f 0 readBufferSizeChanged
FUNC 5c070 1c9 0 readBufferFreed
FUNC 5c240 1f3 0 readyReadSlot
FUNC 5c440 3e8 0 finishedWithErrorSlot
FUNC 5c830 40e 0 synchronousFinishedWithErrorSlot
FUNC 5cc40 21 0 dataReadProgressSlot
FUNC 5cc70 3c 0 cacheCredentialsSlot
FUNC 5ccb0 45 0 encryptedSlot
FUNC 5cd00 115 0 sslErrorsSlot
FUNC 5ce20 11 0 preSharedKeyAuthenticationRequiredSlot
FUNC 5ce40 140 0 synchronousProxyAuthenticationRequiredSlot
FUNC 5cf80 109 0 synchronousHeaderChangedSlot
FUNC 5d090 2fd 0 headerChangedSlot
FUNC 5d6c0 24d 0 startRequestSynchronously
FUNC 5d910 bd4 0 startRequest
FUNC 5e4f0 716 0 finishedSlot
FUNC 5ec10 606 0 synchronousFinishedSlot
FUNC 5f220 170 0 synchronousAuthenticationRequiredSlot
FUNC 5f3c0 3f 0 nextNonWhitespace
FUNC 5f490 1b6 0 isSessionNeeded
FUNC 5f6c0 6 0 isSequential
FUNC 5f6d0 c8 0 readData
FUNC 5f7a0 6d 0 ignoreSslErrors
FUNC 5f810 1 0 setSslConfigurationImplementation
FUNC 5f820 16 0 sslConfigurationImplementation
FUNC 5fb40 2c6 0 checkForRedirect
FUNC 5fe10 5b 0 httpAuthenticationRequired
FUNC 5fe70 71 0 proxyAuthenticationRequired
FUNC 5fef0 9 0 replyEncrypted
FUNC 5ff00 c 0 replySslConfigurationChanged
FUNC 5ff10 9 0 replyPreSharedKeyAuthenticationRequiredSlot
FUNC 5ff20 9d 0 resetUploadDataSlot
FUNC 5ffc0 184 0 wantUploadDataSlot
FUNC 60150 21 0 uploadByteDeviceReadyReadSlot
FUNC 60180 257 0 canResume
FUNC 603f0 583 0 startWaitForSession
FUNC 60980 20b 0 q_bufferOutgoingDataFinished
FUNC 60b90 c 0 q_cacheSaveDeviceAboutToClose
FUNC 60ba0 1bf 0 q_bufferOutgoingData
FUNC 60d60 8b 0 emitReplyUploadProgress
FUNC 60df0 20d 0 createUploadByteDevice
FUNC 610a0 e2 0 sentUploadDataSlot
FUNC 611a0 7a 0 createCache
FUNC 614e0 6d 0 completeCacheSave
FUNC 61550 33e 0 followRedirect
FUNC 61890 2b7 0 migrateBackend
FUNC 61b50 254 0 q_networkSessionConnected
FUNC 61db0 6c0 0 parseHttpOptionHeader
FUNC 62470 ab 0 ignoreSslErrorsImplementation
FUNC 62520 6e 0 replySslErrors
FUNC 62590 9b9 0 sendCacheContents
FUNC 62f50 eed 0 fetchCacheMetaData
FUNC 63e40 3cf 0 initCacheSaveDevice
FUNC 64210 11b 0 replyDownloadProgressSlot
FUNC 64330 441 0 q_cacheLoadReadyRead
FUNC 64780 3e2 0 finished
FUNC 64b70 15 0 replyFinished
FUNC 64b90 94 0 q_networkSessionStateChanged
FUNC 64c30 14c 0 q_networkSessionFailed
FUNC 64d80 105 0 q_networkSessionUsagePoliciesChanged
FUNC 64e90 5 0 q_finished
FUNC 64ea0 5a4 0 replyDownloadData
FUNC 65450 3c8 0 onRedirected
FUNC 65820 2bc 0 _tcf_1
FUNC 65ae0 157 0 q_metaDataChanged
FUNC 65c40 aff 0 loadFromCacheIfAllowed
FUNC 66740 90 0 close
FUNC 667d0 d3 0 abort
FUNC 668b0 72 0 bytesAvailable
FUNC 66930 7 0 size
FUNC 66940 22 0 setReadBufferSize
FUNC 66970 67 0 canReadLine
FUNC 66d20 4c 0 invalidateCache
FUNC 66d70 aee 0 replyDownloadMetaData
FUNC 67860 1e2c 0 postRequest
FUNC 69690 123 0 start
FUNC 697c0 6f8 0 q_startOperation
FUNC 6a750 160 0 headerField
FUNC 6a9a0 7 0 q_readyRead
FUNC 6a9c0 156 0 uncompressHeader
FUNC 6aca0 32 0 sendWINDOW_UPDATE
FUNC 6ace0 1e0 0 sendDataFrame
FUNC 6aec0 3c 0 handleSYN_STREAM
FUNC 6af00 e6 0 handleSETTINGS
FUNC 6aff0 44 0 handlePING
FUNC 6b140 289 0 readNextChunk
FUNC 6b3d0 ac7 0 composeHeader
FUNC 6bea0 83 0 q_replyDestroyed
FUNC 6bf90 191 0 handleGOAWAY
FUNC 6c130 ae 0 replyFinished
FUNC 6c1e0 8c4 0 parseHttpHeaders
FUNC 6cad0 8bb 0 handleDataFrame
FUNC 6d390 121 0 replyFinishedWithError
FUNC 6d4c0 316 0 handleRST_STREAM
FUNC 6d7e0 365 0 uploadData
FUNC 6db50 3b4 0 sendSYN_STREAM
FUNC 6df10 3d1 0 sendRequest
FUNC 6e300 61 0 q_uploadDataReadyRead
FUNC 6e370 ab 0 handleWINDOW_UPDATE
FUNC 6e420 399 0 handleControlFrame
FUNC 6e7c0 29e 0 q_receiveReply
FUNC 6eac0 1a 0 metaObject
FUNC 6f140 68c 0 qt_static_metacall
FUNC 6f810 31 0 configuration
FUNC 6f850 2e 0 interface
FUNC 6f880 10 0 isOpen
FUNC 6f890 f 0 state
FUNC 6f8a0 19 0 error
FUNC 6f8c0 4b 0 errorString
FUNC 6f910 193 0 sessionProperty
FUNC 6fab0 91 0 setSessionProperty
FUNC 6fbd0 16 0 bytesWritten
FUNC 6fbf0 16 0 bytesReceived
FUNC 6fc10 16 0 activeTime
FUNC 6fc30 16 0 usagePolicies
FUNC 6fc50 14 0 setUsagePolicies
FUNC 6fc70 115 0 waitForOpened
FUNC 6ff30 47 0 qt_metacast
FUNC 6ff80 7a 0 qt_metacall
FUNC 70000 9 0 connManager_prepare
FUNC 70010 25 0 connManager_cleanup
FUNC 70040 1a 0 metaObject
FUNC 70350 39b 0 qt_static_metacall
FUNC 70800 41 0 defaultConfiguration
FUNC 70850 44 0 allConfigurations
FUNC 708a0 42 0 configurationFromIdentifier
FUNC 708f0 27 0 isOnline
FUNC 70920 27 0 capabilities
FUNC 70980 47 0 qt_metacast
FUNC 709d0 7a 0 qt_metacall
FUNC 70a80 a 0 operator==
FUNC 70a90 6b 0 name
FUNC 70b00 6b 0 identifier
FUNC 70b70 4e 0 type
FUNC 70bc0 3f 0 isValid
FUNC 70c00 4e 0 connectTimeout
FUNC 70c50 43 0 setConnectTimeout
FUNC 70ca0 4e 0 state
FUNC 70cf0 3e 0 purpose
FUNC 70d30 3f 0 isRoamingAvailable
FUNC 70dd0 150 0 bearerTypeFamily
FUNC 70f20 17f 0 bearerTypeName
FUNC 71230 19a 0 operator=
FUNC 713d0 5e5 0 children
FUNC 71da0 46 0 cleanup
FUNC 71df0 6c 0 capabilities
FUNC 71e60 1e1 0 enablePolling
FUNC 72050 2e 0 disablePolling
FUNC 72080 3e 0 engines
FUNC 720c0 2ac 0 configurationFromIdentifier
FUNC 72370 e24 0 defaultConfiguration
FUNC 731a0 6a5 0 allConfigurations
FUNC 73850 6c 0 isOnline
FUNC 738c0 216 0 configurationRemoved
FUNC 73ae0 316 0 configurationChanged
FUNC 73e00 2e6 0 configurationAdded
FUNC 740f0 340 0 pollEngines
FUNC 74430 3fd 0 performAsyncConfigurationUpdate
FUNC 74830 13e 0 startPolling
FUNC 74970 1c36 0 updateConfigurations
FUNC 765b0 b3 0 initialize
FUNC 76850 3 0 requiresPolling
FUNC 76860 1a 0 metaObject
FUNC 76930 83 0 hasUsedConfiguration
FUNC 769c0 144 0 cleanUpConfigurations
FUNC 76c90 5a 0 configurationsInUse
FUNC 76cf0 487 0 qt_static_metacall
FUNC 77180 47 0 qt_metacast
FUNC 771d0 7a 0 qt_metacall
FUNC 772d0 7 0 doDeleteLater
FUNC 772e0 e 0 _tcf_1
FUNC 772f0 37 0 qHash
FUNC 77330 33d 0 getSession
FUNC 77670 206 0 setSession
FUNC 77880 39 0 operator<<
FUNC 778c0 37 0 operator>>
FUNC 77980 9f 0 qStringAsUcs2Le
FUNC 77b80 35 0 user
FUNC 77bc0 35 0 password
FUNC 77c00 35 0 realm
FUNC 77c40 6f 0 options
FUNC 77cb0 8 0 isNull
FUNC 77f80 47 0 setPassword
FUNC 77fd0 47 0 setRealm
FUNC 78300 170 0 operator=
FUNC 78680 47 0 setUser
FUNC 786d0 4c6 0 qEncodeHmacMd5
FUNC 78ba0 369 0 qCreatev2Hash
FUNC 78f10 64 0 option
FUNC 78f80 12d 0 setOption
FUNC 790b0 9d 0 operator==
FUNC 79150 8dc 0 parseDigestAuthenticationChallenge
FUNC 79a30 cb7 0 parseHttpResponse
FUNC 7a6f0 1c8d 0 digestMd5Response
FUNC 7c380 27b1 0 calculateResponse
FUNC 7eb40 12 0 qt_qdnsmailexchangerecord_less_than
FUNC 7eb60 30 0 qt_qdnsservicerecord_less_than
FUNC 7ebe0 1a 0 metaObject
FUNC 7ecc0 30 0 _tcf_1
FUNC 7ecf0 4f 0 _tcf_0
FUNC 7f440 9 0 isFinished
FUNC 7f480 6e 0 setName
FUNC 7f500 4b 0 setType
FUNC 7f580 6d 0 setNameserver
FUNC 7f700 26 0 name
FUNC 7f730 7 0 timeToLive
FUNC 7f740 26 0 value
FUNC 7f770 e2 0 operator=
FUNC 7f950 26 0 name
FUNC 7f980 7 0 timeToLive
FUNC 7f990 1d 0 value
FUNC 7f9b0 a7 0 operator=
FUNC 7fb80 26 0 exchange
FUNC 7fbb0 26 0 name
FUNC 7fbf0 7 0 timeToLive
FUNC 7fc00 e2 0 operator=
FUNC 7fe10 26 0 name
FUNC 7fe40 8 0 port
FUNC 7fe60 26 0 target
FUNC 7fe90 7 0 timeToLive
FUNC 7feb0 e2 0 operator=
FUNC 80000 26 0 name
FUNC 80030 7 0 timeToLive
FUNC 80040 97 0 values
FUNC 80130 10c 0 start
FUNC 80240 1d 0 q_applicationDestroyed
FUNC 80260 a7 0 operator=
FUNC 803a0 28c 0 abort
FUNC 80630 3a7 0 lookup
FUNC 809e0 21 0 canonicalNameRecords
FUNC 80a10 21 0 nameServerRecords
FUNC 80a40 21 0 pointerRecords
FUNC 80a70 21 0 hostAddressRecords
FUNC 80aa0 21 0 mailExchangeRecords
FUNC 80ad0 21 0 serviceRecords
FUNC 80b00 21 0 textRecords
FUNC 80b30 22a 0 q_lookupFinished
FUNC 80d60 31c 0 qt_static_metacall
FUNC 81080 cdd 0 run
FUNC 81d70 47 0 qt_metacast
FUNC 81dc0 ba 0 qt_metacall
FUNC 81e80 8c 0 convertToIpv4
FUNC 82040 2b7 0 parse
FUNC 825b0 de 0 toString
FUNC 826d0 188 0 isEqual
FUNC 82860 16 0 operator==
FUNC 82910 b 0 isNull
FUNC 82920 f5 0 isInSubnet
FUNC 82a20 9 0 isInSubnet
FUNC 82a30 3c 0 isLoopback
FUNC 82a70 2a 0 isMulticast
FUNC 82aa0 230 0 operator<<
FUNC 82cd0 16 0 qHash
FUNC 82cf0 110 0 operator<<
FUNC 82e00 4e 0 setScopeId
FUNC 82e50 5f 0 setAddress
FUNC 82f10 48 0 operator=
FUNC 82fa0 4a 0 clear
FUNC 82ff0 10f 0 setAddress
FUNC 83180 5d 0 setAddress
FUNC 83240 15d 0 operator>>
FUNC 833a0 5d 0 setAddress
FUNC 83570 82 0 setAddress
FUNC 83600 f9 0 setPrefixLength
FUNC 83700 1b7 0 setAddress
FUNC 838c0 110 0 setAddress
FUNC 839d0 7c5 0 parseSubnet
FUNC 842a0 277 0 emit_results_ready
FUNC 84520 319 0 any_of<QList<QHostInfoRunnable*>::const_iterator, (anonymous namespace)::ToBeLookedUpEquals>
FUNC 848c0 26 0 hostName
FUNC 848f0 e 0 setHostName
FUNC 84920 7 0 lookupId
FUNC 84940 26 0 errorString
FUNC 84980 17 0 localHostName
FUNC 84cd0 75 0 qt_qhostinfo_clear_cache
FUNC 84da0 4 0 setEnabled
FUNC 84db0 70 0 globalInstance
FUNC 84ec0 1bd 0 clear
FUNC 85080 1d 0 addresses
FUNC 850a0 41 0 setAddresses
FUNC 851f0 111 0 clear
FUNC 85310 17d 0 get
FUNC 85490 1df 0 abortLookup
FUNC 85670 72 0 abortHostLookup
FUNC 85c60 61 0 scheduleLookup
FUNC 85cd0 8ca 0 lookupHost
FUNC 865a0 286 0 qt_qhostinfo_lookup
FUNC 86830 5a8 0 lookupHostImpl
FUNC 86de0 71 0 lookupFinished
FUNC 87420 92 0 fromName
FUNC 874c0 e3 0 fromName
FUNC 875b0 399 0 __stable_partition_adaptive<std::reverse_iterator<QList<QHostInfoRunnable*>::iterator>, QHostInfoRunnable**, __gnu_cxx::__ops::_Iter_pred<(anonymous namespace)::ToBeLookedUpEquals>, long long int>
FUNC 88ae0 2f 0 _tcf_0
FUNC 88d10 6a 0 operator=
FUNC 88d80 40 0 clear
FUNC 88dc0 4a 0 isValid
FUNC 88e10 1d 0 senderAddress
FUNC 88e30 1d 0 destinationAddress
FUNC 88e50 26 0 senderPort
FUNC 88e80 26 0 destinationPort
FUNC 88eb0 26 0 setSender
FUNC 88ee0 26 0 setDestination
FUNC 88f10 7 0 hopLimit
FUNC 88f20 7 0 setHopLimit
FUNC 88f30 7 0 interfaceIndex
FUNC 88f40 7 0 setInterfaceIndex
FUNC 88f50 26 0 data
FUNC 88f80 a 0 setData
FUNC 88f90 c9 0 makeReply_helper
FUNC 89060 61 0 makeReply_helper_inplace
FUNC 890d0 5b 0 destroy
FUNC 891b0 b5 0 makeHwAddress
FUNC 89310 46 0 operator=
FUNC 893b0 6f 0 operator==
FUNC 89440 8 0 setIp
FUNC 89470 9d 0 setNetmask
FUNC 89510 c 0 prefixLength
FUNC 89520 27 0 setPrefixLength
FUNC 895a0 76 0 isValid
FUNC 89620 e 0 index
FUNC 89670 5b 0 humanReadableName
FUNC 89720 46 0 interfaceIndexFromName
FUNC 89770 2e 0 interfaceNameFromIndex
FUNC 897a0 116 0 operator=
FUNC 89d60 12a 0 _tcf_0
FUNC 89ed0 1338 0 operator<<
FUNC 8b210 51c 0 allInterfaces
FUNC 8b730 da 0 interfaceFromName
FUNC 8b810 1aa 0 interfaceFromName
FUNC 8b9c0 8e 0 interfaceFromIndex
FUNC 8ba50 1aa 0 interfaceFromIndex
FUNC 8bc00 287 0 allInterfaces
FUNC 8be90 1a3 0 allAddresses
FUNC 8c400 2c5 0 _tcf_0
FUNC 8c6d0 729 0 detach
FUNC 8d400 79 0 operator==
FUNC 8d760 6a 0 setType
FUNC 8d7e0 2c 0 setCapabilities
FUNC 8d830 14 0 isCachingProxy
FUNC 8d850 14 0 isTransparentProxy
FUNC 8d870 28 0 setUser
FUNC 8d8a0 35 0 user
FUNC 8d8e0 28 0 setPassword
FUNC 8d910 35 0 password
FUNC 8d950 28 0 setHostName
FUNC 8d9c0 1e 0 setPort
FUNC 8d9f0 ec0 0 setApplicationProxy
FUNC 8e8b0 93 0 header
FUNC 8e950 60 0 setHeader
FUNC 8e9b0 45 0 hasRawHeader
FUNC 8ea00 72 0 rawHeader
FUNC 8ea80 45 0 rawHeaderList
FUNC 8ead0 61 0 setRawHeader
FUNC 8eb40 e4 0 detach
FUNC 8ef50 70 0 operator=
FUNC 8efc0 46 0 operator==
FUNC 8f020 1d 0 setQueryType
FUNC 8f070 26 0 setPeerPort
FUNC 8f0f0 2e 0 setPeerHostName
FUNC 8f140 1d 0 setLocalPort
FUNC 8f1a0 28 0 setProtocolTag
FUNC 8f1d0 32 0 url
FUNC 8f210 28 0 setUrl
FUNC 8f240 30 0 networkConfiguration
FUNC 8f270 26 0 setNetworkConfiguration
FUNC 8f500 5ff 0 setUseSystemConfiguration
FUNC 8fb00 646 0 setApplicationProxyFactory
FUNC 90150 756 0 operator<<
FUNC 908b0 8fc 0 operator<<
FUNC 911b0 ca7 0 proxyForQuery
FUNC 91e60 394 0 applicationProxy
FUNC 92200 676 0 proxyForQuery
FUNC 92880 88 0 setDir
FUNC 92910 88 0 setPermissions
FUNC 929a0 88 0 setReadable
FUNC 92a30 8b 0 setSize
FUNC 92ac0 88 0 setSymLink
FUNC 92b50 88 0 setWritable
FUNC 92be0 88 0 setFile
FUNC 92d80 94 0 setName
FUNC 92e20 86 0 setOwner
FUNC 92eb0 86 0 setGroup
FUNC 92f40 94 0 setLastModified
FUNC 934e0 94 0 setLastRead
FUNC 93580 21a 0 operator=
FUNC 937e0 13 0 permissions
FUNC 93800 35 0 owner
FUNC 93840 35 0 group
FUNC 938a0 33 0 lastModified
FUNC 938e0 33 0 lastRead
FUNC 93920 13 0 isDir
FUNC 93940 13 0 isFile
FUNC 93960 13 0 isSymLink
FUNC 93980 13 0 isWritable
FUNC 939a0 13 0 isReadable
FUNC 939c0 13 0 isExecutable
FUNC 93bd0 11 0 lessThan
FUNC 93bf0 1e9 0 equal
FUNC 93de0 d6 0 operator==
FUNC 93ec0 9 0 isValid
FUNC 93ed0 1b 0 _tcf_0
FUNC 940c0 c57 0 fromName
FUNC 94db0 12ba 0 query
FUNC 960f0 67 0 interfaceIndexFromName
FUNC 96160 97 0 interfaceNameFromIndex
FUNC 96200 15a 0 localDomainName
FUNC 96360 a3b 0 interfaceListingWinXP
FUNC 96da0 29 0 scan
FUNC 971d0 153 0 splitSpaceSemicolon
FUNC 97480 187 0 reset
FUNC 97610 1150 0 parseServerList
FUNC 988f0 2f 0 _tcf_0
FUNC 98920 1306 0 init
FUNC 99c30 83b 0 systemProxyForQuery
FUNC 9a470 67 0 _tcf_0
FUNC 9aad0 8 0 error
FUNC 9aae0 26 0 errorString
FUNC 9ab10 15 0 setError
FUNC 9ab30 c 0 setReceiver
FUNC 9ab40 21 0 readNotification
FUNC 9ab70 21 0 writeNotification
FUNC 9aba0 21 0 exceptionNotification
FUNC 9abd0 21 0 closeNotification
FUNC 9ac00 21 0 connectionNotification
FUNC 9ac30 21 0 proxyAuthenticationRequired
FUNC 9ac60 b 0 state
FUNC 9ac70 b 0 setState
FUNC 9ac80 b 0 socketType
FUNC 9ac90 b 0 setSocketType
FUNC 9aca0 b 0 protocol
FUNC 9acb0 b 0 setProtocol
FUNC 9acc0 21 0 localAddress
FUNC 9acf0 10 0 setLocalAddress
FUNC 9ad00 c 0 localPort
FUNC 9ad10 c 0 setLocalPort
FUNC 9ad20 21 0 peerAddress
FUNC 9ad50 10 0 setPeerAddress
FUNC 9ad60 c 0 peerPort
FUNC 9ad70 c 0 setPeerPort
FUNC 9ad80 b 0 inboundStreamCount
FUNC 9ad90 b 0 outboundStreamCount
FUNC 9b1e0 c 0 socketDescriptor
FUNC 9b1f0 6 0 isSequential
FUNC 9b200 67 0 setReadBufferSize
FUNC 9b270 37 0 flush
FUNC 9b2b0 18c 0 setSocketOption
FUNC 9b440 e0 0 socketOption
FUNC 9b520 1a 0 metaObject
FUNC 9b710 1bd 0 _tcf_1
FUNC 9b8d0 8d 0 connectToHost
FUNC 9ba70 86 0 resetSocketLayer
FUNC 9bb00 148 0 readData
FUNC 9bc50 28d 0 disconnectFromHost
FUNC 9bee0 39d 0 setSocketDescriptor
FUNC 9c280 1fa 0 initSocketLayer
FUNC 9c490 5f 0 emitReadyRead
FUNC 9c4f0 59 0 emitBytesWritten
FUNC 9c550 2b2 0 writeData
FUNC 9c810 220 0 fetchConnectionParameters
FUNC 9ca30 1d6 0 startConnectingByName
FUNC 9cc10 97 0 pauseSocketNotifiers
FUNC 9ccb0 6b 0 resumeSocketNotifiers
FUNC 9cd20 2 0 resume
FUNC 9cd30 c 0 getSocketEngine
FUNC 9cd60 59 0 setErrorAndEmit
FUNC 9cdc0 1f6 0 readFromSocket
FUNC 9cfc0 102 0 canReadNotification
FUNC 9d0d0 28c 0 canCloseNotification
FUNC 9d360 207 0 waitForReadyRead
FUNC 9d570 279 0 waitForBytesWritten
FUNC 9d7f0 204 0 waitForDisconnected
FUNC 9daa0 b 0 pauseMode
FUNC 9dab0 b 0 setPauseMode
FUNC 9dae0 4b 0 bind
FUNC 9db30 27 0 isValid
FUNC 9db60 c 0 localPort
FUNC 9db70 21 0 localAddress
FUNC 9dba0 c 0 peerPort
FUNC 9dbb0 21 0 peerAddress
FUNC 9dbe0 35 0 peerName
FUNC 9dc20 6e 0 abort
FUNC 9dd00 263 0 writeToSocket
FUNC 9df70 b 0 flush
FUNC 9df80 c 0 setLocalPort
FUNC 9df90 10 0 setLocalAddress
FUNC 9dfa0 c 0 setPeerPort
FUNC 9dfb0 10 0 setPeerAddress
FUNC 9dfc0 12 0 setPeerName
FUNC 9dfe0 c 0 readBufferSize
FUNC 9e000 b 0 setSocketState
FUNC 9e020 b 0 error
FUNC 9e030 b 0 setSocketError
FUNC 9e040 10 0 setProxy
FUNC 9e050 21 0 proxy
FUNC 9e080 410 0 operator<<
FUNC 9e490 22d 0 operator<<
FUNC 9e7f0 24c 0 resolveProxy
FUNC 9ea40 2ed 0 bind
FUNC 9ed30 6e7 0 q_connectToNextAddress
FUNC 9f420 2e2 0 q_startConnecting
FUNC 9f710 48a 0 connectToHost
FUNC 9fc50 15 0 connectionNotification
FUNC 9fc80 156 0 q_abortConnectionAttempt
FUNC 9fde0 408 0 qt_static_metacall
FUNC a01f0 760 0 waitForConnected
FUNC a0950 7 0 bytesToWrite
FUNC a0960 4f 0 bytesAvailable
FUNC a09b0 7 0 canReadLine
FUNC a09c0 7 0 atEnd
FUNC a09d0 7 0 readLineData
FUNC a0a20 47 0 qt_metacast
FUNC a0a70 7a 0 qt_metacall
FUNC a0c20 b1 0 doEnsureInitialized
FUNC a0e30 3c 0 joinMulticastGroup
FUNC a0f00 3c 0 leaveMulticastGroup
FUNC a0f40 8b 0 multicastInterface
FUNC a0fd0 72 0 setMulticastInterface
FUNC a1050 78 0 hasPendingDatagrams
FUNC a10d0 6d 0 pendingDatagramSize
FUNC a1140 20d 0 writeDatagram
FUNC a1350 15c 0 writeDatagram
FUNC a14b0 24b 0 receiveDatagram
FUNC a1700 274 0 readDatagram
FUNC a1990 12 0 hasPendingConnections
FUNC a19b0 1a 0 metaObject
FUNC a1a80 1e9 0 readNotification
FUNC a1f80 1f 0 socketDescriptor
FUNC a1fa0 288 0 setSocketDescriptor
FUNC a2230 18 0 serverPort
FUNC a2250 3e 0 serverAddress
FUNC a2290 c4 0 waitForNewConnection
FUNC a2360 b 0 setMaxPendingConnections
FUNC a2370 b 0 maxPendingConnections
FUNC a2380 b 0 serverError
FUNC a2390 26 0 errorString
FUNC a23e0 1d 0 resumeAccepting
FUNC a2400 10 0 setProxy
FUNC a2410 21 0 proxy
FUNC a2500 b3 0 close
FUNC a2660 3fe 0 resolveProxy
FUNC a2a60 342 0 listen
FUNC a2db0 127 0 nextPendingConnection
FUNC a2ee0 47 0 qt_metacast
FUNC a2f30 75 0 qt_metacall
FUNC a2fb0 5c 0 incomingConnection
FUNC a3020 3 0 methodId
FUNC a3030 a 0 beginAuthenticate
FUNC a3040 6 0 methodId
FUNC a3080 26 0 errorString
FUNC a31b0 2f 0 _tcf_0
FUNC a32a0 9f 0 unSeal
FUNC a3340 ac 0 continueAuthenticate
FUNC a3520 276 0 beginAuthenticate
FUNC a37a0 19b 0 qt_socks5_set_host_address_and_port
FUNC a3940 245 0 qt_socks5_get_host_address_and_port
FUNC a3d30 7a6 0 initialize
FUNC a44e0 389 0 setErrorState
FUNC a4870 31f 0 setErrorState
FUNC a4b90 4ef 0 sendRequestMethod
FUNC a5080 1df 0 emitReadNotification
FUNC a5260 bf 0 q_emitPendingReadNotification
FUNC a5320 1a 0 q_emitPendingWriteNotification
FUNC a5340 1df 0 emitWriteNotification
FUNC a5520 10 0 q_emitPendingConnectionNotification
FUNC a5530 1ba 0 emitConnectionNotification
FUNC a56f0 426 0 reauthenticate
FUNC a5b20 5f 0 parseAuthenticatingReply
FUNC a5b80 20d 0 parseAuthenticationMethodReply
FUNC a5d90 372 0 parseRequestMethodReply
FUNC a63d0 6e 0 initialize
FUNC a6450 c 0 socketDescriptor
FUNC a6460 2f 0 isValid
FUNC a6490 218 0 connectInternal
FUNC a66b0 80 0 connectToHost
FUNC a6730 65 0 connectToHostByName
FUNC a67a0 216 0 q_controlSocketConnected
FUNC a6b20 7a 0 q_controlSocketBytesWritten
FUNC a6ba0 186 0 q_controlSocketError
FUNC a6d30 1 0 q_controlSocketDisconnected
FUNC a6d40 1 0 q_controlSocketStateChanged
FUNC a6d50 48 0 listen
FUNC a6da0 f4 0 close
FUNC a6fb0 202 0 write
FUNC a71c0 6d 0 joinMulticastGroup
FUNC a7230 16 0 multicastInterface
FUNC a7250 6d 0 setMulticastInterface
FUNC a72c0 26 0 hasPendingDatagrams
FUNC a72f0 513 0 writeDatagram
FUNC a7810 25 0 bytesToWrite
FUNC a7840 77 0 option
FUNC a78c0 b8 0 setOption
FUNC a7af0 25f 0 waitForRead
FUNC a7d50 164 0 waitForWrite
FUNC a7f10 c 0 isReadNotificationEnabled
FUNC a7f20 8a 0 setReadNotificationEnabled
FUNC a7fb0 c 0 isWriteNotificationEnabled
FUNC a7fc0 58 0 setWriteNotificationEnabled
FUNC a8020 c 0 isExceptionNotificationEnabled
FUNC a8030 b 0 setExceptionNotificationEnabled
FUNC a8040 101 0 timerEvent
FUNC a8150 51 0 contains
FUNC a8260 f4 0 retrieve
FUNC a8360 366 0 initialize
FUNC a86d0 174 0 add
FUNC a8850 1a3 0 accept
FUNC a8a00 3fb 0 q_udpSocketReadNotification
FUNC a8e00 51 0 pendingDatagramSize
FUNC a8e60 72 0 bytesAvailable
FUNC a8ee0 216 0 readDatagram
FUNC a9100 6fe 0 bind
FUNC a9800 3 0 createSocketEngine
FUNC a9960 31a 0 initialize
FUNC a9c80 3 0 initialize
FUNC a9c90 104 0 setProxy
FUNC a9da0 22 0 socketDescriptor
FUNC a9dd0 10 0 isValid
FUNC a9de0 aa 0 bind
FUNC a9e90 aa 0 listen
FUNC a9f40 b0 0 accept
FUNC a9ff0 3e 0 close
FUNC aa030 23 0 bytesAvailable
FUNC aa060 12 0 write
FUNC aa080 aa 0 joinMulticastGroup
FUNC aa130 16 0 multicastInterface
FUNC aa150 aa 0 setMulticastInterface
FUNC aa200 44 0 hasPendingDatagrams
FUNC aa250 49 0 pendingDatagramSize
FUNC aa2a0 b4 0 readDatagram
FUNC aa360 b4 0 writeDatagram
FUNC aa420 23 0 bytesToWrite
FUNC aa450 77 0 option
FUNC aa4d0 ad 0 setOption
FUNC aa580 1cd 0 waitForRead
FUNC aa750 14b 0 waitForWrite
FUNC aa8f0 c 0 isReadNotificationEnabled
FUNC aa900 c 0 isWriteNotificationEnabled
FUNC aab00 c 0 isExceptionNotificationEnabled
FUNC aab10 b 0 setExceptionNotificationEnabled
FUNC aab20 1 0 slotSocketDisconnected
FUNC aab30 226 0 readHttpHeader
FUNC aad60 1 0 slotSocketStateChanged
FUNC aad70 1a 0 emitPendingReadNotification
FUNC aad90 1a 0 emitPendingWriteNotification
FUNC aadb0 10 0 emitPendingConnectionNotification
FUNC aadc0 1df 0 emitReadNotification
FUNC ab070 1d1 0 emitWriteNotification
FUNC ab250 1e 0 slotSocketBytesWritten
FUNC ab270 1cc 0 emitConnectionNotification
FUNC ab440 339 0 slotSocketError
FUNC ab8d0 936 0 slotSocketConnected
FUNC ac210 aa0 0 slotSocketReadNotification
FUNC accb0 1ba 0 connectInternal
FUNC ace70 80 0 connectToHost
FUNC acef0 65 0 connectToHostByName
FUNC acf60 6e 0 setReadNotificationEnabled
FUNC ad600 aa 0 adjustAddressProtocol
FUNC ad730 17a 0 initialize
FUNC ad8b0 13f 0 initialize
FUNC ad9f0 c 0 socketDescriptor
FUNC ada00 193 0 connectToHost
FUNC adba0 4d 0 connectionNotification
FUNC adbf0 25 0 connectToHostByName
FUNC adc20 175 0 bind
FUNC ae0f0 1b0 0 joinMulticastGroup
FUNC ae2a0 13b 0 leaveMulticastGroup
FUNC ae3e0 fa 0 multicastInterface
FUNC aeb00 3 0 bytesToWrite
FUNC aeb10 1e1 0 read
FUNC aed00 102 0 close
FUNC aeea0 194 0 waitForRead
FUNC af040 2d2 0 waitForWrite
FUNC af320 2e2 0 waitForReadOrWrite
FUNC af610 96 0 receiveBufferSize
FUNC af6b0 a1 0 setReceiveBufferSize
FUNC af760 96 0 sendBufferSize
FUNC af800 a1 0 setSendBufferSize
FUNC af8b0 9 0 setOption
FUNC af8c0 9 0 option
FUNC af8d0 23 0 isReadNotificationEnabled
FUNC af900 8f 0 setReadNotificationEnabled
FUNC af990 23 0 isWriteNotificationEnabled
FUNC af9c0 92 0 setWriteNotificationEnabled
FUNC afa60 23 0 isExceptionNotificationEnabled
FUNC afa90 92 0 setExceptionNotificationEnabled
FUNC afb30 46 0 event
FUNC afc20 15f 0 convertToLevelAndOption
FUNC afd80 f7 0 option
FUNC afe80 12f 0 setOption
FUNC affb0 373 0 createNewSocket
FUNC b0330 5ad 0 fetchConnectionParameters
FUNC b08e0 49c 0 nativeConnect
FUNC b0d80 35a 0 nativeBind
FUNC b10e0 60 0 nativeListen
FUNC b1140 134 0 nativeBytesAvailable
FUNC b1280 de 0 nativeHasPendingDatagrams
FUNC b1360 106 0 nativePendingDatagramSize
FUNC b1470 5ed 0 nativeReceiveDatagram
FUNC b1a60 48e 0 nativeSendDatagram
FUNC b1ef0 103 0 nativeWrite
FUNC b2000 af 0 nativeRead
FUNC b20b0 1ed 0 nativeSelect
FUNC b22a0 1f4 0 nativeSelect
FUNC b24a0 e 0 nativeClose
FUNC b24b0 212 0 multicastMembershipHelper
FUNC b26d0 21 0 nativeJoinMulticastGroup
FUNC b2700 21 0 nativeLeaveMulticastGroup
FUNC b2730 19d 0 nativeSetMulticastInterface
FUNC b28d0 1f7 0 nativeMulticastInterface
FUNC b2ad0 1a6 0 nativeAccept
FUNC b2c80 6 0 isSequential
FUNC b2d00 1c 0 open
FUNC b2d20 1a 0 metaObject
FUNC b3090 21 0 connectToServer
FUNC b30c0 26 0 serverName
FUNC b30f0 26 0 fullServerName
FUNC b3120 b 0 state
FUNC b3130 2e0 0 operator<<
FUNC b3410 210 0 operator<<
FUNC b3620 47 0 qt_metacast
FUNC b3670 5c 0 qt_metacall
FUNC b36d0 15 0 hasPendingConnections
FUNC b36f0 1a 0 metaObject
FUNC b3890 26 0 errorString
FUNC b38e0 276 0 listen
FUNC b3b60 116 0 listen
FUNC b3c80 b 0 maxPendingConnections
FUNC b3c90 5 0 removeServer
FUNC b3ca0 26 0 serverName
FUNC b3cd0 26 0 fullServerName
FUNC b3d00 b 0 serverError
FUNC b3d10 b 0 setMaxPendingConnections
FUNC b3d20 40 0 waitForNewConnection
FUNC b3d60 163 0 close
FUNC b3f40 9b 0 incomingConnection
FUNC b3fe0 13d 0 nextPendingConnection
FUNC b4120 47 0 qt_metacast
FUNC b4170 ba 0 qt_metacall
FUNC b4230 97 0 q_canWrite
FUNC b42d0 d5 0 init
FUNC b43b0 316 0 q_winError
FUNC b4780 36 0 destroyPipeHandles
FUNC b4890 4c 0 readData
FUNC b48e0 1d5 0 writeData
FUNC b4ac0 3d 0 abort
FUNC b4b00 ba 0 q_pipeClosed
FUNC b4bc0 39 0 bytesToWrite
FUNC b4c00 40 0 flush
FUNC b4ce0 b 0 error
FUNC b4cf0 c 0 socketDescriptor
FUNC b4d00 10 0 readBufferSize
FUNC b4d10 10 0 setReadBufferSize
FUNC b4d20 14 0 waitForConnected
FUNC b4d40 e3 0 waitForDisconnected
FUNC b4e40 57 0 waitForReadyRead
FUNC b4ea0 23 0 waitForBytesWritten
FUNC b4ed0 2a 0 bytesAvailable
FUNC b4f00 33 0 canReadLine
FUNC b4f40 e2 0 close
FUNC b5030 a2 0 setSocketDescriptor
FUNC b50e0 4eb 0 connectToServer
FUNC b5620 17f 0 setError
FUNC b57a0 1 0 init
FUNC b57b0 6 0 removeServer
FUNC b57c0 44 0 listen
FUNC b5810 c3 0 closeServer
FUNC b58e0 996 0 addListener
FUNC b6280 211 0 q_onNewConnection
FUNC b64a0 6f 0 waitForNewConnection
FUNC b6510 199 0 listen
FUNC b6830 18e 0 read
FUNC b69c0 36 0 read
FUNC b6a00 126 0 write
FUNC b6b30 86 0 fromBool
FUNC b6bc0 96 0 fromInteger
FUNC b6c60 bc 0 fromVector
FUNC b6d20 1ec 0 fromObjectId
FUNC b6f10 158 0 toBool
FUNC b7070 556 0 toDateTime
FUNC b75d0 6b 0 toInteger
FUNC b7640 c4 0 toString
FUNC b7710 2c5 0 toObjectId
FUNC b79e0 1eb6 0 _tcf_0
FUNC b98a0 119 0 toVector
FUNC b99c0 1246 0 createOidMap
FUNC bac10 139 0 toObjectName
FUNC bad50 500 0 toInfo
FUNC bb250 e 0 _tcf_0
FUNC bb260 68 0 lcSsl
FUNC bb490 6c 0 digest
FUNC bb500 2f 0 fromData
FUNC bb530 cf 0 fromDevice
FUNC bb600 16 0 verify
FUNC bb620 5 0 importPkcs12
FUNC bb630 10c 0 subjectInfoToString
FUNC bb740 e8 0 operator<<
FUNC bb830 1af 0 isBlacklisted
FUNC bb9e0 5 0 isBlacklisted
FUNC bb9f0 247c 0 operator<<
FUNC bde70 cb2 0 operator=
FUNC beb30 ad 0 clear
FUNC c1f70 5a6 0 fromPath
FUNC c26b0 137 0 isNull
FUNC c27f0 7 0 protocol
FUNC c2800 7 0 peerVerifyMode
FUNC c2810 7 0 peerVerifyDepth
FUNC c2820 81 0 localCertificate
FUNC c28b0 1d 0 peerCertificate
FUNC c28d0 1d 0 sessionCipher
FUNC c28f0 7 0 sessionProtocol
FUNC c2900 1d 0 privateKey
FUNC c2920 16 0 supportedCiphers
FUNC c2940 16 0 systemCaCertificates
FUNC c2960 a 0 testSslOption
FUNC c2970 26 0 sessionTicket
FUNC c29a0 7 0 sessionTicketLifeTimeHint
FUNC c29b0 1d 0 ephemeralServerKey
FUNC c29d0 c7 0 ellipticCurves
FUNC c2aa0 16 0 supportedEllipticCurves
FUNC c2ac0 26 0 preSharedKeyIdentityHint
FUNC c2af0 1d 0 diffieHellmanParameters
FUNC c2b10 26 0 nextNegotiatedProtocol
FUNC c2b40 a 0 nextProtocolNegotiationStatus
FUNC c2b50 16 0 defaultConfiguration
FUNC c2b70 5 0 setDefaultConfiguration
FUNC c2b80 8 0 peerSessionWasShared
FUNC c2d60 1c6 0 operator=
FUNC c2f30 2b3 0 operator==
FUNC c31f0 1d 0 localCertificateChain
FUNC c3210 1d 0 peerCertificateChain
FUNC c3230 1d 0 caCertificates
FUNC c3250 1d 0 ciphers
FUNC c3270 20 0 allowedNextProtocols
FUNC c3290 36 0 setProtocol
FUNC c32d0 36 0 setPeerVerifyMode
FUNC c3310 49 0 setSslOption
FUNC c3360 48 0 setPrivateKey
FUNC c33b0 55 0 setSessionTicket
FUNC c3410 47 0 setPreSharedKeyIdentityHint
FUNC c3460 48 0 setDiffieHellmanParameters
FUNC c34b0 64 0 setLocalCertificateChain
FUNC c3520 64 0 setCiphers
FUNC c3590 74 0 setAllowedNextProtocols
FUNC c3610 11a 0 setEllipticCurves
FUNC c3730 8a 0 setPeerVerifyDepth
FUNC c37c0 b7 0 setCaCertificates
FUNC c3880 f0 0 setLocalCertificate
FUNC c3c60 3a 0 operator==
FUNC c3ca0 7 0 isNull
FUNC c3ce0 7 0 supportedBits
FUNC c3d00 26 0 keyExchangeMethod
FUNC c3d30 26 0 authenticationMethod
FUNC c3d60 26 0 encryptionMethod
FUNC c3dd0 399 0 operator<<
FUNC c4540 be 0 defaultParameters
FUNC c4600 4a 0 fromEncoded
FUNC c4650 80 0 fromEncoded
FUNC c4770 3c 0 operator=
FUNC c47b0 2a 0 isEmpty
FUNC c47e0 c 0 isValid
FUNC c47f0 7 0 error
FUNC c4800 76 0 errorString
FUNC c4880 35 0 operator==
FUNC c48c0 190 0 operator<<
FUNC c4a50 e 0 qHash
FUNC c4a60 182 0 operator<<
FUNC c4fd0 65 0 operator=
FUNC c5050 81 0 clear
FUNC c5140 3e3 0 operator<<
FUNC c5530 4b8 0 pemFromDer
FUNC c59f0 7a7 0 derFromPem
FUNC c61a0 1e54 0 toDer
FUNC c8000 1be 0 operator==
FUNC c8520 28 0 operator=
FUNC c8550 1d 0 operator==
FUNC c8580 37c 0 errorString
FUNC c8920 62 0 qHash
FUNC c8990 90 0 operator<<
FUNC c8a20 c0 0 operator<<
FUNC c8ae0 21 0 setSocketOption
FUNC c8b10 47 0 socketOption
FUNC c8b60 43 0 bytesToWrite
FUNC c8bb0 22 0 setReadBufferSize
FUNC c8c50 1ac 0 resume
FUNC c8e00 d5 0 disconnectFromHost
FUNC c8ee0 207 0 writeData
FUNC c90f0 39 0 flush
FUNC c9130 1a 0 metaObject
FUNC c96a0 cc 0 waitForConnected
FUNC c9770 229 0 peek
FUNC c99a0 b 0 mode
FUNC c99b0 c 0 isEncrypted
FUNC c99c0 b 0 protocol
FUNC c99d0 b 0 setProtocol
FUNC c99e0 b 0 peerVerifyMode
FUNC c99f0 b 0 setPeerVerifyMode
FUNC c9a00 b 0 peerVerifyDepth
FUNC c9a10 75 0 setPeerVerifyDepth
FUNC c9a90 26 0 peerVerifyName
FUNC c9ac0 12 0 setPeerVerifyName
FUNC c9ae0 23 0 encryptedBytesAvailable
FUNC c9b50 2f 0 abort
FUNC c9b80 83 0 localCertificate
FUNC c9c10 21 0 peerCertificate
FUNC c9c40 1e 0 sessionCipher
FUNC c9c60 e 0 sessionProtocol
FUNC c9c70 10 0 setPrivateKey
FUNC c9c80 21 0 privateKey
FUNC c9cb0 16 0 systemCaCertificates
FUNC c9cd0 5 0 supportsSsl
FUNC c9ce0 5 0 sslLibraryVersionNumber
FUNC c9cf0 16 0 sslLibraryVersionString
FUNC c9d10 5 0 sslLibraryBuildVersionNumber
FUNC c9d20 16 0 sslLibraryBuildVersionString
FUNC c9d40 120 0 startClientEncryption
FUNC c9e60 103 0 waitForEncrypted
FUNC c9f70 157 0 waitForReadyRead
FUNC ca0d0 d9 0 waitForBytesWritten
FUNC ca1b0 229 0 waitForDisconnected
FUNC cabe0 16 0 pauseSocketNotifiers
FUNC cac00 16 0 resumeSocketNotifiers
FUNC cac20 8 0 isPaused
FUNC cac30 16a 0 q_connectedSlot
FUNC cadb0 c6 0 q_disconnectedSlot
FUNC caeb0 ac 0 q_errorSlot
FUNC cafb0 93 0 q_bytesWrittenSlot
FUNC cb0d0 b 0 rootCertOnDemandLoadingSupported
FUNC cb0e0 6f 0 checkSettingSslContext
FUNC cb150 44 0 sslContext
FUNC cb1a0 42a 0 isMatchingHostname
FUNC cbb00 37b 0 setSslConfiguration
FUNC cbe80 24a 0 _tcf_0
FUNC cc0d0 21 0 localCertificateChain
FUNC cc100 21 0 peerCertificateChain
FUNC cc130 21 0 caCertificates
FUNC cc160 3a5 0 defaultCaCertificates
FUNC cc510 16 0 defaultCaCertificates
FUNC cc530 4b 0 setLocalCertificateChain
FUNC cc580 51 0 setCaCertificates
FUNC cc5e0 21 0 ciphers
FUNC cc610 3a5 0 defaultCiphers
FUNC cc9c0 16 0 defaultCiphers
FUNC cc9e0 3c7 0 supportedCiphers
FUNC ccdb0 16 0 supportedCiphers
FUNC cd510 4b 0 setCiphers
FUNC cd560 2bb 0 sslConfiguration
FUNC cd820 21 0 sslErrors
FUNC cdb20 4b 0 ignoreSslErrors
FUNC cdb70 5b 0 init
FUNC cdc20 ba 0 connectToHostEncrypted
FUNC cdce0 ca 0 connectToHostEncrypted
FUNC cddb0 3a6 0 createPlainSocket
FUNC ce160 1ea 0 setSocketDescriptor
FUNC ce350 f6 0 connectToHost
FUNC ce450 f3 0 bind
FUNC ce550 10 0 addCaCertificate
FUNC ce560 57 0 setLocalCertificate
FUNC ce5c0 4d 0 addCaCertificates
FUNC ce610 10 0 addCaCertificates
FUNC ceb20 5 0 addDefaultCaCertificates
FUNC cf4d0 5 0 setDefaultCiphers
FUNC cff00 5 0 addDefaultCaCertificate
FUNC d03a0 5 0 addDefaultCaCertificates
FUNC d0890 5 0 setDefaultCaCertificates
FUNC d08a0 241a 0 isMatchingHostname
FUNC d2cc0 3c6 0 unixRootCertDirectories
FUNC d3090 14a 0 setCiphers
FUNC d31e0 bd 0 verifyErrorsHaveBeenIgnored
FUNC d3380 6a7 0 qt_static_metacall
FUNC d3a30 4d 0 bytesAvailable
FUNC d3a80 4d 0 canReadLine
FUNC d3ad0 9c 0 close
FUNC d3b70 5c 0 atEnd
FUNC d3bd0 aa 0 setLocalCertificate
FUNC d3c80 e5 0 setPrivateKey
FUNC d3d70 45 0 qt_metacast
FUNC d3dc0 7a 0 qt_metacall
FUNC d3fd0 106 0 operator=
FUNC d40e0 26 0 identityHint
FUNC d4110 26 0 identity
FUNC d4140 7 0 maximumIdentityLength
FUNC d4150 26 0 preSharedKey
FUNC d4180 7 0 maximumPreSharedKeyLength
FUNC d4190 a0 0 operator==
FUNC d4230 55 0 setIdentity
FUNC d4290 55 0 setPreSharedKey
FUNC d4420 d3 0 operator=
FUNC d4500 26 0 oid
FUNC d4530 26 0 name
FUNC d4560 1e 0 value
FUNC d4580 8 0 isCritical
FUNC d4590 8 0 isSupported
FUNC d45a0 8d 0 matchLineFeed
FUNC d4860 4a 0 operator==
FUNC d48b0 49 0 qHash
FUNC d4900 7 0 isNull
FUNC d4910 24 0 isSelfSigned
FUNC d4940 119 0 version
FUNC d4a60 291 0 serialNumber
FUNC d4d00 1e 0 effectiveDate
FUNC d4d20 1e 0 expiryDate
FUNC d4d40 8 0 handle
FUNC d4d50 110 0 publicKey
FUNC d4e60 46c 0 QByteArray_from_X509
FUNC d52d0 83 0 toPem
FUNC d5360 84 0 toDer
FUNC d53f0 240 0 text_from_X509
FUNC d5630 83 0 toText
FUNC d56c0 40 0 asn1ObjectId
FUNC d5700 55 0 asn1ObjectName
FUNC d5760 ff 0 QSslCertificate_from_X509
FUNC d5860 27a 0 q_mapFromX509Name
FUNC d5ae0 15a 0 issuerInfo
FUNC d5c40 17e 0 issuerInfo
FUNC d5dc0 15a 0 subjectInfo
FUNC d5f20 17e 0 subjectInfo
FUNC d60a0 121 0 subjectInfoAttributes
FUNC d61d0 121 0 issuerInfoAttributes
FUNC d6300 234 0 certificatesFromPem
FUNC d6540 c1 0 certificatesFromDer
FUNC d6610 218 0 init
FUNC d6830 1dd8 0 convertExtension
FUNC d8610 ed 0 extensions
FUNC d8700 20f 0 subjectAlternativeNames
FUNC d8bb0 c 0 npnContext
FUNC d8bc0 14e 0 cacheSession
FUNC d8d50 4 0 sessionTicketLifeTimeHint
FUNC d8d60 4 0 error
FUNC d8d70 26 0 errorString
FUNC d8da0 114d 0 initSslContext
FUNC d9ef0 8d 0 fromConfiguration
FUNC d9f80 c4 0 sharedFromConfiguration
FUNC da050 662 0 createSsl
FUNC da6c0 91 0 isSafeDH
FUNC da760 9f 0 decodeDer
FUNC da800 12e 0 decodePem
FUNC da930 7c 0 shortName
FUNC da9b0 7c 0 longName
FUNC daa30 a1 0 fromShortName
FUNC daae0 7b 0 fromLongName
FUNC dab60 5b 0 isTlsNamedCurve
FUNC dabc0 2ad 0 doCrypt
FUNC daf30 18f 0 fromEVP_PKEY
FUNC db1c0 77 0 length
FUNC db240 2a2 0 toPem
FUNC db4f0 25 0 handle
FUNC db520 28 0 decrypt
FUNC db550 28 0 encrypt
FUNC db580 1e16 0 decodeDer
FUNC dd3a0 f 0 id_function
FUNC dd3b0 1d2 0 q_OpenSSL_to_QSslError
FUNC dd590 5a 0 disconnectFromHost
FUNC dd5f0 73 0 sessionProtocol
FUNC dd760 5f 0 _tcf_2
FUNC dd7c0 1a5 0 locking_function
FUNC ddbd0 62 0 _tcf_1
FUNC ddc40 3ec 0 continueHandshake
FUNC de030 f5 0 getErrorsFromOpenSsl
FUNC de260 567 0 QSslCipher_from_SSL_CIPHER
FUNC de7d0 43 0 sessionCipher
FUNC de820 7d 0 setupOpenSslOptions
FUNC de8a0 6f 0 destroySslContext
FUNC de9d0 5e 0 disconnected
FUNC dea30 1c 0 deinitialize
FUNC dea50 b2 0 _tcf_0
FUNC deb50 26 0 sslLibraryVersionNumber
FUNC deb80 60 0 sslLibraryVersionString
FUNC debe0 6 0 sslLibraryBuildVersionNumber
FUNC debf0 e 0 sslLibraryBuildVersionString
FUNC dec00 103 0 checkSslErrors
FUNC deee0 229 0 fetchCaRootForCert
FUNC df180 355 0 start
FUNC df4e0 224 0 resetDefaultEllipticCurves
FUNC df710 1dd 0 q_caRootLoaded
FUNC df9d0 9c0 0 initSslContext
FUNC e0390 409 0 resetDefaultCiphers
FUNC e07a0 2f2 0 ensureCiphersAndCertsLoaded
FUNC e0aa0 24 0 ensureInitialized
FUNC e0b40 12d 0 systemCaCertificates
FUNC e0c70 78 0 STACKOFX509_to_QSslCertificates
FUNC e0cf0 132 0 storePeerCertificates
FUNC e0e30 2f1 0 importPkcs12
FUNC e2330 7db 0 transmit
FUNC e2b10 208 0 tlsPskServerCallback
FUNC e2d20 33 0 q_ssl_psk_server_callback
FUNC e2d60 312 0 tlsPskClientCallback
FUNC e3080 4d 0 q_ssl_psk_client_callback
FUNC e3140 36 0 q_SSL_library_init
FUNC e3490 33 0 q_ASN1_INTEGER_get
FUNC e34d0 33 0 q_ASN1_STRING_data
FUNC e3510 33 0 q_ASN1_STRING_length
FUNC e3550 33 0 q_ASN1_STRING_to_UTF8
FUNC e3590 36 0 q_BIO_ctrl
FUNC e35d0 33 0 q_BIO_free
FUNC e3610 33 0 q_BIO_new
FUNC e3650 33 0 q_BIO_new_mem_buf
FUNC e3690 36 0 q_BIO_read
FUNC e36d0 33 0 q_BIO_s_mem
FUNC e3710 36 0 q_BIO_write
FUNC e3750 33 0 q_BN_num_bits
FUNC e3790 38 0 q_BN_mod_word
FUNC e37d0 33 0 q_EC_KEY_get0_group
FUNC e3810 33 0 q_EC_GROUP_get_degree
FUNC e3850 33 0 q_CRYPTO_num_locks
FUNC e3890 1c 0 q_CRYPTO_set_locking_callback
FUNC e38b0 1c 0 q_CRYPTO_set_id_callback
FUNC e38d0 1c 0 q_CRYPTO_free
FUNC e38f0 33 0 q_DSA_new
FUNC e3930 1c 0 q_DSA_free
FUNC e3950 33 0 q_d2i_X509
FUNC e3990 33 0 q_ERR_error_string
FUNC e39d0 33 0 q_ERR_get_error
FUNC e3a10 1c 0 q_ERR_free_strings
FUNC e3a30 1c 0 q_EVP_CIPHER_CTX_cleanup
FUNC e3a50 1c 0 q_EVP_CIPHER_CTX_init
FUNC e3a70 33 0 q_EVP_CIPHER_CTX_ctrl
FUNC e3ab0 33 0 q_EVP_CIPHER_CTX_set_key_length
FUNC e3af0 33 0 q_EVP_CipherInit
FUNC e3b30 33 0 q_EVP_CipherUpdate
FUNC e3b70 33 0 q_EVP_CipherFinal
FUNC e3bb0 33 0 q_EVP_des_cbc
FUNC e3bf0 33 0 q_EVP_des_ede3_cbc
FUNC e3c30 33 0 q_EVP_rc2_cbc
FUNC e3c70 36 0 q_EVP_PKEY_assign
FUNC e3cb0 36 0 q_EVP_PKEY_set1_RSA
FUNC e3cf0 36 0 q_EVP_PKEY_set1_DSA
FUNC e3d30 36 0 q_EVP_PKEY_set1_EC_KEY
FUNC e3d70 1c 0 q_EVP_PKEY_free
FUNC e3d90 33 0 q_EVP_PKEY_get1_DSA
FUNC e3dd0 33 0 q_EVP_PKEY_get1_RSA
FUNC e3e10 33 0 q_EVP_PKEY_get1_EC_KEY
FUNC e3e50 33 0 q_EVP_PKEY_new
FUNC e3e90 33 0 q_EVP_PKEY_type
FUNC e3ed0 36 0 q_i2d_X509
FUNC e3f10 33 0 q_OBJ_nid2sn
FUNC e3f50 33 0 q_OBJ_nid2ln
FUNC e3f90 33 0 q_OBJ_sn2nid
FUNC e3fd0 33 0 q_OBJ_ln2nid
FUNC e4010 36 0 q_i2t_ASN1_OBJECT
FUNC e4050 36 0 q_OBJ_obj2txt
FUNC e4090 33 0 q_OBJ_obj2nid
FUNC e40d0 33 0 q_PEM_read_bio_PrivateKey
FUNC e4110 33 0 q_PEM_read_bio_DSAPrivateKey
FUNC e4150 33 0 q_PEM_read_bio_RSAPrivateKey
FUNC e4190 33 0 q_PEM_read_bio_ECPrivateKey
FUNC e41d0 33 0 q_PEM_read_bio_DHparams
FUNC e4210 33 0 q_PEM_write_bio_DSAPrivateKey
FUNC e4250 33 0 q_PEM_write_bio_RSAPrivateKey
FUNC e4290 33 0 q_PEM_write_bio_ECPrivateKey
FUNC e42d0 33 0 q_PEM_read_bio_PUBKEY
FUNC e4310 33 0 q_PEM_read_bio_DSA_PUBKEY
FUNC e4350 33 0 q_PEM_read_bio_RSA_PUBKEY
FUNC e4390 33 0 q_PEM_read_bio_EC_PUBKEY
FUNC e43d0 33 0 q_PEM_write_bio_DSA_PUBKEY
FUNC e4410 33 0 q_PEM_write_bio_RSA_PUBKEY
FUNC e4450 33 0 q_PEM_write_bio_EC_PUBKEY
FUNC e4490 1c 0 q_RAND_seed
FUNC e44b0 36 0 q_RAND_status
FUNC e44f0 33 0 q_RSA_new
FUNC e4530 1c 0 q_RSA_free
FUNC e4550 36 0 q_sk_num
FUNC e4590 1c 0 q_sk_pop_free
FUNC e45b0 33 0 q_sk_new_null
FUNC e45f0 1c 0 q_sk_push
FUNC e4610 1c 0 q_sk_free
FUNC e4630 33 0 q_sk_value
FUNC e4670 36 0 q_SSL_accept
FUNC e46b0 36 0 q_SSL_clear
FUNC e46f0 33 0 q_SSL_CIPHER_description
FUNC e4730 33 0 q_SSL_CIPHER_get_bits
FUNC e4770 36 0 q_SSL_connect
FUNC e47b0 36 0 q_SSL_CTX_check_private_key
FUNC e47f0 36 0 q_SSL_CTX_ctrl
FUNC e4830 1c 0 q_SSL_CTX_free
FUNC e4850 33 0 q_SSL_CTX_new
FUNC e4890 36 0 q_SSL_CTX_set_cipher_list
FUNC e48d0 36 0 q_SSL_CTX_set_default_verify_paths
FUNC e4910 1c 0 q_SSL_CTX_set_verify
FUNC e4930 1c 0 q_SSL_CTX_set_verify_depth
FUNC e4950 36 0 q_SSL_CTX_use_certificate
FUNC e4990 36 0 q_SSL_CTX_use_certificate_file
FUNC e49d0 36 0 q_SSL_CTX_use_PrivateKey
FUNC e4a10 36 0 q_SSL_CTX_use_RSAPrivateKey
FUNC e4a50 36 0 q_SSL_CTX_use_PrivateKey_file
FUNC e4a90 33 0 q_SSL_CTX_get_cert_store
FUNC e4ad0 1c 0 q_SSL_free
FUNC e4af0 33 0 q_SSL_get_ciphers
FUNC e4b30 33 0 q_SSL_get_current_cipher
FUNC e4b70 33 0 q_SSL_version
FUNC e4bb0 36 0 q_SSL_get_error
FUNC e4bf0 33 0 q_SSL_get_peer_cert_chain
FUNC e4c30 33 0 q_SSL_get_peer_certificate
FUNC e4c70 36 0 q_SSL_get_verify_result
FUNC e4cb0 1c 0 q_SSL_load_error_strings
FUNC e4cd0 33 0 q_SSL_new
FUNC e4d10 36 0 q_SSL_ctrl
FUNC e4d50 36 0 q_SSL_read
FUNC e4d90 1c 0 q_SSL_set_bio
FUNC e4db0 1c 0 q_SSL_set_accept_state
FUNC e4dd0 1c 0 q_SSL_set_connect_state
FUNC e4df0 36 0 q_SSL_shutdown
FUNC e4e30 36 0 q_SSL_set_session
FUNC e4e70 1c 0 q_SSL_SESSION_free
FUNC e4e90 33 0 q_SSL_get1_session
FUNC e4ed0 33 0 q_SSL_get_session
FUNC e4f10 36 0 q_SSL_get_ex_new_index
FUNC e4f50 33 0 q_SSL_set_ex_data
FUNC e4f90 33 0 q_SSL_get_ex_data
FUNC e4fd0 1c 0 q_SSL_set_psk_client_callback
FUNC e4ff0 1c 0 q_SSL_set_psk_server_callback
FUNC e5010 33 0 q_SSL_CTX_use_psk_identity_hint
FUNC e5050 33 0 q_SSLv3_client_method
FUNC e5090 33 0 q_SSLv23_client_method
FUNC e50d0 33 0 q_TLSv1_client_method
FUNC e5110 33 0 q_TLSv1_1_client_method
FUNC e5150 33 0 q_TLSv1_2_client_method
FUNC e5190 33 0 q_SSLv3_server_method
FUNC e51d0 33 0 q_SSLv23_server_method
FUNC e5210 33 0 q_TLSv1_server_method
FUNC e5250 33 0 q_TLSv1_1_server_method
FUNC e5290 33 0 q_TLSv1_2_server_method
FUNC e52d0 36 0 q_SSL_write
FUNC e5310 36 0 q_X509_cmp
FUNC e5350 33 0 q_X509_dup
FUNC e5390 1c 0 q_X509_print
FUNC e53b0 33 0 q_X509_EXTENSION_get_object
FUNC e53f0 1c 0 q_X509_free
FUNC e5410 33 0 q_X509_get_ext
FUNC e5450 33 0 q_X509_get_ext_count
FUNC e5490 33 0 q_X509_get_ext_d2i
FUNC e54d0 33 0 q_X509V3_EXT_get
FUNC e5510 33 0 q_X509V3_EXT_d2i
FUNC e5550 33 0 q_X509_EXTENSION_get_critical
FUNC e5590 33 0 q_X509_EXTENSION_get_data
FUNC e55d0 1c 0 q_BASIC_CONSTRAINTS_free
FUNC e55f0 1c 0 q_AUTHORITY_KEYID_free
FUNC e5610 33 0 q_ASN1_STRING_print
FUNC e5650 36 0 q_X509_check_issued
FUNC e5690 33 0 q_X509_get_issuer_name
FUNC e56d0 33 0 q_X509_get_subject_name
FUNC e5710 36 0 q_X509_verify_cert
FUNC e5750 33 0 q_X509_NAME_entry_count
FUNC e5790 33 0 q_X509_NAME_get_entry
FUNC e57d0 33 0 q_X509_NAME_ENTRY_get_data
FUNC e5810 33 0 q_X509_NAME_ENTRY_get_object
FUNC e5850 33 0 q_X509_PUBKEY_get
FUNC e5890 1c 0 q_X509_STORE_free
FUNC e58b0 33 0 q_X509_STORE_new
FUNC e58f0 33 0 q_X509_STORE_add_cert
FUNC e5930 1c 0 q_X509_STORE_CTX_free
FUNC e5950 36 0 q_X509_STORE_CTX_init
FUNC e5990 36 0 q_X509_STORE_CTX_set_purpose
FUNC e59d0 36 0 q_X509_STORE_CTX_get_error
FUNC e5a10 36 0 q_X509_STORE_CTX_get_error_depth
FUNC e5a50 33 0 q_X509_STORE_CTX_get_current_cert
FUNC e5a90 33 0 q_X509_STORE_CTX_get_chain
FUNC e5ad0 33 0 q_X509_STORE_CTX_new
FUNC e5b10 1c 0 q_OPENSSL_add_all_algorithms_noconf
FUNC e5b30 1c 0 q_OPENSSL_add_all_algorithms_conf
FUNC e5b50 33 0 q_SSL_CTX_load_verify_locations
FUNC e5b90 33 0 q_SSLeay
FUNC e5bd0 33 0 q_SSLeay_version
FUNC e5c10 33 0 q_i2d_SSL_SESSION
FUNC e5c50 33 0 q_d2i_SSL_SESSION
FUNC e5c90 36 0 q_SSL_select_next_proto
FUNC e5cd0 1c 0 q_SSL_CTX_set_next_proto_select_cb
FUNC e5cf0 1c 0 q_SSL_get0_next_proto_negotiated
FUNC e5d10 36 0 q_SSL_set_alpn_protos
FUNC e5d50 1c 0 q_SSL_CTX_set_alpn_select_cb
FUNC e5d70 1c 0 q_SSL_get0_alpn_selected
FUNC e5d90 33 0 q_DH_new
FUNC e5dd0 1c 0 q_DH_free
FUNC e5df0 33 0 q_d2i_DHparams
FUNC e5e30 36 0 q_i2d_DHparams
FUNC e5e70 33 0 q_DH_check
FUNC e5eb0 33 0 q_BN_bin2bn
FUNC e5ef0 33 0 q_EC_KEY_dup
FUNC e5f30 33 0 q_EC_KEY_new_by_curve_name
FUNC e5f70 1c 0 q_EC_KEY_free
FUNC e5f90 33 0 q_EC_get_builtin_curves
FUNC e5fd0 33 0 q_EC_curve_nist2nid
FUNC e6010 36 0 q_PKCS12_parse
FUNC e6050 33 0 q_d2i_PKCS12_bio
FUNC e6090 1c 0 q_PKCS12_free
FUNC e60b0 88e7 0 q_resolveOpenSslSymbols
FUNC ee9a0 3c3 0 q_getTimeFromASN1
FUNC eed70 1a 0 metaObject
FUNC eeed0 47 0 qt_metacast
FUNC eef20 6a 0 qt_metacall
FUNC eef90 1a 0 metaObject
FUNC eefb0 444 0 qt_static_metacall
FUNC ef400 47 0 qt_metacast
FUNC ef450 7a 0 qt_metacall
FUNC ef4f0 1a 0 metaObject
FUNC ef510 45 0 qt_metacast
FUNC ef560 56 0 qt_metacall
FUNC ef5c0 1 0 qt_static_metacall
FUNC ef5d0 1a 0 metaObject
FUNC ef5f0 47 0 qt_metacast
FUNC ef640 7 0 qt_metacall
FUNC ef650 1a 0 metaObject
FUNC ef870 659 0 qt_static_metacall
FUNC efed0 47 0 qt_metacast
FUNC eff20 7a 0 qt_metacall
FUNC effa0 1a 0 metaObject
FUNC effe0 47 0 qt_metacast
FUNC f0030 5a 0 qt_metacall
FUNC f0090 1a 0 metaObject
FUNC f0170 24a 0 qt_static_metacall
FUNC f03c0 47 0 qt_metacast
FUNC f0410 7a 0 qt_metacall
FUNC f0490 1a 0 metaObject
FUNC f05d0 45 0 qt_metacast
FUNC f0620 7a 0 qt_metacall
FUNC f06a0 1a 0 metaObject
FUNC f06e0 45 0 qt_metacast
FUNC f0730 5a 0 qt_metacall
FUNC f0790 1a 0 metaObject
FUNC f08d0 5f 0 qt_metacall
FUNC f0930 1 0 qt_static_metacall
FUNC f0940 1a 0 metaObject
FUNC f0960 47 0 qt_metacast
FUNC f09b0 7 0 qt_metacall
FUNC f09c0 1a 0 metaObject
FUNC f0cc0 926 0 qt_static_metacall
FUNC f1670 7a 0 qt_metacall
FUNC f16f0 1a 0 metaObject
FUNC f1710 1a 0 metaObject
FUNC f1d30 cfb 0 qt_static_metacall
FUNC f2a30 47 0 qt_metacast
FUNC f2a80 7a 0 qt_metacall
FUNC f2b00 47 0 qt_metacast
FUNC f2b50 5c 0 qt_metacall
FUNC f2bb0 1a 0 metaObject
FUNC f2d10 d8e 0 qt_static_metacall
FUNC f3aa0 45 0 qt_metacast
FUNC f3af0 7a 0 qt_metacall
FUNC f3b70 1a 0 metaObject
FUNC f3c60 5f 0 qt_metacall
FUNC f3cc0 1a 0 metaObject
FUNC f3dd0 591 0 qt_static_metacall
FUNC f4370 47 0 qt_metacast
FUNC f43c0 7a 0 qt_metacall
FUNC f4440 1a 0 metaObject
FUNC f45c0 5a4 0 qt_static_metacall
FUNC f4b70 47 0 qt_metacast
FUNC f4bc0 7a 0 qt_metacall
FUNC f4c40 1 0 qt_static_metacall
FUNC f4c50 1a 0 metaObject
FUNC f4c70 47 0 qt_metacast
FUNC f4cc0 7 0 qt_metacall
FUNC f4cd0 1a 0 metaObject
FUNC f4cf0 1a 0 metaObject
FUNC f4f10 7a 0 qt_metacall
FUNC f4f90 47 0 qt_metacast
FUNC f4fe0 56 0 qt_metacall
FUNC f5050 1a 0 metaObject
FUNC f5070 1a 0 metaObject
FUNC f5090 1a 0 metaObject
FUNC f50b0 1a 0 metaObject
FUNC f5400 47 0 qt_metacast
FUNC f5450 47 0 qt_metacast
FUNC f54a0 47 0 qt_metacast
FUNC f54f0 45 0 qt_metacast
FUNC f5540 6a 0 qt_metacall
FUNC f55b0 7 0 qt_metacall
FUNC f55d0 61 0 qt_metacall
FUNC f5640 1a 0 metaObject
FUNC f56c0 47 0 qt_metacast
FUNC f5710 5f 0 qt_metacall
FUNC f5770 1 0 qt_static_metacall
FUNC f5780 1a 0 metaObject
FUNC f57a0 45 0 qt_metacast
FUNC f57f0 5 0 qt_metacall
FUNC f5800 1 0 qt_static_metacall
FUNC f5810 1a 0 metaObject
FUNC f5830 45 0 qt_metacast
FUNC f5880 5 0 qt_metacall
FUNC f5890 1a 0 metaObject
FUNC f5b10 45 0 qt_metacast
FUNC f5b60 77 0 qt_metacall
FUNC f5be0 1a 0 metaObject
FUNC f5e10 45 0 qt_metacast
FUNC f5e60 77 0 qt_metacall
FUNC f5f00 1a 0 metaObject
FUNC f5f20 45 0 qt_metacast
FUNC f5f70 56 0 qt_metacall
FUNC f5fd0 1a 0 metaObject
FUNC f61d0 47 0 qt_metacast
FUNC f6220 77 0 qt_metacall
FUNC f7920 35 0 _do_global_dtors
FUNC f7960 66 0 _do_global_ctors
FUNC f79d0 1f 0 _main
FUNC f79f0 d6 0 _security_init_cookie
FUNC f7ad0 f8 0 _report_gsfailure
FUNC f7bd0 2f 0 _dyn_tls_dtor
FUNC f7c80 3 0 _tlregdtor
FUNC f7eb0 2bb 0 pei386_runtime_relocator
FUNC f8170 1a0 0 _mingw_SEH_error_handler
FUNC f8310 ec 0 _mingw_init_ehandler
FUNC f8400 1e7 0 gnu_exception_handler
FUNC f8660 7f 0 __w64_mingwthr_add_key_dtor
FUNC f86e0 a0 0 __w64_mingwthr_remove_key_dtor
FUNC f8780 da 0 _mingw_TLScallback
FUNC f88f0 8d 0 FindPESectionByName
FUNC f8980 74 0 _mingw_GetSectionForAddress
FUNC f8a00 3e 0 _mingw_GetSectionCount
FUNC f8a40 6f 0 FindPESectionExec
FUNC f8ab0 37 0 GetPEImageBase
FUNC f8af0 91 0 IsNonwritableInCurrentImage
FUNC f8b90 a6 0 _mingw_enum_import_library_names
FUNC f8c40 3 0 fpreset
FUNC f8c90 6 0 DllEntryPoint
FUNC f8ca0 6 0 DllMain
FUNC f8ea0 30 0 optimize_alloc
FUNC f8ed0 7f 0 release_ptrs
FUNC f8f50 8d 0 resize_wbuf
FUNC f91a0 3229 0 _mingw_sformat
FUNC fc3d0 39 0 _mingw_vfscanf
FUNC fc410 41 0 _mingw_vsscanf
FUNC fc460 a4 0 _strtof
FUNC fc510 be 0 _strtold
FUNC fc5d0 17f 0 _mbrtowc_cp
FUNC fc750 66 0 mbrtowc
FUNC fc7c0 ed 0 mbsrtowcs
FUNC fc8b0 58 0 mbrlen
FUNC fcb40 ac 0 _increment_D2A
FUNC fcbf0 384 0 rvOK
FUNC fcfb0 8b 0 _set_ones_D2A
FUNC fd040 1b63 0 _strtodg
FUNC febb0 148 0 _sum_D2A
FUNC fed00 90f 0 _gethex_D2A
FUNC ff610 f3 0 _rshift_D2A
FUNC ff710 43 0 _trailz_D2A
FUNC ff760 96 0 _mingw_hexdig_init_D2A
FUNC ff800 399 0 _hexnan_D2A
FUNC ffcc0 f5 0 _Balloc_D2A
FUNC ffe30 a9 0 _multadd_D2A
FUNC fff10 121 0 _mult_D2A
FUNC 100040 179 0 _pow5mult_D2A
FUNC 1001c0 fe 0 _lshift_D2A
FUNC 100300 16d 0 _diff_D2A
FUNC 100470 105 0 _b2d_D2A
FUNC 100580 118 0 _d2b_D2A
FUNC 1006a0 23 0 _strcp_D2A
FUNC 1006d0 f7 0 _s2b_D2A
FUNC 1007d0 a4 0 _ratio_D2A
FUNC 100880 43 0 _match_D2A
FUNC 1008d0 53 0 _copybits_D2A
FUNC 100930 93 0 _any_on_D2A
FUNC 100b10 c8 0 register_onexit_function
FUNC 100be0 6f 0 execute_onexit_table
FUNC 100c50 1f 0 _acrt_iob_func
FUNC 100de0 e3 0 qRegisterMetaType<QNetworkAccessCache::CacheableObject*>
FUNC 100ed0 396 0 qRegisterNormalizedMetaType<QList<QNetworkCookie> >
FUNC 101270 4e6 0 qRegisterNormalizedMetaType<QList<QPair<QByteArray, QByteArray> > >
FUNC 101760 334 0 qRegisterNormalizedMetaType<QPair<QByteArray, QByteArray> >
FUNC 1026d0 11 0 deleteData
FUNC 1026f0 56 0 deleteData
FUNC 102750 a 0 deleteData
FUNC 1027b0 f8 0 event
FUNC 102940 92 0 realloc
FUNC 1029e0 b 0 deleter
FUNC 1029f0 b 0 deleter
FUNC 102a00 1 0 deleter
FUNC 102a10 1 0 noDeleter
FUNC 102a20 9 0 deleter
FUNC 102a30 1 0 noDeleter
FUNC 102a40 9 0 deleter
FUNC 102a50 1 0 noDeleter
FUNC 102a60 20 0 deleter
FUNC 102a80 1 0 noDeleter
FUNC 102a90 161 0 appendToByteArray<QStringBuilder<QByteArray, char>, QByteArray>
FUNC 102c00 141 0 appendToByteArray<QStringBuilder<char [13], QByteArray>, char>
FUNC 102d50 151 0 appendToByteArray<QStringBuilder<char [8], QByteArray>, char [4]>
FUNC 102eb0 1a1 0 appendToByteArray<QStringBuilder<QStringBuilder<QByteArray, char [3]>, QByteArray>, char [3]>
FUNC 103060 184 0 appendToByteArray<QStringBuilder<QStringBuilder<QByteArray, char [3]>, QByteArray>, char>
FUNC 103640 10 0 equal
FUNC 103650 29 0 assign
FUNC 103680 e 0 advance
FUNC 103690 d 0 destroy
FUNC 1036a0 10 0 equal
FUNC 1036b0 29 0 assign
FUNC 1036e0 e 0 advance
FUNC 1036f0 d 0 destroy
FUNC 103700 5 0 Destruct
FUNC 103710 2e 0 Construct
FUNC 103740 5 0 Destruct
FUNC 103800 3d 0 Destruct
FUNC 103840 40 0 Construct
FUNC 103880 3d 0 Destruct
FUNC 1038c0 40 0 Construct
FUNC 103900 7d 0 Destruct
FUNC 103a60 5 0 Destruct
FUNC 103a70 5c 0 Construct
FUNC 103ad0 5 0 Destruct
FUNC 103ae0 6e 0 Construct
FUNC 103b50 5 0 Destruct
FUNC 103b60 2e 0 Construct
FUNC 103b90 6 0 Destruct
FUNC 103c00 5 0 Destruct
FUNC 103c10 2e 0 Construct
FUNC 103c40 127 0 Destruct
FUNC 103d70 28 0 Construct
FUNC 103da0 5 0 Destruct
FUNC 103db0 b5 0 Construct
FUNC 103e70 124 0 Destruct
FUNC 103fa0 e6 0 Construct
FUNC 104090 62 0 Destruct
FUNC 104100 b5 0 Construct
FUNC 1041c0 77 0 Destruct
FUNC 104290 1 0 Destruct
FUNC 1042a0 17 0 Construct
FUNC 1042c0 97 0 Destruct
FUNC 104360 a5 0 Construct
FUNC 104410 1 0 Destruct
FUNC 104420 d 0 Construct
FUNC 104430 1 0 Destruct
FUNC 104440 d 0 Construct
FUNC 104450 1 0 Destruct
FUNC 104460 d 0 Construct
FUNC 104470 1 0 Destruct
FUNC 104480 d 0 Construct
FUNC 104490 1 0 Destruct
FUNC 1044a0 d 0 Construct
FUNC 1044b0 1 0 Destruct
FUNC 1044c0 d 0 Construct
FUNC 1044d0 1 0 Destruct
FUNC 1044e0 d 0 Construct
FUNC 1044f0 1 0 Destruct
FUNC 1045b0 1 0 Destruct
FUNC 1045c0 49 0 Construct
FUNC 104610 1 0 Destruct
FUNC 104620 f 0 Construct
FUNC 104630 1 0 Destruct
FUNC 104640 f 0 Construct
FUNC 104650 1 0 Destruct
FUNC 104660 f 0 Construct
FUNC 104670 2c 0 moveToEndImpl<QList<QNetworkCookie> >
FUNC 1046a0 2c 0 moveToEndImpl<QList<QPair<QByteArray, QByteArray> > >
FUNC 1046d0 2c 0 moveToBeginImpl<QList<QNetworkCookie> >
FUNC 104700 2c 0 moveToBeginImpl<QList<QPair<QByteArray, QByteArray> > >
FUNC 104730 13 0 atImpl<QList<QNetworkCookie> >
FUNC 104750 13 0 atImpl<QList<QPair<QByteArray, QByteArray> > >
FUNC 104770 15 0 getImpl<QList<QNetworkCookie> >
FUNC 104790 18 0 getImpl<QList<QPair<QByteArray, QByteArray> > >
FUNC 1047b0 a 0 sizeImpl<QList<QNetworkCookie> >
FUNC 1047c0 a 0 sizeImpl<QList<QPair<QByteArray, QByteArray> > >
FUNC 1047d0 12 0 getFirstImpl<QPair<QByteArray, QByteArray> >
FUNC 1047f0 16 0 getSecondImpl<QPair<QByteArray, QByteArray> >
FUNC 104950 44e 0 detach_helper
FUNC 104da0 84 0 detach_helper
FUNC 104e30 18a 0 detach_helper
FUNC 104fc0 27a 0 detach_helper
FUNC 105240 256 0 detach_helper
FUNC 1054a0 127 0 detach_helper
FUNC 1055d0 3e6 0 detach_helper
FUNC 1059c0 57 0 detach_helper
FUNC 105a20 117 0 detach_helper
FUNC 105b40 c7 0 detach_helper
FUNC 105c10 156 0 detach_helper
FUNC 105d70 117 0 detach_helper
FUNC 105e90 137 0 detach_helper
FUNC 105fd0 18a 0 detach_helper
FUNC 106a90 e 0 errorString
FUNC 106aa0 1 0 abort
FUNC 106ab0 8 0 readData
FUNC 107970 1 0 setResumeOffset
FUNC 107980 3 0 needsResetableUploadData
FUNC 107990 3 0 processRequestSynchronously
FUNC 107a30 55 0 close
FUNC 10a490 7 0 dispose
FUNC 10a710 c7 0 detach_helper
FUNC 10a7e0 3e6 0 detach_helper
FUNC 10bdd0 1eb8 0 detach_helper
FUNC 10edd0 bc6 0 detach_helper
FUNC 10f9a0 45f 0 insert
FUNC 10ff80 145c 0 detach_helper
FUNC 112160 1786 0 detach_helper
FUNC 1138f0 1759 0 detach_helper
FUNC 115050 1f7 0 erase
FUNC 115250 d8d 0 insert
FUNC 115fe0 1516 0 detach_helper
FUNC 117500 d2 0 detach_helper
FUNC 1175e0 149 0 erase
FUNC 117730 6b 0 detach_helper
FUNC 1177a0 279 0 erase
FUNC 11a430 96 0 duplicateNode
FUNC 11a4d0 221 0 remove
FUNC 11a700 86 0 deleteNode2
FUNC 11a790 47 0 duplicateNode
FUNC 11a7e0 1f 0 deleteNode2
FUNC 11a800 39 0 duplicateNode
FUNC 11a840 33 0 deleteNode2
FUNC 11a880 46 0 duplicateNode
FUNC 11a8d0 4b 0 deleteNode2
FUNC 11a920 40 0 duplicateNode
FUNC 11a9a0 25 0 duplicateNode
FUNC 11a9d0 170 0 remove
FUNC 11ab40 18a 0 deleteNode2
FUNC 11acd0 4b 0 deleteNode2
FUNC 11ad20 44 0 duplicateNode
FUNC 11af70 33d 0 duplicateNode
FUNC 11b2b0 118 0 operator[]
FUNC 11b410 47 0 duplicateNode
FUNC 11b460 170 0 remove
FUNC 11b5e0 25 0 duplicateNode
FUNC 11b610 14c 0 remove
FUNC 11b770 25 0 duplicateNode
FUNC 11b7a0 14c 0 remove
FUNC 11b900 16 0 duplicateNode
FUNC 11b920 139 0 remove
FUNC 11ba70 1e 0 duplicateNode
FUNC 11ba90 120 0 erase
FUNC 11bbc0 1c 0 duplicateNode
FUNC 11bbe0 120 0 erase
FUNC 11bd10 3b 0 duplicateNode
FUNC 11bd50 15b 0 remove
FUNC 11bf10 70 0 duplicateNode
FUNC 11c120 16e 0 remove
FUNC 11c290 199 0 operator[]
FUNC 11c430 9e 0 detach_helper
FUNC 11c4d0 11a 0 detach_helper_grow
FUNC 11c5f0 35 0 clear
FUNC 11c6b0 2b6 0 removeAll
FUNC 11ca20 fc 0 detach_helper_grow
FUNC 11cca0 a2 0 detach_helper
FUNC 11cd50 171 0 detach_helper_grow
FUNC 11ced0 35 0 clear
FUNC 11d0a0 184 0 operator+=
FUNC 11d230 fc 0 detach_helper_grow
FUNC 11d330 35 0 clear
FUNC 11d4a0 12c 0 detach_helper_grow
FUNC 11d750 84 0 detach_helper
FUNC 11d7e0 fa 0 detach_helper_grow
FUNC 11da50 de 0 operator+=
FUNC 11db30 fa 0 detach_helper_grow
FUNC 11dc30 35 0 clear
FUNC 11dd90 de 0 operator+=
FUNC 11de70 83 0 detach_helper
FUNC 11df00 fa 0 detach_helper_grow
FUNC 11e0b0 fa 0 detach_helper_grow
FUNC 11e1b0 a0 0 reserve
FUNC 11e2c0 fa 0 detach_helper_grow
FUNC 11e3c0 a0 0 reserve
FUNC 11e480 12c 0 detach_helper_grow
FUNC 11e7d0 c6 0 detach_helper
FUNC 11e8a0 12c 0 detach_helper_grow
FUNC 11eac0 12c 0 detach_helper_grow
FUNC 11ede0 2f6 0 detach_helper_grow
FUNC 11f1c0 83 0 detach_helper
FUNC 11f250 fa 0 detach_helper_grow
FUNC 11f400 c8 0 detach_helper
FUNC 11f4d0 18a 0 detach_helper_grow
FUNC 11f6e0 fc 0 detach_helper_grow
FUNC 11f7e0 b2 0 reserve
FUNC 11f8a0 d0 0 detach_helper
FUNC 11f970 18a 0 detach_helper_grow
FUNC 11fb00 35 0 clear
FUNC 11fbd0 ff 0 reserve
FUNC 11fdc0 b4 0 detach_helper
FUNC 11fe80 14a 0 detach_helper_grow
FUNC 120050 9e 0 detach_helper
FUNC 1200f0 11a 0 detach_helper_grow
FUNC 120210 35 0 clear
FUNC 120340 16d 0 operator+=
FUNC 1204b0 14a 0 detach_helper_grow
FUNC 120660 83 0 detach_helper
FUNC 1206f0 fa 0 detach_helper_grow
FUNC 1207f0 84 0 detach_helper
FUNC 120880 fc 0 detach_helper_grow
FUNC 1209f0 27 0 reserve
FUNC 120b30 a2 0 detach_helper
FUNC 120be0 13a 0 detach_helper_grow
FUNC 120dd0 7f 0 detach_helper
FUNC 120e50 100 0 detach_helper_grow
FUNC 120f50 35 0 clear
FUNC 120f90 41 0 append
FUNC 121020 7f 0 detach_helper
FUNC 1210a0 100 0 detach_helper_grow
FUNC 1211a0 42 0 append
FUNC 121210 7f 0 detach_helper
FUNC 121290 100 0 detach_helper_grow
FUNC 121390 7f 0 detach_helper
FUNC 121410 100 0 detach_helper_grow
FUNC 121530 100 0 detach_helper_grow
FUNC 121630 42 0 append
FUNC 121720 7f 0 detach_helper
FUNC 1217a0 100 0 detach_helper_grow
FUNC 1218a0 35 0 clear
FUNC 1218e0 fa 0 erase
FUNC 1219e0 42 0 append
FUNC 121a30 b5 0 removeOne
FUNC 121b10 100 0 detach_helper_grow
FUNC 121c10 146 0 removeAll
FUNC 121d60 100 0 detach_helper_grow
FUNC 121e80 100 0 detach_helper_grow
FUNC 121f80 146 0 removeAll
FUNC 1220d0 100 0 detach_helper_grow
FUNC 1221d0 146 0 removeAll
FUNC 122320 100 0 detach_helper_grow
FUNC 1229d0 14a 0 reallocData
FUNC 122b20 2ab 0 reallocData
FUNC 122dd0 cd 0 append
FUNC 122ea0 2f6 0 reallocData
FUNC 1231a0 123 0 append
FUNC 1232d0 133 0 reallocData
FUNC 123410 9b 0 append
FUNC 1234b0 24 0 resize
FUNC 1234e0 17b 0 operator+=
FUNC 123660 133 0 reallocData
FUNC 1237a0 4c9 0 reallocData
FUNC 123c70 239 0 insert
FUNC 123f30 429 0 reallocData
FUNC 124360 177 0 append
FUNC 1244e0 133 0 reallocData
FUNC 124620 133 0 reallocData
FUNC 127a60 2271 0 destroy
FUNC 12a4b0 c 0 convert
FUNC 12a4c0 13c 0 convert
FUNC 12a600 252 0 convert
FUNC 12a860 2f 0 convert
FUNC 12a910 1e8 0 readArrayBasedContainer<QList<QPair<QByteArray, QByteArray> > >
FUNC 12abe0 3 0 canResume
FUNC 12abf0 3 0 bytesToWrite
FUNC 12ac00 1b 0 bytesAvailable
FUNC 12ac20 1e 0 atEnd
FUNC 12ac50 5 0 pos
FUNC 12ac90 1ad 0 uniqueKeys
FUNC 12ae40 127 0 values
FUNC 12af70 8f 0 values
FUNC 12b000 66 0 findNode
FUNC 12b070 85 0 findNode
FUNC 12b100 66 0 findNode
FUNC 12b170 85 0 findNode
FUNC 12b200 65 0 findNode
FUNC 12b270 65 0 findNode
FUNC 12b2e0 66 0 findNode
FUNC 12b350 6e 0 findNode
FUNC 12b3c0 66 0 findNode
FUNC 12b430 6e 0 findNode
FUNC 12b4a0 bb 0 findNode
FUNC 12b560 66 0 findNode
FUNC 12b5d0 6e 0 findNode
FUNC 12b640 1fa 0 operator==
FUNC 12b840 66 0 findNode
FUNC 12b8b0 6e 0 findNode
FUNC 12b920 66 0 findNode
FUNC 12b990 6e 0 findNode
FUNC 12ba00 7a 0 findNode
FUNC 12ba80 7a 0 findNode
FUNC 12bb00 1ab 0 operator==
FUNC 12bcb0 89 0 findNode
FUNC 12bd40 89 0 findNode
FUNC 12bdd0 7a 0 findNode
FUNC 12be50 7a 0 findNode
FUNC 12bed0 7a 0 findNode
FUNC 12bf50 b8 0 operator==
FUNC 12c010 9c 0 value
FUNC 12c0b0 8d 0 operator==
FUNC 12c140 ef 0 operator==
FUNC 12c230 6e 0 findNode
FUNC 12c2a0 182 0 findNode
FUNC 12c430 f9 0 copy
FUNC 12c530 f9 0 copy
FUNC 12c630 f9 0 copy
FUNC 12c730 ed 0 copy
FUNC 12c820 109 0 copy
FUNC 12c930 dd 0 copy
FUNC 12ca10 da 0 copy
FUNC 12caf0 d4 0 copy
FUNC 12cbd0 d0 0 M_initialize_map
FUNC 12ccf0 1ff 0 __rotate<std::reverse_iterator<QList<QHostInfoRunnable*>::iterator> >
FUNC 12cef0 1af 0 _M_push_front_aux<std::unique_ptr<std::vector<HPack::HeaderField, std::allocator<HPack::HeaderField> >, std::default_delete<std::vector<HPack::HeaderField, std::allocator<HPack::HeaderField> > > > >
FUNC 12d0a0 589 0 M_insert_aux<unsigned int const&>
FUNC 12d630 86 0 M_push_back_aux<unsigned int const&>
FUNC 12d6c0 158 0 M_reallocate_map
FUNC 12d820 3e6 0 M_erase
FUNC 12dc10 5ac 0 M_erase
FUNC 12e1c0 59 0 emplace_back<HPack::HeaderField>
FUNC 12e220 221 0 _M_realloc_insert<HPack::HeaderField>
FUNC 12e450 38d 0 operator=
FUNC 12e7e0 162 0 _M_realloc_insert<const HPack::PrefixTable&>
FUNC 12e950 172 0 M_default_append
FUNC 12ead0 7d 0 emplace_back<Http2::Frame>
FUNC 12eb50 272 0 _M_realloc_insert<const Http2::Frame&>
FUNC 12edd0 202 0 _M_realloc_insert<Http2::Frame>
FUNC 12efe0 ea 0 emplace_back<unsigned char>
FUNC 12f0d0 22a 0 M_range_insert<char const*>
FUNC 12f300 230 0 M_range_insert<unsigned char const*>
FUNC 12f530 118 0 M_default_append
FUNC 12f650 122 0 M_realloc_insert<unsigned int const&>
FUNC 12f780 145 0 _M_insert_unique<HPack::FieldLookupTable::SearchEntry>
FUNC 12f8d0 3a 0 M_erase
FUNC 12f910 27a 0 __adjust_heap<QList<QDnsServiceRecord>::iterator, long long int, QDnsServiceRecord, __gnu_cxx::__ops::_Iter_comp_iter<bool (*)(const QDnsServiceRecord&, const QDnsServiceRecord&)> >
FUNC 12fb90 27a 0 __adjust_heap<QList<QDnsMailExchangeRecord>::iterator, long long int, QDnsMailExchangeRecord, __gnu_cxx::__ops::_Iter_comp_iter<bool (*)(const QDnsMailExchangeRecord&, const QDnsMailExchangeRecord&)> >
FUNC 12fe10 586 0 __heap_select<QList<QDnsServiceRecord>::iterator, __gnu_cxx::__ops::_Iter_comp_iter<bool (*)(const QDnsServiceRecord&, const QDnsServiceRecord&)> >
FUNC 1303a0 586 0 __heap_select<QList<QDnsMailExchangeRecord>::iterator, __gnu_cxx::__ops::_Iter_comp_iter<bool (*)(const QDnsMailExchangeRecord&, const QDnsMailExchangeRecord&)> >
FUNC 130930 21f 0 move_backward<unsigned int>
FUNC 130b50 184 0 __insertion_sort<QList<QDnsServiceRecord>::iterator, __gnu_cxx::__ops::_Iter_comp_iter<bool (*)(const QDnsServiceRecord&, const QDnsServiceRecord&)> >
FUNC 130ce0 184 0 __insertion_sort<QList<QDnsMailExchangeRecord>::iterator, __gnu_cxx::__ops::_Iter_comp_iter<bool (*)(const QDnsMailExchangeRecord&, const QDnsMailExchangeRecord&)> >
FUNC 130e70 402 0 __introsort_loop<QList<QDnsServiceRecord>::iterator, int, __gnu_cxx::__ops::_Iter_comp_iter<bool (*)(const QDnsServiceRecord&, const QDnsServiceRecord&)> >
FUNC 131280 402 0 __introsort_loop<QList<QDnsMailExchangeRecord>::iterator, int, __gnu_cxx::__ops::_Iter_comp_iter<bool (*)(const QDnsMailExchangeRecord&, const QDnsMailExchangeRecord&)> >
FUNC 131690 19b 0 __is_permutation<QHash<QString, QVariant>::const_iterator, QHash<QString, QVariant>::const_iterator, __gnu_cxx::__ops::_Iter_equal_to_iter>
FUNC 131830 19b 0 __is_permutation<QHash<QNetworkRequest::Attribute, QVariant>::const_iterator, QHash<QNetworkRequest::Attribute, QVariant>::const_iterator, __gnu_cxx::__ops::_Iter_equal_to_iter>
FUNC 1319d0 fc 0 __unguarded_linear_insert<QList<QDnsServiceRecord>::iterator, __gnu_cxx::__ops::_Val_comp_iter<bool (*)(const QDnsServiceRecord&, const QDnsServiceRecord&)> >
FUNC 131ad0 fc 0 __unguarded_linear_insert<QList<QDnsMailExchangeRecord>::iterator, __gnu_cxx::__ops::_Val_comp_iter<bool (*)(const QDnsMailExchangeRecord&, const QDnsMailExchangeRecord&)> >
FUNC 131bd0 1b3 0 move<unsigned int>
FUNC 131d90 1cb 0 __find_if<const QByteArray*, __gnu_cxx::__ops::_Iter_equals_val<const QByteArray> >
FUNC 131f60 103 0 __find_if<const QSslError*, __gnu_cxx::__ops::_Iter_equals_val<const QSslError> >
FUNC 132510 fc 0 operator+=<QLatin1Char, QString>
FUNC 132610 150 0 operator+=<QStringBuilder<QStringRef, QLatin1Char>, QString>
FUNC 132760 14c 0 operator+=<QStringBuilder<QStringBuilder<QLatin1Char, QString>, QLatin1Char>, QString>
FUNC 1328c0 f 0 GLOBAL__sub_I__ZN21QNetworkAccessManagerC2EP7QObject
FUNC 1329d0 1d 0 GLOBAL__sub_I__ZN11QFtpCommandC2EN4QFtp7CommandERK11QStringListRK10QByteArray
FUNC 132a00 1b16 0 GLOBAL__sub_I__ZN5HPack26huffman_encoded_bit_lengthERK10QByteArray
FUNC 134520 41 0 GLOBAL__sub_I__ZN5HPack11header_sizeERKSt6vectorINS_11HeaderFieldESaIS1_EE
FUNC 134570 f 0 GLOBAL__sub_I__ZN29QHttpNetworkConnectionPrivate23defaultHttpChannelCountE
FUNC 1347a0 f 0 GLOBAL__sub_I__ZN29QHttpNetworkConnectionChannelC2Ev
FUNC 1347f0 28 0 GLOBAL__sub_I__ZN19QHttpThreadDelegate11connectionsE
FUNC 134820 f 0 GLOBAL__sub_I__ZN15QNetworkSessionC2ERK21QNetworkConfigurationP7QObject
FUNC 134830 f 0 GLOBAL__sub_I__ZN35QNetworkConfigurationManagerPrivate20addPreAndPostRoutineEv
FUNC 134840 f 0 GLOBAL__sub_I__ZN13QBearerEngineC2EP7QObject
FUNC 134850 28 0 GLOBAL__sub_I_tls
FUNC 134880 f 0 GLOBAL__sub_I__ZN17QDnsLookupPrivate27msgNoIpV6NameServerAdressesE
FUNC 1348f0 f 0 GLOBAL__sub_I__ZN22QAbstractSocketPrivateC2Ev
FUNC 134900 f 0 GLOBAL__sub_I__ZN17QTcpServerPrivateC2Ev
FUNC 134910 f 0 GLOBAL__sub_I__ZN12QLocalSocketC2EP7QObject
FUNC 134920 f 0 GLOBAL__sub_I__ZN12QLocalServerC2EP7QObject
FUNC 134a10 f 0 GLOBAL__sub_I__ZN19QNetworkAccessCache18qt_static_metacallEP7QObjectN11QMetaObject4CallEiPPv
FUNC 134a20 f 0 GLOBAL__sub_I__ZN21QNetworkAccessBackend18qt_static_metacallEP7QObjectN11QMetaObject4CallEiPPv
FUNC 134a30 f 0 GLOBAL__sub_I__ZN17QNetworkCookieJar18qt_static_metacallEP7QObjectN11QMetaObject4CallEiPPv
FUNC 134a40 f 0 GLOBAL__sub_I__ZN13QNetworkReply18qt_static_metacallEP7QObjectN11QMetaObject4CallEiPPv
FUNC 134a50 f 0 GLOBAL__sub_I__ZN21QAbstractNetworkCache18qt_static_metacallEP7QObjectN11QMetaObject4CallEiPPv
FUNC 134a60 f 0 GLOBAL__sub_I__ZN12QNetworkFile18qt_static_metacallEP7QObjectN11QMetaObject4CallEiPPv
FUNC 134a70 f 0 GLOBAL__sub_I__ZN21QHttp2ProtocolHandler18qt_static_metacallEP7QObjectN11QMetaObject4CallEiPPv
FUNC 134a80 f 0 GLOBAL__sub_I__ZN14QHttpMultiPart18qt_static_metacallEP7QObjectN11QMetaObject4CallEiPPv
FUNC 134a90 f 0 GLOBAL__sub_I__ZN17QHttpNetworkReply18qt_static_metacallEP7QObjectN11QMetaObject4CallEiPPv
FUNC 134aa0 1d 0 GLOBAL__sub_I__ZN19QHttpThreadDelegate18qt_static_metacallEP7QObjectN11QMetaObject4CallEiPPv
FUNC 134ac0 f 0 GLOBAL__sub_I__ZN20QSpdyProtocolHandler18qt_static_metacallEP7QObjectN11QMetaObject4CallEiPPv
FUNC 134ad0 f 0 GLOBAL__sub_I__ZN35QNetworkConfigurationManagerPrivate18qt_static_metacallEP7QObjectN11QMetaObject4CallEiPPv
FUNC 134ae0 f 0 GLOBAL__sub_I__ZN22QNetworkSessionPrivate18qt_static_metacallEP7QObjectN11QMetaObject4CallEiPPv
FUNC 134af0 f 0 GLOBAL__sub_I__ZN19QBearerEnginePlugin18qt_static_metacallEP7QObjectN11QMetaObject4CallEiPPv
FUNC 134b00 1d 0 GLOBAL__sub_I__ZN18QDnsLookupRunnable18qt_static_metacallEP7QObjectN11QMetaObject4CallEiPPv
FUNC 134b20 1d 0 GLOBAL__sub_I__ZN15QHostInfoResult18qt_static_metacallEP7QObjectN11QMetaObject4CallEiPPv
FUNC 134b40 f 0 GLOBAL__sub_I__ZN21QAbstractSocketEngine18qt_static_metacallEP7QObjectN11QMetaObject4CallEiPPv
FUNC 134b50 f 0 GLOBAL__sub_I__ZN21QWindowsCaRootFetcher18qt_static_metacallEP7QObjectN11QMetaObject4CallEiPPv
FUNC 134b60 69 0 _report_error
PUBLIC 135270 0 msgNoIpV6NameServerAdresses
PUBLIC 135900 0 staticMetaObject
PUBLIC 135940 0 p
PUBLIC 135950 0 _native_vcclrit_reason
PUBLIC 135954 0 _native_dllmain_reason
PUBLIC 135960 0 CRT_MT
PUBLIC 1359b0 0 pmem_next
PUBLIC 1359c0 0 _imp__execute_onexit_table
PUBLIC 1359d0 0 _imp__initialize_onexit_table
PUBLIC 1359e0 0 _imp___acrt_iob_func
PUBLIC 135aa0 0 metatype_id
PUBLIC 135c30 0 t
PUBLIC 135c60 0 f
PUBLIC 136620 0 qt_meta_data_QNetworkAccessManager
PUBLIC 1368e0 0 qt_meta_stringdata_QNetworkAccessManager
PUBLIC 1375a0 0 months
PUBLIC 137620 0 zones
PUBLIC 138040 0 qt_meta_data_QDisabledNetworkReply
PUBLIC 138100 0 qt_meta_data_QNetworkReplyImpl
PUBLIC 138240 0 qt_meta_stringdata_QNetworkReplyImpl
PUBLIC 138620 0 qt_meta_stringdata_QNetworkReplyDataImpl
PUBLIC 1387e0 0 qt_meta_data_QNetworkReplyFileImpl
PUBLIC 138880 0 qt_meta_stringdata_QNetworkReplyFileImpl
PUBLIC 1392a0 0 qt_meta_data_QFtp
PUBLIC 139740 0 qt_meta_data_QFtpPI
PUBLIC 1398e0 0 qt_meta_stringdata_QFtpPI
PUBLIC 139ac0 0 qt_meta_data_QFtpDTP
PUBLIC 139c40 0 qt_meta_stringdata_QFtpDTP
PUBLIC 13ab10 0 Http2clientPreface
PUBLIC 13b640 0 qt_meta_data_QHttpNetworkConnection
PUBLIC 13bce0 0 qt_meta_data_QHttpNetworkConnectionChannel
PUBLIC 13be80 0 qt_meta_stringdata_QHttpNetworkConnectionChannel
PUBLIC 13c35e 0 httpMagic
PUBLIC 13e320 0 spdyDictionary
PUBLIC 13eac0 0 qt_meta_data_QNetworkSession
PUBLIC 13ec80 0 qt_meta_stringdata_QNetworkSession
PUBLIC 13f220 0 qt_meta_stringdata_QNetworkConfigurationManager
PUBLIC 13fa40 0 qt_meta_data_QBearerEngine
PUBLIC 13fee0 0 qt_meta_data_QDnsLookup
PUBLIC 1400e0 0 qt_meta_stringdata_QDnsLookup
PUBLIC 140640 0 zeroes
PUBLIC 141ac0 0 qt_meta_data_QAbstractSocket
PUBLIC 141de0 0 qt_meta_stringdata_QAbstractSocket
PUBLIC 142e60 0 qt_meta_stringdata_QTcpServer
PUBLIC 1453a0 0 qt_meta_data_QLocalSocket
PUBLIC 145740 0 qt_meta_data_QLocalServer
PUBLIC 147040 0 certificate_blacklist
PUBLIC 1472e8 0 NextProtocolHttp1_1
PUBLIC 1472f1 0 NextProtocolSpdy3_0
PUBLIC 1472f8 0 ALPNProtocolHTTP2
PUBLIC 1472fc 0 defaultSslOptions
PUBLIC 148360 0 qt_meta_data_QSslSocket
PUBLIC 148640 0 qt_meta_stringdata_QSslSocket
PUBLIC 1490d0 0 tlsNamedCurveNIDsEnd
PUBLIC 149540 0 qbytearray_literal
PUBLIC 149580 0 qstring_literal
PUBLIC 14a520 0 qt_meta_data_QNetworkAccessCache
PUBLIC 14a580 0 qt_meta_stringdata_QNetworkAccessCache
PUBLIC 14a6c0 0 qt_meta_data_QNetworkAccessBackend
PUBLIC 14ac60 0 qt_meta_data_QNetworkAccessFileBackend
PUBLIC 14acc0 0 qt_meta_stringdata_QNetworkAccessFileBackend
PUBLIC 14ad40 0 qt_meta_data_QNetworkCookieJar
PUBLIC 14ad80 0 qt_meta_stringdata_QNetworkCookieJar
PUBLIC 14ae40 0 qt_meta_data_QNetworkReply
PUBLIC 14b100 0 qt_meta_stringdata_QNetworkReply
PUBLIC 14bac0 0 qt_meta_data_QAbstractNetworkCache
PUBLIC 14bb20 0 qt_meta_stringdata_QAbstractNetworkCache
PUBLIC 14bbe0 0 qt_meta_data_QNetworkFile
PUBLIC 14bcc0 0 qt_meta_stringdata_QNetworkFile
PUBLIC 14bf00 0 qt_meta_data_QNetworkAccessFtpBackend
PUBLIC 14bfc0 0 qt_meta_stringdata_QNetworkAccessFtpBackend
PUBLIC 14c1e0 0 qt_meta_stringdata_QNetworkDiskCache
PUBLIC 14c380 0 qt_meta_stringdata_QHttp2ProtocolHandler
PUBLIC 14c540 0 qt_meta_stringdata_QHttpMultiPart
PUBLIC 14c8a0 0 qt_meta_stringdata_QHttpNetworkReply
PUBLIC 14cf20 0 qt_meta_data_QNonContiguousByteDeviceThreadForwardImpl
PUBLIC 14d1e0 0 qt_meta_data_QHttpThreadDelegate
PUBLIC 14d6a0 0 qt_meta_stringdata_QHttpThreadDelegate
PUBLIC 14e1c0 0 qt_meta_data_QNetworkReplyHttpImpl
PUBLIC 14e6e0 0 qt_meta_stringdata_QNetworkReplyHttpImpl
PUBLIC 14f160 0 qt_meta_data_QSpdyProtocolHandler
PUBLIC 14f560 0 qt_meta_stringdata_QNetworkConfigurationManagerPrivate
PUBLIC 14f8c0 0 qt_meta_data_QNetworkSessionPrivate
PUBLIC 14f9e0 0 qt_meta_stringdata_QNetworkSessionPrivate
PUBLIC 14fc80 0 qt_meta_data_QBearerEnginePlugin
PUBLIC 14fd20 0 qt_meta_data_QDnsLookupThreadPool
PUBLIC 14fd80 0 qt_meta_stringdata_QDnsLookupThreadPool
PUBLIC 14fe60 0 qt_meta_stringdata_QDnsLookupRunnable
PUBLIC 14ffe0 0 qt_meta_stringdata_QHostInfoLookupManager
PUBLIC 150060 0 qt_meta_data_QAbstractHostInfoLookupManager
PUBLIC 1500a0 0 qt_meta_stringdata_QAbstractHostInfoLookupManager
PUBLIC 1500e0 0 qt_meta_data_QHostInfoAgent
PUBLIC 150160 0 qt_meta_data_QHostInfoResult
PUBLIC 1501e0 0 qt_meta_stringdata_QHostInfoResult
PUBLIC 150300 0 qt_meta_data_QNetworkProxyQuery
PUBLIC 150380 0 qt_meta_stringdata_QNetworkProxyQuery
PUBLIC 1504c0 0 qt_meta_data_QAbstractSocketEngine
PUBLIC 1505a0 0 qt_meta_stringdata_QAbstractSocketEngine
PUBLIC 1507e0 0 qt_meta_data_QTcpSocket
PUBLIC 1508a0 0 qt_meta_data_QUdpSocket
PUBLIC 1509e0 0 qt_meta_data_QSocks5SocketEngine
PUBLIC 150ea0 0 qt_meta_data_QHttpSocketEngine
PUBLIC 150fe0 0 qt_meta_stringdata_QHttpSocketEngine
PUBLIC 151320 0 qt_meta_stringdata_QNativeSocketEngine
PUBLIC 1513c0 0 qt_meta_data_QWindowsCaRootFetcher
PUBLIC 151540 0 GS_ExceptionPointers
PUBLIC 151560 0 _dyn_tls_init_callback
PUBLIC 151a20 0 fivesbits
PUBLIC 151ae0 0 p05
PUBLIC 151b00 0 _tens_D2A
PUBLIC 151bc0 0 _tinytens_D2A
PUBLIC 151c00 0 _bigtens_D2A
PUBLIC 171000 0 atexit_table
PUBLIC 171050 0 valid
PUBLIC 171120 0 decoder
PUBLIC 171d80 0 SizeUpdate
PUBLIC 171d82 0 LiteralNeverIndexing
PUBLIC 171d84 0 LiteralNoIndexing
PUBLIC 171d86 0 LiteralIncrementalIndexing
PUBLIC 171d88 0 Indexed
PUBLIC 171da0 0 table
PUBLIC 171e00 0 connections
PUBLIC 171e40 0 preferredConfigurationChangedSignal
PUBLIC 171e58 0 connManager_mutex
PUBLIC 171e60 0 appShutdown
PUBLIC 171e68 0 connManager_ptr
PUBLIC 171e70 0 tls
PUBLIC 171e88 0 mutex
PUBLIC 171f10 0 signal_index
PUBLIC 172050 0 local_freeaddrinfo
PUBLIC 172058 0 local_getaddrinfo
PUBLIC 172060 0 local_getnameinfo
PUBLIC 172070 0 done
PUBLIC 172080 0 ptrConvertInterfaceLuidToIndex
PUBLIC 172088 0 ptrConvertInterfaceLuidToName
PUBLIC 172090 0 ptrConvertInterfaceIndexToLuid
PUBLIC 172148 0 ptrGetUserName
PUBLIC 172150 0 ptrWinHttpCloseHandle
PUBLIC 172160 0 ptrWinHttpOpen
PUBLIC 172220 0 udpMessagePeekBuffer
PUBLIC 174250 0 category
PUBLIC 1742e0 0 s_loadRootCertsOnDemand
PUBLIC 1742e1 0 s_loadedCiphersAndCerts
PUBLIC 1742e2 0 s_libraryLoaded
PUBLIC 1742e8 0 ptrCertCloseStore
PUBLIC 1742f0 0 ptrCertFindCertificateInStore
PUBLIC 174320 0 guard
PUBLIC 174350 0 holder
PUBLIC 174370 0 triedToResolveSymbols
PUBLIC 174371 0 symbolsResolved
PUBLIC 174378 0 q_PKCS12_free
PUBLIC 174380 0 q_d2i_PKCS12_bio
PUBLIC 174388 0 q_PKCS12_parse
PUBLIC 1743a0 0 q_EC_KEY_free
PUBLIC 1743a8 0 q_EC_KEY_new_by_curve_name
PUBLIC 1743b0 0 q_EC_KEY_dup
PUBLIC 1743c0 0 q_DH_check
PUBLIC 1743c8 0 q_i2d_DHparams
PUBLIC 1743d0 0 q_d2i_DHparams
PUBLIC 1743e0 0 q_DH_new
PUBLIC 1743f0 0 q_SSL_CTX_set_alpn_select_cb
PUBLIC 1743f8 0 q_SSL_set_alpn_protos
PUBLIC 174400 0 q_SSL_get0_next_proto_negotiated
PUBLIC 174410 0 q_SSL_select_next_proto
PUBLIC 174418 0 q_d2i_SSL_SESSION
PUBLIC 174420 0 q_i2d_SSL_SESSION
PUBLIC 174428 0 q_SSLeay_version
PUBLIC 174438 0 q_SSL_CTX_load_verify_locations
PUBLIC 174448 0 q_OPENSSL_add_all_algorithms_noconf
PUBLIC 174458 0 q_X509_STORE_CTX_get_chain
PUBLIC 174460 0 q_X509_STORE_CTX_get_current_cert
PUBLIC 174468 0 q_X509_STORE_CTX_get_error_depth
PUBLIC 174478 0 q_X509_STORE_CTX_set_purpose
PUBLIC 174480 0 q_X509_STORE_CTX_init
PUBLIC 174488 0 q_X509_STORE_CTX_free
PUBLIC 174498 0 q_X509_STORE_new
PUBLIC 1744a0 0 q_X509_STORE_free
PUBLIC 1744a8 0 q_X509_PUBKEY_get
PUBLIC 1744b8 0 q_X509_NAME_ENTRY_get_data
PUBLIC 1744c0 0 q_X509_NAME_get_entry
PUBLIC 1744c8 0 q_X509_NAME_entry_count
PUBLIC 1744d0 0 q_X509_verify_cert
PUBLIC 1744e0 0 q_X509_get_issuer_name
PUBLIC 1744f8 0 q_AUTHORITY_KEYID_free
PUBLIC 174500 0 q_BASIC_CONSTRAINTS_free
PUBLIC 174508 0 q_X509_EXTENSION_get_data
PUBLIC 174510 0 q_X509_EXTENSION_get_critical
PUBLIC 174528 0 q_X509_get_ext_d2i
PUBLIC 174530 0 q_X509_get_ext_count
PUBLIC 174538 0 q_X509_get_ext
PUBLIC 174550 0 q_X509_print
PUBLIC 174558 0 q_X509_dup
PUBLIC 174560 0 q_X509_cmp
PUBLIC 174568 0 q_SSL_write
PUBLIC 174570 0 q_TLSv1_2_server_method
PUBLIC 174580 0 q_TLSv1_server_method
PUBLIC 174588 0 q_SSLv23_server_method
PUBLIC 174590 0 q_SSLv3_server_method
PUBLIC 1745a0 0 q_TLSv1_1_client_method
PUBLIC 1745a8 0 q_TLSv1_client_method
PUBLIC 1745b0 0 q_SSLv23_client_method
PUBLIC 1745b8 0 q_SSLv3_client_method
PUBLIC 1745c0 0 q_SSL_CTX_use_psk_identity_hint
PUBLIC 1745c8 0 q_SSL_set_psk_server_callback
PUBLIC 1745d0 0 q_SSL_set_psk_client_callback
PUBLIC 1745e0 0 q_SSL_set_ex_data
PUBLIC 1745e8 0 q_SSL_get_ex_new_index
PUBLIC 1745f0 0 q_SSL_get_session
PUBLIC 174600 0 q_SSL_SESSION_free
PUBLIC 174608 0 q_SSL_set_session
PUBLIC 174610 0 q_SSL_shutdown
PUBLIC 174620 0 q_SSL_set_accept_state
PUBLIC 174630 0 q_SSL_read
PUBLIC 174638 0 q_SSL_ctrl
PUBLIC 174640 0 q_SSL_new
PUBLIC 174648 0 q_SSL_load_error_strings
PUBLIC 174650 0 q_SSL_library_init
PUBLIC 174658 0 q_SSL_get_verify_result
PUBLIC 174660 0 q_SSL_get_peer_certificate
PUBLIC 174670 0 q_SSL_get_error
PUBLIC 174680 0 q_SSL_get_current_cipher
PUBLIC 174688 0 q_SSL_get_ciphers
PUBLIC 174690 0 q_SSL_free
PUBLIC 174698 0 q_SSL_CTX_get_cert_store
PUBLIC 1746a0 0 q_SSL_CTX_use_PrivateKey_file
PUBLIC 1746a8 0 q_SSL_CTX_use_RSAPrivateKey
PUBLIC 1746b0 0 q_SSL_CTX_use_PrivateKey
PUBLIC 1746c0 0 q_SSL_CTX_use_certificate
PUBLIC 1746c8 0 q_SSL_CTX_set_verify_depth
PUBLIC 1746d0 0 q_SSL_CTX_set_verify
PUBLIC 1746e0 0 q_SSL_CTX_set_cipher_list
PUBLIC 1746e8 0 q_SSL_CTX_new
PUBLIC 1746f0 0 q_SSL_CTX_free
PUBLIC 1746f8 0 q_SSL_CTX_ctrl
PUBLIC 174700 0 q_SSL_CTX_check_private_key
PUBLIC 174708 0 q_SSL_connect
PUBLIC 174710 0 q_SSL_CIPHER_get_bits
PUBLIC 174718 0 q_SSL_CIPHER_description
PUBLIC 174720 0 q_SSL_clear
PUBLIC 174728 0 q_SSL_accept
PUBLIC 174730 0 q_sk_value
PUBLIC 174738 0 q_sk_free
PUBLIC 174750 0 q_sk_pop_free
PUBLIC 174758 0 q_sk_num
PUBLIC 174760 0 q_RSA_free
PUBLIC 174768 0 q_RSA_new
PUBLIC 174770 0 q_RAND_status
PUBLIC 174778 0 q_RAND_seed
PUBLIC 174780 0 q_PEM_write_bio_EC_PUBKEY
PUBLIC 174788 0 q_PEM_write_bio_RSA_PUBKEY
PUBLIC 174798 0 q_PEM_read_bio_EC_PUBKEY
PUBLIC 1747a0 0 q_PEM_read_bio_RSA_PUBKEY
PUBLIC 1747a8 0 q_PEM_read_bio_DSA_PUBKEY
PUBLIC 1747b8 0 q_PEM_write_bio_ECPrivateKey
PUBLIC 1747c0 0 q_PEM_write_bio_RSAPrivateKey
PUBLIC 1747c8 0 q_PEM_write_bio_DSAPrivateKey
PUBLIC 1747d0 0 q_PEM_read_bio_DHparams
PUBLIC 1747d8 0 q_PEM_read_bio_ECPrivateKey
PUBLIC 1747e0 0 q_PEM_read_bio_RSAPrivateKey
PUBLIC 1747e8 0 q_PEM_read_bio_DSAPrivateKey
PUBLIC 174800 0 q_OBJ_obj2txt
PUBLIC 174808 0 q_i2t_ASN1_OBJECT
PUBLIC 174810 0 q_OBJ_ln2nid
PUBLIC 174818 0 q_OBJ_sn2nid
PUBLIC 174820 0 q_OBJ_nid2ln
PUBLIC 174828 0 q_OBJ_nid2sn
PUBLIC 174830 0 q_i2d_X509
PUBLIC 174840 0 q_EVP_PKEY_new
PUBLIC 174848 0 q_EVP_PKEY_get1_EC_KEY
PUBLIC 174850 0 q_EVP_PKEY_get1_RSA
PUBLIC 174860 0 q_EVP_PKEY_free
PUBLIC 174868 0 q_EVP_PKEY_set1_EC_KEY
PUBLIC 174870 0 q_EVP_PKEY_set1_DSA
PUBLIC 174880 0 q_EVP_PKEY_assign
PUBLIC 174890 0 q_EVP_des_ede3_cbc
PUBLIC 1748a0 0 q_EVP_CipherFinal
PUBLIC 1748a8 0 q_EVP_CipherUpdate
PUBLIC 1748b0 0 q_EVP_CipherInit
PUBLIC 1748c0 0 q_EVP_CIPHER_CTX_ctrl
PUBLIC 1748c8 0 q_EVP_CIPHER_CTX_init
PUBLIC 1748d0 0 q_EVP_CIPHER_CTX_cleanup
PUBLIC 1748d8 0 q_ERR_free_strings
PUBLIC 1748e0 0 q_ERR_get_error
PUBLIC 1748e8 0 q_ERR_error_string
PUBLIC 1748f0 0 q_d2i_X509
PUBLIC 174900 0 q_DSA_new
PUBLIC 174910 0 q_CRYPTO_set_id_callback
PUBLIC 174918 0 q_CRYPTO_set_locking_callback
PUBLIC 174920 0 q_CRYPTO_num_locks
PUBLIC 174928 0 q_EC_GROUP_get_degree
PUBLIC 174930 0 q_EC_KEY_get0_group
PUBLIC 174938 0 q_BN_mod_word
PUBLIC 174940 0 q_BN_num_bits
PUBLIC 174950 0 q_BIO_s_mem
PUBLIC 174958 0 q_BIO_read
PUBLIC 174960 0 q_BIO_new_mem_buf
PUBLIC 174970 0 q_BIO_free
PUBLIC 174978 0 q_BIO_ctrl
PUBLIC 174980 0 q_ASN1_STRING_to_UTF8
PUBLIC 174990 0 q_ASN1_STRING_data
PUBLIC 174998 0 q_ASN1_INTEGER_get
PUBLIC 1749a0 0 initialized
PUBLIC 1749c0 0 GS_ContextRecord
PUBLIC 174ea0 0 GS_ExceptionRecord
PUBLIC 174f40 0 mingw_initltssuo_force
PUBLIC 174f44 0 mingw_initltsdyn_force
PUBLIC 174f48 0 mingw_initltsdrot_force
PUBLIC 174f4c 0 tls_index
PUBLIC 174f50 0 mingw_app_type
PUBLIC 174f60 0 was_init
PUBLIC 174f64 0 maxSections
PUBLIC 174f68 0 the_secs
PUBLIC 174f80 0 _mingw_oldexcpt_handler
PUBLIC 174f88 0 was_here
PUBLIC 174fa0 0 emu_xdata
PUBLIC 1750a0 0 emu_pdata
PUBLIC 175228 0 _mingwthr_cs_init
PUBLIC 175240 0 _mingwthr_cs
PUBLIC 175280 0 _RUNTIME_PSEUDO_RELOC_LIST__
PUBLIC 175281 0 _RUNTIME_PSEUDO_RELOC_LIST_END__
PUBLIC 175290 0 s_mbstate
PUBLIC 175298 0 internal_mbstate
PUBLIC 1752a0 0 p5s
PUBLIC 175bc0 0 freelist
PUBLIC 175c10 0 dtoa_CS_init
PUBLIC 175c20 0 dtoa_CritSec
PUBLIC 175c88 0 _native_startup_lock
PUBLIC 175ca0 0 _hexdig_D2A
PUBLIC 18e000 0 _xc_a
PUBLIC 18e008 0 _xc_z
PUBLIC 18e010 0 _xi_a
PUBLIC 18e020 0 _xi_z
PUBLIC 18e028 0 _xl_a
PUBLIC 18e030 0 _xl_c
PUBLIC 18e038 0 _xl_d
PUBLIC 18e040 0 _xl_z
PUBLIC 18e048 0 _xd_a
PUBLIC 18e050 0 _xd_z
PUBLIC 18f000 0 tls_start
PUBLIC 18f008 0 tls_end
STACK CFI INIT 1000 c .cfa: $rsp .ra: .cfa 8 - ^
STACK CFI 1000 .cfa: $rsp 8 +
STACK CFI INIT 1010 1ef .cfa: $rsp .ra: .cfa 8 - ^
STACK CFI 1010 .cfa: $rsp 96 +
STACK CFI INIT 1200 12b .cfa: $rsp .ra: .cfa 8 - ^
STACK CFI 1200 .cfa: $rsp 80 +
STACK CFI INIT 1330 4f .cfa: $rsp .ra: .cfa 8 - ^
STACK CFI 1330 .cfa: $rsp 80 +
STACK CFI INIT 1380 f .cfa: $rsp .ra: .cfa 8 - ^
STACK CFI 1380 .cfa: $rsp 8 +
STACK CFI INIT 1390 c .cfa: $rsp .ra: .cfa 8 - ^
STACK CFI 1390 .cfa: $rsp 8 +
STACK CFI INIT 13a0 1 .cfa: $rsp .ra: .cfa 8 - ^
STACK CFI 13a0 .cfa: $rsp 8 +
STACK CFI INIT 13b0 156 .cfa: $rsp .ra: .cfa 8 - ^
STACK CFI 13b0 .cfa: $rsp 80 +
STACK CFI INIT 1510 2f6 .cfa: $rsp .ra: .cfa 8 - ^
STACK CFI 1510 .cfa: $rsp 112 +
STACK CFI INIT 1810 5 .cfa: $rsp .ra: .cfa 8 - ^
STACK CFI 1810 .cfa: $rsp 8 +
STACK CFI INIT 1820 693 .cfa: $rsp .ra: .cfa 8 - ^
STACK CFI 1820 .cfa: $rsp 176 +
STACK CFI INIT 1ec0 6d8 .cfa: $rsp .ra: .cfa 8 - ^
STACK CFI 1ec0 .cfa: $rsp 208 +
STACK CFI INIT 25a0 9de .cfa: $rsp .ra: .cfa 8 - ^
STACK CFI 25a0 .cfa: $rsp 256 +
STACK CFI INIT 2f80 1039 .cfa: $rsp .ra: .cfa 8 - ^
STACK CFI 2f80 .cfa: $rsp 272 +
STACK CFI INIT 3fc0 1a .cfa: $rsp .ra: .cfa 8 - ^
STACK CFI 3fc0 .cfa: $rsp 8 +
STACK CFI INIT 3fe0 3c .cfa: $rsp .ra: .cfa 8 - ^
STACK CFI 3fe0 .cfa: $rsp 80 +
STACK CFI INIT 4020 49 .cfa: $rsp .ra: .cfa 8 - ^
STACK CFI 4020 .cfa: $rsp 80 +
STACK CFI INIT 4070 3a .cfa: $rsp .ra: .cfa 8 - ^
STACK CFI 4070 .cfa: $rsp 64 +
STACK CFI INIT 40b0 3a .cfa: $rsp .ra: .cfa 8 - ^
STACK CFI 40b0 .cfa: $rsp 64 +
STACK CFI INIT 40f0 3f .cfa: $rsp .ra: .cfa 8 - ^
STACK CFI 40f0 .cfa: $rsp 80 +
STACK CFI INIT 4130 49 .cfa: $rsp .ra: .cfa 8 - ^
STACK CFI 4130 .cfa: $rsp 80 +
STACK CFI INIT 4180 17 .cfa: $rsp .ra: .cfa 8 - ^
STACK CFI 4180 .cfa: $rsp 8 +
STACK CFI INIT 41a0 39 .cfa: $rsp .ra: .cfa 8 - ^
STACK CFI 41a0 .cfa: $rsp 64 +
STACK CFI INIT 41e0 41 .cfa: $rsp .ra: .cfa 8 - ^
STACK CFI 41e0 .cfa: $rsp 48 +
STACK CFI INIT 4230 41 .cfa: $rsp .ra: .cfa 8 - ^
STACK CFI 4230 .cfa: $rsp 48 +
STACK CFI INIT 4280 45 .cfa: $rsp .ra: .cfa 8 - ^
STACK CFI 4280 .cfa: $rsp 64 +
STACK CFI INIT 42d0 77 .cfa: $rsp .ra: .cfa 8 - ^
STACK CFI 42d0 .cfa: $rsp 80 +
STACK CFI INIT 4350 83 .cfa: $rsp .ra: .cfa 8 - ^
STACK CFI 4350 .cfa: $rsp 80 +
STACK CFI INIT 43e0 109 .cfa: $rsp .ra: .cfa 8 - ^
STACK CFI 43e0 .cfa: $rsp 96 +
STACK CFI INIT 44f0 1f .cfa: $rsp .ra: .cfa 8 - ^
STACK CFI 44f0 .cfa: $rsp 48 +
STACK CFI INIT 4510 21 .cfa: $rsp .ra: .cfa 8 - ^
STACK CFI 4510 .cfa: $rsp 48 +
STACK CFI INIT 4540 40 .cfa: $rsp .ra: .cfa 8 - ^
STACK CFI 4540 .cfa: $rsp 64 +
STACK CFI INIT 4580 c .cfa: $rsp .ra: .cfa 8 - ^
STACK CFI 4580 .cfa: $rsp 8 +
STACK CFI INIT 4590 5b .cfa: $rsp .ra: .cfa 8 - ^
STACK CFI 4590 .cfa: $rsp 80 +
STACK CFI INIT 45f0 9 .cfa: $rsp .ra: .cfa 8 - ^
STACK CFI 45f0 .cfa: $rsp 8 +
STACK CFI INIT 4600 4a .cfa: $rsp .ra: .cfa 8 - ^
STACK CFI 4600 .cfa: $rsp 64 +
STACK CFI INIT 4650 5c .cfa: $rsp .ra: .cfa 8 - ^
STACK CFI 4650 .cfa: $rsp 80 +
STACK CFI INIT 46b0 9f .cfa: $rsp .ra: .cfa 8 - ^
STACK CFI 46b0 .cfa: $rsp 80 +
STACK CFI INIT 4750 b .cfa: $rsp .ra: .cfa 8 - ^
STACK CFI 4750 .cfa: $rsp 8 +
STACK CFI INIT 4760 c .cfa: $rsp .ra: .cfa 8 - ^
STACK CFI 4760 .cfa: $rsp 8 +
STACK CFI INIT 4770 10 .cfa: $rsp .ra: .cfa 8 - ^
STACK CFI 4770 .cfa: $rsp 8 +
STACK CFI INIT 4780 21 .cfa: $rsp .ra: .cfa 8 - ^
STACK CFI 4780 .cfa: $rsp 48 +
STACK CFI INIT 47b0 dc .cfa: $rsp .ra: .cfa 8 - ^
STACK CFI 47b0 .cfa: $rsp 64 +
STACK CFI INIT 4890 d5 .cfa: $rsp .ra: .cfa 8 - ^
STACK CFI 4890 .cfa: $rsp 64 +
STACK CFI INIT 4970 76 .cfa: $rsp .ra: .cfa 8 - ^
STACK CFI 4970 .cfa: $rsp 80 +
STACK CFI INIT 49f0 137 .cfa: $rsp .ra: .cfa 8 - ^
STACK CFI 49f0 .cfa: $rsp 128 +
STACK CFI INIT 4b30 cc .cfa: $rsp .ra: .cfa 8 - ^
STACK CFI 4b30 .cfa: $rsp 80 +
STACK CFI INIT 4c00 85 .cfa: $rsp .ra: .cfa 8 - ^
STACK CFI 4c00 .cfa: $rsp 112 +
STACK CFI INIT 4c90 b .cfa: $rsp .ra: .cfa 8 - ^
STACK CFI 4c90 .cfa: $rsp 8 +
STACK CFI INIT 4ca0 b .cfa: $rsp .ra: .cfa 8 - ^
STACK CFI 4ca0 .cfa: $rsp 8 +
STACK CFI INIT 4cb0 1c8 .cfa: $rsp .ra: .cfa 8 - ^
STACK CFI 4cb0 .cfa: $rsp 304 +
STACK CFI INIT 4e80 ca .cfa: $rsp .ra: .cfa 8 - ^
STACK CFI 4e80 .cfa: $rsp 96 +
STACK CFI INIT 4f50 61 .cfa: $rsp .ra: .cfa 8 - ^
STACK CFI 4f50 .cfa: $rsp 80 +
STACK CFI INIT 4fc0 6b .cfa: $rsp .ra: .cfa 8 - ^
STACK CFI 4fc0 .cfa: $rsp 112 +
STACK CFI INIT 5030 75 .cfa: $rsp .ra: .cfa 8 - ^
STACK CFI 5030 .cfa: $rsp 112 +
STACK CFI INIT 50b0 12a .cfa: $rsp .ra: .cfa 8 - ^
STACK CFI 50b0 .cfa: $rsp 128 +
STACK CFI INIT 51e0 2a .cfa: $rsp .ra: .cfa 8 - ^
STACK CFI 51e0 .cfa: $rsp 48 +
STACK CFI INIT 5210 2a .cfa: $rsp .ra: .cfa 8 - ^
STACK CFI 5210 .cfa: $rsp 48 +
STACK CFI INIT 5240 c4 .cfa: $rsp .ra: .cfa 8 - ^
STACK CFI 5240 .cfa: $rsp 96 +
STACK CFI INIT 5310 2a .cfa: $rsp .ra: .cfa 8 - ^
STACK CFI 5310 .cfa: $rsp 48 +
STACK CFI INIT 5340 6c .cfa: $rsp .ra: .cfa 8 - ^
STACK CFI 5340 .cfa: $rsp 80 +
STACK CFI INIT 53b0 2a .cfa: $rsp .ra: .cfa 8 - ^
STACK CFI 53b0 .cfa: $rsp 48 +
STACK CFI INIT 53e0 6c .cfa: $rsp .ra: .cfa 8 - ^
STACK CFI 53e0 .cfa: $rsp 80 +
STACK CFI INIT 5450 2a .cfa: $rsp .ra: .cfa 8 - ^
STACK CFI 5450 .cfa: $rsp 48 +
STACK CFI INIT 5480 86 .cfa: $rsp .ra: .cfa 8 - ^
STACK CFI 5480 .cfa: $rsp 112 +
STACK CFI INIT 5510 76 .cfa: $rsp .ra: .cfa 8 - ^
STACK CFI 5510 .cfa: $rsp 80 +
STACK CFI INIT 5590 52 .cfa: $rsp .ra: .cfa 8 - ^
STACK CFI 5590 .cfa: $rsp 64 +
STACK CFI INIT 55f0 4c6 .cfa: $rsp .ra: .cfa 8 - ^
STACK CFI 55f0 .cfa: $rsp 176 +
STACK CFI INIT 5ac0 288 .cfa: $rsp .ra: .cfa 8 - ^
STACK CFI 5ac0 .cfa: $rsp 144 +
STACK CFI INIT 5d50 10 .cfa: $rsp .ra: .cfa 8 - ^
STACK CFI 5d50 .cfa: $rsp 8 +
STACK CFI INIT 5d60 a7 .cfa: $rsp .ra: .cfa 8 - ^
STACK CFI 5d60 .cfa: $rsp 80 +
STACK CFI INIT 5e10 a0 .cfa: $rsp .ra: .cfa 8 - ^
STACK CFI 5e10 .cfa: $rsp 96 +
STACK CFI INIT 5eb0 26 .cfa: $rsp .ra: .cfa 8 - ^
STACK CFI 5eb0 .cfa: $rsp 48 +
STACK CFI INIT 5ee0 26 .cfa: $rsp .ra: .cfa 8 - ^
STACK CFI 5ee0 .cfa: $rsp 48 +
STACK CFI INIT 5f10 36 .cfa: $rsp .ra: .cfa 8 - ^
STACK CFI 5f10 .cfa: $rsp 48 +
STACK CFI INIT 5f50 18d .cfa: $rsp .ra: .cfa 8 - ^
STACK CFI 5f50 .cfa: $rsp 96 +
STACK CFI INIT 60e0 244 .cfa: $rsp .ra: .cfa 8 - ^
STACK CFI 60e0 .cfa: $rsp 144 +
STACK CFI INIT 6330 40a .cfa: $rsp .ra: .cfa 8 - ^
STACK CFI 6330 .cfa: $rsp 144 +
STACK CFI INIT 6740 31 .cfa: $rsp .ra: .cfa 8 - ^
STACK CFI 6740 .cfa: $rsp 64 +
STACK CFI INIT 6780 114 .cfa: $rsp .ra: .cfa 8 - ^
STACK CFI 6780 .cfa: $rsp 96 +
STACK CFI INIT 68a0 b8 .cfa: $rsp .ra: .cfa 8 - ^
STACK CFI 68a0 .cfa: $rsp 96 +
STACK CFI INIT 6960 12b .cfa: $rsp .ra: .cfa 8 - ^
STACK CFI 6960 .cfa: $rsp 80 +
STACK CFI INIT 6a90 363 .cfa: $rsp .ra: .cfa 8 - ^
STACK CFI 6a90 .cfa: $rsp 160 +
STACK CFI INIT 6e00 50 .cfa: $rsp .ra: .cfa 8 - ^
STACK CFI 6e00 .cfa: $rsp 80 +
STACK CFI INIT 6e50 50 .cfa: $rsp .ra: .cfa 8 - ^
STACK CFI 6e50 .cfa: $rsp 80 +
STACK CFI INIT 6ea0 55 .cfa: $rsp .ra: .cfa 8 - ^
STACK CFI 6ea0 .cfa: $rsp 96 +
STACK CFI INIT 6f00 26f .cfa: $rsp .ra: .cfa 8 - ^
STACK CFI 6f00 .cfa: $rsp 144 +
STACK CFI INIT 7170 bd0 .cfa: $rsp .ra: .cfa 8 - ^
STACK CFI 7170 .cfa: $rsp 176 +
STACK CFI INIT 7d40 402 .cfa: $rsp .ra: .cfa 8 - ^
STACK CFI 7d40 .cfa: $rsp 176 +
STACK CFI INIT 8150 226 .cfa: $rsp .ra: .cfa 8 - ^
STACK CFI 8150 .cfa: $rsp 176 +
STACK CFI INIT 8380 2d6 .cfa: $rsp .ra: .cfa 8 - ^
STACK CFI 8380 .cfa: $rsp 176 +
STACK CFI INIT 8660 6fd .cfa: $rsp .ra: .cfa 8 - ^
STACK CFI 8660 .cfa: $rsp 144 +
STACK CFI INIT 8d60 f95 .cfa: $rsp .ra: .cfa 8 - ^
STACK CFI 8d60 .cfa: $rsp 288 +
STACK CFI INIT 9d00 2bc .cfa: $rsp .ra: .cfa 8 - ^
STACK CFI 9d00 .cfa: $rsp 128 +
STACK CFI INIT 9fc0 280 .cfa: $rsp .ra: .cfa 8 - ^
STACK CFI 9fc0 .cfa: $rsp 176 +
STACK CFI INIT a240 1846 .cfa: $rsp .ra: .cfa 8 - ^
STACK CFI a240 .cfa: $rsp 112 +
STACK CFI INIT ba90 1f .cfa: $rsp .ra: .cfa 8 - ^
STACK CFI ba90 .cfa: $rsp 48 +
STACK CFI INIT bab0 47 .cfa: $rsp .ra: .cfa 8 - ^
STACK CFI bab0 .cfa: $rsp 64 +
STACK CFI INIT bb00 cc .cfa: $rsp .ra: .cfa 8 - ^
STACK CFI bb00 .cfa: $rsp 80 +
STACK CFI INIT bbd0 77 .cfa: $rsp .ra: .cfa 8 - ^
STACK CFI bbd0 .cfa: $rsp 80 +
STACK CFI INIT bc50 86 .cfa: $rsp .ra: .cfa 8 - ^
STACK CFI bc50 .cfa: $rsp 80 +
STACK CFI INIT bce0 b0 .cfa: $rsp .ra: .cfa 8 - ^
STACK CFI bce0 .cfa: $rsp 80 +
STACK CFI INIT bd90 b6 .cfa: $rsp .ra: .cfa 8 - ^
STACK CFI bd90 .cfa: $rsp 64 +
STACK CFI INIT be50 16 .cfa: $rsp .ra: .cfa 8 - ^
STACK CFI be50 .cfa: $rsp 8 +
STACK CFI INIT be70 39 .cfa: $rsp .ra: .cfa 8 - ^
STACK CFI be70 .cfa: $rsp 8 +
STACK CFI INIT beb0 57 .cfa: $rsp .ra: .cfa 8 - ^
STACK CFI beb0 .cfa: $rsp 48 +
STACK CFI INIT bf10 4 .cfa: $rsp .ra: .cfa 8 - ^
STACK CFI bf10 .cfa: $rsp 8 +
STACK CFI INIT bf20 4 .cfa: $rsp .ra: .cfa 8 - ^
STACK CFI bf20 .cfa: $rsp 8 +
STACK CFI INIT bf30 46 .cfa: $rsp .ra: .cfa 8 - ^
STACK CFI bf30 .cfa: $rsp 48 +
STACK CFI INIT bf80 259 .cfa: $rsp .ra: .cfa 8 - ^
STACK CFI bf80 .cfa: $rsp 112 +
STACK CFI INIT c1e0 7c .cfa: $rsp .ra: .cfa 8 - ^
STACK CFI c1e0 .cfa: $rsp 48 +
STACK CFI INIT c260 1f .cfa: $rsp .ra: .cfa 8 - ^
STACK CFI c260 .cfa: $rsp 48 +
STACK CFI INIT c280 6e .cfa: $rsp .ra: .cfa 8 - ^
STACK CFI c280 .cfa: $rsp 96 +
STACK CFI INIT c2f0 99 .cfa: $rsp .ra: .cfa 8 - ^
STACK CFI c2f0 .cfa: $rsp 112 +
STACK CFI INIT c390 24 .cfa: $rsp .ra: .cfa 8 - ^
STACK CFI c390 .cfa: $rsp 48 +
STACK CFI INIT c3c0 9c .cfa: $rsp .ra: .cfa 8 - ^
STACK CFI c3c0 .cfa: $rsp 96 +
STACK CFI INIT c460 ca .cfa: $rsp .ra: .cfa 8 - ^
STACK CFI c460 .cfa: $rsp 64 +
STACK CFI INIT c530 aa .cfa: $rsp .ra: .cfa 8 - ^
STACK CFI c530 .cfa: $rsp 80 +
STACK CFI INIT c5e0 d6 .cfa: $rsp .ra: .cfa 8 - ^
STACK CFI c5e0 .cfa: $rsp 96 +
STACK CFI INIT c6c0 2cd .cfa: $rsp .ra: .cfa 8 - ^
STACK CFI c6c0 .cfa: $rsp 160 +
STACK CFI INIT c990 27d .cfa: $rsp .ra: .cfa 8 - ^
STACK CFI c990 .cfa: $rsp 144 +
STACK CFI INIT cc10 12b .cfa: $rsp .ra: .cfa 8 - ^
STACK CFI cc10 .cfa: $rsp 112 +
STACK CFI INIT cd40 2a9 .cfa: $rsp .ra: .cfa 8 - ^
STACK CFI cd40 .cfa: $rsp 176 +
STACK CFI INIT cff0 83 .cfa: $rsp .ra: .cfa 8 - ^
STACK CFI cff0 .cfa: $rsp 80 +
STACK CFI INIT d080 77 .cfa: $rsp .ra: .cfa 8 - ^
STACK CFI d080 .cfa: $rsp 80 +
STACK CFI INIT d100 87 .cfa: $rsp .ra: .cfa 8 - ^
STACK CFI d100 .cfa: $rsp 48 +
STACK CFI INIT d190 1bd .cfa: $rsp .ra: .cfa 8 - ^
STACK CFI d190 .cfa: $rsp 96 +
STACK CFI INIT d350 263 .cfa: $rsp .ra: .cfa 8 - ^
STACK CFI d350 .cfa: $rsp 112 +
STACK CFI INIT d5c0 1ed .cfa: $rsp .ra: .cfa 8 - ^
STACK CFI d5c0 .cfa: $rsp 112 +
STACK CFI INIT d7b0 15 .cfa: $rsp .ra: .cfa 8 - ^
STACK CFI d7b0 .cfa: $rsp 8 +
STACK CFI INIT d7d0 48 .cfa: $rsp .ra: .cfa 8 - ^
STACK CFI d7d0 .cfa: $rsp 48 +
STACK CFI INIT d820 5b .cfa: $rsp .ra: .cfa 8 - ^
STACK CFI d820 .cfa: $rsp 64 +
STACK CFI INIT d880 1f .cfa: $rsp .ra: .cfa 8 - ^
STACK CFI d880 .cfa: $rsp 48 +
STACK CFI INIT d8a0 1 .cfa: $rsp .ra: .cfa 8 - ^
STACK CFI d8a0 .cfa: $rsp 8 +
STACK CFI INIT d8b0 1 .cfa: $rsp .ra: .cfa 8 - ^
STACK CFI d8b0 .cfa: $rsp 8 +
STACK CFI INIT d8c0 1 .cfa: $rsp .ra: .cfa 8 - ^
STACK CFI d8c0 .cfa: $rsp 8 +
STACK CFI INIT d8d0 16 .cfa: $rsp .ra: .cfa 8 - ^
STACK CFI d8d0 .cfa: $rsp 48 +
STACK CFI INIT d8f0 b .cfa: $rsp .ra: .cfa 8 - ^
STACK CFI d8f0 .cfa: $rsp 8 +
STACK CFI INIT d900 21 .cfa: $rsp .ra: .cfa 8 - ^
STACK CFI d900 .cfa: $rsp 48 +
STACK CFI INIT d930 99 .cfa: $rsp .ra: .cfa 8 - ^
STACK CFI d930 .cfa: $rsp 80 +
STACK CFI INIT d9d0 13 .cfa: $rsp .ra: .cfa 8 - ^
STACK CFI d9d0 .cfa: $rsp 8 +
STACK CFI INIT d9f0 c .cfa: $rsp .ra: .cfa 8 - ^
STACK CFI d9f0 .cfa: $rsp 8 +
STACK CFI INIT da00 9 .cfa: $rsp .ra: .cfa 8 - ^
STACK CFI da00 .cfa: $rsp 8 +
STACK CFI INIT da10 9 .cfa: $rsp .ra: .cfa 8 - ^
STACK CFI da10 .cfa: $rsp 8 +
STACK CFI INIT da20 9 .cfa: $rsp .ra: .cfa 8 - ^
STACK CFI da20 .cfa: $rsp 8 +
STACK CFI INIT da30 9 .cfa: $rsp .ra: .cfa 8 - ^
STACK CFI da30 .cfa: $rsp 8 +
STACK CFI INIT da40 9 .cfa: $rsp .ra: .cfa 8 - ^
STACK CFI da40 .cfa: $rsp 8 +
STACK CFI INIT da50 9 .cfa: $rsp .ra: .cfa 8 - ^
STACK CFI da50 .cfa: $rsp 8 +
STACK CFI INIT da60 1e .cfa: $rsp .ra: .cfa 8 - ^
STACK CFI da60 .cfa: $rsp 48 +
STACK CFI INIT da80 10 .cfa: $rsp .ra: .cfa 8 - ^
STACK CFI da80 .cfa: $rsp 8 +
STACK CFI INIT da90 d .cfa: $rsp .ra: .cfa 8 - ^
STACK CFI da90 .cfa: $rsp 8 +
STACK CFI INIT daa0 1e .cfa: $rsp .ra: .cfa 8 - ^
STACK CFI daa0 .cfa: $rsp 48 +
STACK CFI INIT dac0 1e .cfa: $rsp .ra: .cfa 8 - ^
STACK CFI dac0 .cfa: $rsp 48 +
STACK CFI INIT dae0 10 .cfa: $rsp .ra: .cfa 8 - ^
STACK CFI dae0 .cfa: $rsp 8 +
STACK CFI INIT daf0 1e .cfa: $rsp .ra: .cfa 8 - ^
STACK CFI daf0 .cfa: $rsp 48 +
STACK CFI INIT db10 22 .cfa: $rsp .ra: .cfa 8 - ^
STACK CFI db10 .cfa: $rsp 48 +
STACK CFI INIT db40 12 .cfa: $rsp .ra: .cfa 8 - ^
STACK CFI db40 .cfa: $rsp 8 +
STACK CFI INIT db60 9 .cfa: $rsp .ra: .cfa 8 - ^
STACK CFI db60 .cfa: $rsp 8 +
STACK CFI INIT db70 9 .cfa: $rsp .ra: .cfa 8 - ^
STACK CFI db70 .cfa: $rsp 8 +
STACK CFI INIT db80 66 .cfa: $rsp .ra: .cfa 8 - ^
STACK CFI db80 .cfa: $rsp 128 +
STACK CFI INIT dbf0 42 .cfa: $rsp .ra: .cfa 8 - ^
STACK CFI dbf0 .cfa: $rsp 80 +
STACK CFI INIT dc40 9 .cfa: $rsp .ra: .cfa 8 - ^
STACK CFI dc40 .cfa: $rsp 8 +
STACK CFI INIT dc50 9 .cfa: $rsp .ra: .cfa 8 - ^
STACK CFI dc50 .cfa: $rsp 8 +
STACK CFI INIT dc60 9 .cfa: $rsp .ra: .cfa 8 - ^
STACK CFI dc60 .cfa: $rsp 8 +
STACK CFI INIT dc70 9 .cfa: $rsp .ra: .cfa 8 - ^
STACK CFI dc70 .cfa: $rsp 8 +
STACK CFI INIT dc80 16f .cfa: $rsp .ra: .cfa 8 - ^
STACK CFI dc80 .cfa: $rsp 80 +
STACK CFI INIT ddf0 1f .cfa: $rsp .ra: .cfa 8 - ^
STACK CFI ddf0 .cfa: $rsp 48 +
STACK CFI INIT de10 280 .cfa: $rsp .ra: .cfa 8 - ^
STACK CFI de10 .cfa: $rsp 112 +
STACK CFI INIT e090 177 .cfa: $rsp .ra: .cfa 8 - ^
STACK CFI e090 .cfa: $rsp 64 +
STACK CFI INIT e210 15f .cfa: $rsp .ra: .cfa 8 - ^
STACK CFI e210 .cfa: $rsp 96 +
STACK CFI INIT e370 6d8 .cfa: $rsp .ra: .cfa 8 - ^
STACK CFI e370 .cfa: $rsp 208 +
STACK CFI INIT ea50 83 .cfa: $rsp .ra: .cfa 8 - ^
STACK CFI ea50 .cfa: $rsp 80 +
STACK CFI INIT eae0 342 .cfa: $rsp .ra: .cfa 8 - ^
STACK CFI eae0 .cfa: $rsp 128 +
STACK CFI INIT ee30 3f .cfa: $rsp .ra: .cfa 8 - ^
STACK CFI ee30 .cfa: $rsp 48 +
STACK CFI INIT ee70 1f3 .cfa: $rsp .ra: .cfa 8 - ^
STACK CFI ee70 .cfa: $rsp 160 +
STACK CFI INIT f070 b6 .cfa: $rsp .ra: .cfa 8 - ^
STACK CFI f070 .cfa: $rsp 64 +
STACK CFI INIT f130 4b6 .cfa: $rsp .ra: .cfa 8 - ^
STACK CFI f130 .cfa: $rsp 224 +
STACK CFI INIT f5f0 5 .cfa: $rsp .ra: .cfa 8 - ^
STACK CFI f5f0 .cfa: $rsp 8 +
STACK CFI INIT f600 2d .cfa: $rsp .ra: .cfa 8 - ^
STACK CFI f600 .cfa: $rsp 48 +
STACK CFI INIT f630 3a .cfa: $rsp .ra: .cfa 8 - ^
STACK CFI f630 .cfa: $rsp 48 +
STACK CFI INIT f670 965 .cfa: $rsp .ra: .cfa 8 - ^
STACK CFI f670 .cfa: $rsp 464 +
STACK CFI INIT ffe0 256 .cfa: $rsp .ra: .cfa 8 - ^
STACK CFI ffe0 .cfa: $rsp 160 +
STACK CFI INIT 10240 30 .cfa: $rsp .ra: .cfa 8 - ^
STACK CFI 10240 .cfa: $rsp 48 +
STACK CFI INIT 10270 1 .cfa: $rsp .ra: .cfa 8 - ^
STACK CFI 10270 .cfa: $rsp 8 +
STACK CFI INIT 10280 f .cfa: $rsp .ra: .cfa 8 - ^
STACK CFI 10280 .cfa: $rsp 8 +
STACK CFI INIT 10290 29 .cfa: $rsp .ra: .cfa 8 - ^
STACK CFI 10290 .cfa: $rsp 48 +
STACK CFI INIT 102c0 1d .cfa: $rsp .ra: .cfa 8 - ^
STACK CFI 102c0 .cfa: $rsp 48 +
STACK CFI INIT 102e0 605 .cfa: $rsp .ra: .cfa 8 - ^
STACK CFI 102e0 .cfa: $rsp 208 +
STACK CFI INIT 108f0 191 .cfa: $rsp .ra: .cfa 8 - ^
STACK CFI 108f0 .cfa: $rsp 144 +
STACK CFI INIT 10a90 1 .cfa: $rsp .ra: .cfa 8 - ^
STACK CFI 10a90 .cfa: $rsp 8 +
STACK CFI INIT 10aa0 3c .cfa: $rsp .ra: .cfa 8 - ^
STACK CFI 10aa0 .cfa: $rsp 8 +
STACK CFI INIT 10ae0 b7 .cfa: $rsp .ra: .cfa 8 - ^
STACK CFI 10ae0 .cfa: $rsp 96 +
STACK CFI INIT 10ba0 375 .cfa: $rsp .ra: .cfa 8 - ^
STACK CFI 10ba0 .cfa: $rsp 160 +
STACK CFI INIT 10f20 10 .cfa: $rsp .ra: .cfa 8 - ^
STACK CFI 10f20 .cfa: $rsp 8 +
STACK CFI INIT 10f30 316 .cfa: $rsp .ra: .cfa 8 - ^
STACK CFI 10f30 .cfa: $rsp 64 +
STACK CFI INIT 11250 45 .cfa: $rsp .ra: .cfa 8 - ^
STACK CFI 11250 .cfa: $rsp 64 +
STACK CFI INIT 112a0 196 .cfa: $rsp .ra: .cfa 8 - ^
STACK CFI 112a0 .cfa: $rsp 64 +
STACK CFI INIT 11440 145 .cfa: $rsp .ra: .cfa 8 - ^
STACK CFI 11440 .cfa: $rsp 96 +
STACK CFI INIT 11590 74 .cfa: $rsp .ra: .cfa 8 - ^
STACK CFI 11590 .cfa: $rsp 80 +
STACK CFI INIT 11610 8 .cfa: $rsp .ra: .cfa 8 - ^
STACK CFI 11610 .cfa: $rsp 8 +
STACK CFI INIT 11620 8 .cfa: $rsp .ra: .cfa 8 - ^
STACK CFI 11620 .cfa: $rsp 8 +
STACK CFI INIT 11630 19 .cfa: $rsp .ra: .cfa 8 - ^
STACK CFI 11630 .cfa: $rsp 48 +
STACK CFI INIT 11650 1e .cfa: $rsp .ra: .cfa 8 - ^
STACK CFI 11650 .cfa: $rsp 48 +
STACK CFI INIT 11670 26 .cfa: $rsp .ra: .cfa 8 - ^
STACK CFI 11670 .cfa: $rsp 8 +
STACK CFI INIT 116a0 26 .cfa: $rsp .ra: .cfa 8 - ^
STACK CFI 116a0 .cfa: $rsp 8 +
STACK CFI INIT 116d0 26 .cfa: $rsp .ra: .cfa 8 - ^
STACK CFI 116d0 .cfa: $rsp 8 +
STACK CFI INIT 11700 26 .cfa: $rsp .ra: .cfa 8 - ^
STACK CFI 11700 .cfa: $rsp 8 +
STACK CFI INIT 11730 4d4 .cfa: $rsp .ra: .cfa 8 - ^
STACK CFI 11730 .cfa: $rsp 160 +
STACK CFI INIT 11c10 190 .cfa: $rsp .ra: .cfa 8 - ^
STACK CFI 11c10 .cfa: $rsp 112 +
STACK CFI INIT 11da0 2bc .cfa: $rsp .ra: .cfa 8 - ^
STACK CFI 11da0 .cfa: $rsp 128 +
STACK CFI INIT 12060 38 .cfa: $rsp .ra: .cfa 8 - ^
STACK CFI 12060 .cfa: $rsp 64 +
STACK CFI INIT 120a0 38 .cfa: $rsp .ra: .cfa 8 - ^
STACK CFI 120a0 .cfa: $rsp 64 +
STACK CFI INIT 120e0 55 .cfa: $rsp .ra: .cfa 8 - ^
STACK CFI 120e0 .cfa: $rsp 64 +
STACK CFI INIT 12140 55 .cfa: $rsp .ra: .cfa 8 - ^
STACK CFI 12140 .cfa: $rsp 64 +
STACK CFI INIT 121a0 55 .cfa: $rsp .ra: .cfa 8 - ^
STACK CFI 121a0 .cfa: $rsp 64 +
STACK CFI INIT 12200 55 .cfa: $rsp .ra: .cfa 8 - ^
STACK CFI 12200 .cfa: $rsp 64 +
STACK CFI INIT 12260 55 .cfa: $rsp .ra: .cfa 8 - ^
STACK CFI 12260 .cfa: $rsp 64 +
STACK CFI INIT 122c0 34d .cfa: $rsp .ra: .cfa 8 - ^
STACK CFI 122c0 .cfa: $rsp 144 +
STACK CFI INIT 12610 2e3 .cfa: $rsp .ra: .cfa 8 - ^
STACK CFI 12610 .cfa: $rsp 96 +
STACK CFI INIT 12900 1ebb .cfa: $rsp .ra: .cfa 8 - ^
STACK CFI 12900 .cfa: $rsp 384 +
STACK CFI INIT 147c0 124 .cfa: $rsp .ra: .cfa 8 - ^
STACK CFI 147c0 .cfa: $rsp 112 +
STACK CFI INIT 148f0 45 .cfa: $rsp .ra: .cfa 8 - ^
STACK CFI 148f0 .cfa: $rsp 64 +
STACK CFI INIT 14940 62 .cfa: $rsp .ra: .cfa 8 - ^
STACK CFI 14940 .cfa: $rsp 64 +
STACK CFI INIT 149b0 15 .cfa: $rsp .ra: .cfa 8 - ^
STACK CFI 149b0 .cfa: $rsp 8 +
STACK CFI INIT 149d0 2e .cfa: $rsp .ra: .cfa 8 - ^
STACK CFI 149d0 .cfa: $rsp 48 +
STACK CFI INIT 14a00 9f .cfa: $rsp .ra: .cfa 8 - ^
STACK CFI 14a00 .cfa: $rsp 112 +
STACK CFI INIT 14aa0 39 .cfa: $rsp .ra: .cfa 8 - ^
STACK CFI 14aa0 .cfa: $rsp 64 +
STACK CFI INIT 14ae0 281 .cfa: $rsp .ra: .cfa 8 - ^
STACK CFI 14ae0 .cfa: $rsp 112 +
STACK CFI INIT 14d70 1e .cfa: $rsp .ra: .cfa 8 - ^
STACK CFI 14d70 .cfa: $rsp 48 +
STACK CFI INIT 14d90 42 .cfa: $rsp .ra: .cfa 8 - ^
STACK CFI 14d90 .cfa: $rsp 80 +
STACK CFI INIT 14de0 b7 .cfa: $rsp .ra: .cfa 8 - ^
STACK CFI 14de0 .cfa: $rsp 112 +
STACK CFI INIT 14ea0 109 .cfa: $rsp .ra: .cfa 8 - ^
STACK CFI 14ea0 .cfa: $rsp 96 +
STACK CFI INIT 14fb0 681 .cfa: $rsp .ra: .cfa 8 - ^
STACK CFI 14fb0 .cfa: $rsp 256 +
STACK CFI INIT 15640 45 .cfa: $rsp .ra: .cfa 8 - ^
STACK CFI 15640 .cfa: $rsp 64 +
STACK CFI INIT 15690 29 .cfa: $rsp .ra: .cfa 8 - ^
STACK CFI 15690 .cfa: $rsp 64 +
STACK CFI INIT 156c0 77 .cfa: $rsp .ra: .cfa 8 - ^
STACK CFI 156c0 .cfa: $rsp 80 +
STACK CFI INIT 15740 77 .cfa: $rsp .ra: .cfa 8 - ^
STACK CFI 15740 .cfa: $rsp 80 +
STACK CFI INIT 157c0 83 .cfa: $rsp .ra: .cfa 8 - ^
STACK CFI 157c0 .cfa: $rsp 80 +
STACK CFI INIT 15850 f4 .cfa: $rsp .ra: .cfa 8 - ^
STACK CFI 15850 .cfa: $rsp 96 +
STACK CFI INIT 15950 10 .cfa: $rsp .ra: .cfa 8 - ^
STACK CFI 15950 .cfa: $rsp 8 +
STACK CFI INIT 15960 1e .cfa: $rsp .ra: .cfa 8 - ^
STACK CFI 15960 .cfa: $rsp 48 +
STACK CFI INIT 15980 58 .cfa: $rsp .ra: .cfa 8 - ^
STACK CFI 15980 .cfa: $rsp 64 +
STACK CFI INIT 159e0 23 .cfa: $rsp .ra: .cfa 8 - ^
STACK CFI 159e0 .cfa: $rsp 8 +
STACK CFI INIT 15a10 7 .cfa: $rsp .ra: .cfa 8 - ^
STACK CFI 15a10 .cfa: $rsp 8 +
STACK CFI INIT 15a20 7 .cfa: $rsp .ra: .cfa 8 - ^
STACK CFI 15a20 .cfa: $rsp 8 +
STACK CFI INIT 15a30 81 .cfa: $rsp .ra: .cfa 8 - ^
STACK CFI 15a30 .cfa: $rsp 80 +
STACK CFI INIT 15ac0 34 .cfa: $rsp .ra: .cfa 8 - ^
STACK CFI 15ac0 .cfa: $rsp 64 +
STACK CFI INIT 15b00 7e .cfa: $rsp .ra: .cfa 8 - ^
STACK CFI 15b00 .cfa: $rsp 80 +
STACK CFI INIT 15b80 3fa .cfa: $rsp .ra: .cfa 8 - ^
STACK CFI 15b80 .cfa: $rsp 176 +
STACK CFI INIT 15f80 df .cfa: $rsp .ra: .cfa 8 - ^
STACK CFI 15f80 .cfa: $rsp 112 +
STACK CFI INIT 16060 117 .cfa: $rsp .ra: .cfa 8 - ^
STACK CFI 16060 .cfa: $rsp 64 +
STACK CFI INIT 16180 237 .cfa: $rsp .ra: .cfa 8 - ^
STACK CFI 16180 .cfa: $rsp 64 +
STACK CFI INIT 163c0 16 .cfa: $rsp .ra: .cfa 8 - ^
STACK CFI 163c0 .cfa: $rsp 48 +
STACK CFI INIT 163e0 65 .cfa: $rsp .ra: .cfa 8 - ^
STACK CFI 163e0 .cfa: $rsp 64 +
STACK CFI INIT 16450 69 .cfa: $rsp .ra: .cfa 8 - ^
STACK CFI 16450 .cfa: $rsp 64 +
STACK CFI INIT 164c0 469 .cfa: $rsp .ra: .cfa 8 - ^
STACK CFI 164c0 .cfa: $rsp 144 +
STACK CFI INIT 16930 199 .cfa: $rsp .ra: .cfa 8 - ^
STACK CFI 16930 .cfa: $rsp 80 +
STACK CFI INIT 16ad0 1d .cfa: $rsp .ra: .cfa 8 - ^
STACK CFI 16ad0 .cfa: $rsp 48 +
STACK CFI INIT 16af0 66 .cfa: $rsp .ra: .cfa 8 - ^
STACK CFI 16af0 .cfa: $rsp 64 +
STACK CFI INIT 16b60 36 .cfa: $rsp .ra: .cfa 8 - ^
STACK CFI 16b60 .cfa: $rsp 64 +
STACK CFI INIT 16ba0 36 .cfa: $rsp .ra: .cfa 8 - ^
STACK CFI 16ba0 .cfa: $rsp 64 +
STACK CFI INIT 16be0 55 .cfa: $rsp .ra: .cfa 8 - ^
STACK CFI 16be0 .cfa: $rsp 64 +
STACK CFI INIT 16c40 6a .cfa: $rsp .ra: .cfa 8 - ^
STACK CFI 16c40 .cfa: $rsp 64 +
STACK CFI INIT 16cb0 9d .cfa: $rsp .ra: .cfa 8 - ^
STACK CFI 16cb0 .cfa: $rsp 64 +
STACK CFI INIT 16d50 13c .cfa: $rsp .ra: .cfa 8 - ^
STACK CFI 16d50 .cfa: $rsp 112 +
STACK CFI INIT 16e90 19f .cfa: $rsp .ra: .cfa 8 - ^
STACK CFI 16e90 .cfa: $rsp 96 +
STACK CFI INIT 17030 2bc .cfa: $rsp .ra: .cfa 8 - ^
STACK CFI 17030 .cfa: $rsp 128 +
STACK CFI INIT 172f0 afc .cfa: $rsp .ra: .cfa 8 - ^
STACK CFI 172f0 .cfa: $rsp 192 +
STACK CFI INIT 17df0 6d .cfa: $rsp .ra: .cfa 8 - ^
STACK CFI 17df0 .cfa: $rsp 64 +
STACK CFI INIT 17e60 ee .cfa: $rsp .ra: .cfa 8 - ^
STACK CFI 17e60 .cfa: $rsp 80 +
STACK CFI INIT 17f50 3c .cfa: $rsp .ra: .cfa 8 - ^
STACK CFI 17f50 .cfa: $rsp 64 +
STACK CFI INIT 17f90 1222 .cfa: $rsp .ra: .cfa 8 - ^
STACK CFI 17f90 .cfa: $rsp 224 +
STACK CFI INIT 191c0 50 .cfa: $rsp .ra: .cfa 8 - ^
STACK CFI 191c0 .cfa: $rsp 64 +
STACK CFI INIT 19210 1 .cfa: $rsp .ra: .cfa 8 - ^
STACK CFI 19210 .cfa: $rsp 8 +
STACK CFI INIT 19220 77 .cfa: $rsp .ra: .cfa 8 - ^
STACK CFI 19220 .cfa: $rsp 80 +
STACK CFI INIT 192a0 22 .cfa: $rsp .ra: .cfa 8 - ^
STACK CFI 192a0 .cfa: $rsp 48 +
STACK CFI INIT 192d0 15 .cfa: $rsp .ra: .cfa 8 - ^
STACK CFI 192d0 .cfa: $rsp 8 +
STACK CFI INIT 192f0 2e .cfa: $rsp .ra: .cfa 8 - ^
STACK CFI 192f0 .cfa: $rsp 48 +
STACK CFI INIT 19320 6 .cfa: $rsp .ra: .cfa 8 - ^
STACK CFI 19320 .cfa: $rsp 8 +
STACK CFI INIT 19330 c .cfa: $rsp .ra: .cfa 8 - ^
STACK CFI 19330 .cfa: $rsp 8 +
STACK CFI INIT 19340 c .cfa: $rsp .ra: .cfa 8 - ^
STACK CFI 19340 .cfa: $rsp 8 +
STACK CFI INIT 19350 23 .cfa: $rsp .ra: .cfa 8 - ^
STACK CFI 19350 .cfa: $rsp 8 +
STACK CFI INIT 19380 21 .cfa: $rsp .ra: .cfa 8 - ^
STACK CFI 19380 .cfa: $rsp 48 +
STACK CFI INIT 193b0 b .cfa: $rsp .ra: .cfa 8 - ^
STACK CFI 193b0 .cfa: $rsp 8 +
STACK CFI INIT 193c0 b .cfa: $rsp .ra: .cfa 8 - ^
STACK CFI 193c0 .cfa: $rsp 8 +
STACK CFI INIT 193d0 c .cfa: $rsp .ra: .cfa 8 - ^
STACK CFI 193d0 .cfa: $rsp 8 +
STACK CFI INIT 193e0 f .cfa: $rsp .ra: .cfa 8 - ^
STACK CFI 193e0 .cfa: $rsp 8 +
STACK CFI INIT 193f0 22 .cfa: $rsp .ra: .cfa 8 - ^
STACK CFI 193f0 .cfa: $rsp 48 +
STACK CFI INIT 19420 95 .cfa: $rsp .ra: .cfa 8 - ^
STACK CFI 19420 .cfa: $rsp 48 +
STACK CFI INIT 194c0 3b .cfa: $rsp .ra: .cfa 8 - ^
STACK CFI 194c0 .cfa: $rsp 64 +
STACK CFI INIT 19500 82 .cfa: $rsp .ra: .cfa 8 - ^
STACK CFI 19500 .cfa: $rsp 80 +
STACK CFI INIT 19590 b .cfa: $rsp .ra: .cfa 8 - ^
STACK CFI 19590 .cfa: $rsp 8 +
STACK CFI INIT 195a0 21 .cfa: $rsp .ra: .cfa 8 - ^
STACK CFI 195a0 .cfa: $rsp 48 +
STACK CFI INIT 195d0 43 .cfa: $rsp .ra: .cfa 8 - ^
STACK CFI 195d0 .cfa: $rsp 64 +
STACK CFI INIT 19620 23 .cfa: $rsp .ra: .cfa 8 - ^
STACK CFI 19620 .cfa: $rsp 8 +
STACK CFI INIT 19650 23 .cfa: $rsp .ra: .cfa 8 - ^
STACK CFI 19650 .cfa: $rsp 8 +
STACK CFI INIT 19680 1 .cfa: $rsp .ra: .cfa 8 - ^
STACK CFI 19680 .cfa: $rsp 8 +
STACK CFI INIT 19690 8 .cfa: $rsp .ra: .cfa 8 - ^
STACK CFI 19690 .cfa: $rsp 8 +
STACK CFI INIT 196a0 b .cfa: $rsp .ra: .cfa 8 - ^
STACK CFI 196a0 .cfa: $rsp 8 +
STACK CFI INIT 196b0 10 .cfa: $rsp .ra: .cfa 8 - ^
STACK CFI 196b0 .cfa: $rsp 8 +
STACK CFI INIT 196c0 14 .cfa: $rsp .ra: .cfa 8 - ^
STACK CFI 196c0 .cfa: $rsp 8 +
STACK CFI INIT 196e0 b .cfa: $rsp .ra: .cfa 8 - ^
STACK CFI 196e0 .cfa: $rsp 8 +
STACK CFI INIT 196f0 12 .cfa: $rsp .ra: .cfa 8 - ^
STACK CFI 196f0 .cfa: $rsp 8 +
STACK CFI INIT 19710 10 .cfa: $rsp .ra: .cfa 8 - ^
STACK CFI 19710 .cfa: $rsp 8 +
STACK CFI INIT 19720 10 .cfa: $rsp .ra: .cfa 8 - ^
STACK CFI 19720 .cfa: $rsp 8 +
STACK CFI INIT 19730 77 .cfa: $rsp .ra: .cfa 8 - ^
STACK CFI 19730 .cfa: $rsp 64 +
STACK CFI INIT 197b0 232 .cfa: $rsp .ra: .cfa 8 - ^
STACK CFI 197b0 .cfa: $rsp 112 +
STACK CFI INIT 199f0 47 .cfa: $rsp .ra: .cfa 8 - ^
STACK CFI 199f0 .cfa: $rsp 64 +
STACK CFI INIT 19a40 15f .cfa: $rsp .ra: .cfa 8 - ^
STACK CFI 19a40 .cfa: $rsp 96 +
STACK CFI INIT 19ba0 7 .cfa: $rsp .ra: .cfa 8 - ^
STACK CFI 19ba0 .cfa: $rsp 8 +
STACK CFI INIT 19bb0 21 .cfa: $rsp .ra: .cfa 8 - ^
STACK CFI 19bb0 .cfa: $rsp 8 +
STACK CFI INIT 19be0 21 .cfa: $rsp .ra: .cfa 8 - ^
STACK CFI 19be0 .cfa: $rsp 8 +
STACK CFI INIT 19c10 21 .cfa: $rsp .ra: .cfa 8 - ^
STACK CFI 19c10 .cfa: $rsp 8 +
STACK CFI INIT 19c40 1 .cfa: $rsp .ra: .cfa 8 - ^
STACK CFI 19c40 .cfa: $rsp 8 +
STACK CFI INIT 19c50 3f .cfa: $rsp .ra: .cfa 8 - ^
STACK CFI 19c50 .cfa: $rsp 48 +
STACK CFI INIT 19c90 11 .cfa: $rsp .ra: .cfa 8 - ^
STACK CFI 19c90 .cfa: $rsp 8 +
STACK CFI INIT 19cb0 f .cfa: $rsp .ra: .cfa 8 - ^
STACK CFI 19cb0 .cfa: $rsp 8 +
STACK CFI INIT 19cc0 29 .cfa: $rsp .ra: .cfa 8 - ^
STACK CFI 19cc0 .cfa: $rsp 48 +
STACK CFI INIT 19cf0 47 .cfa: $rsp .ra: .cfa 8 - ^
STACK CFI 19cf0 .cfa: $rsp 64 +
STACK CFI INIT 19d40 1a .cfa: $rsp .ra: .cfa 8 - ^
STACK CFI 19d40 .cfa: $rsp 8 +
STACK CFI INIT 19d60 1a .cfa: $rsp .ra: .cfa 8 - ^
STACK CFI 19d60 .cfa: $rsp 8 +
STACK CFI INIT 19d80 8a .cfa: $rsp .ra: .cfa 8 - ^
STACK CFI 19d80 .cfa: $rsp 96 +
STACK CFI INIT 19e10 1f .cfa: $rsp .ra: .cfa 8 - ^
STACK CFI 19e10 .cfa: $rsp 48 +
STACK CFI INIT 19e30 83 .cfa: $rsp .ra: .cfa 8 - ^
STACK CFI 19e30 .cfa: $rsp 80 +
STACK CFI INIT 19ec0 20b .cfa: $rsp .ra: .cfa 8 - ^
STACK CFI 19ec0 .cfa: $rsp 320 +
STACK CFI INIT 1a0d0 1bf .cfa: $rsp .ra: .cfa 8 - ^
STACK CFI 1a0d0 .cfa: $rsp 128 +
STACK CFI INIT 1a290 8 .cfa: $rsp .ra: .cfa 8 - ^
STACK CFI 1a290 .cfa: $rsp 8 +
STACK CFI INIT 1a2a0 61 .cfa: $rsp .ra: .cfa 8 - ^
STACK CFI 1a2a0 .cfa: $rsp 64 +
STACK CFI INIT 1a310 14 .cfa: $rsp .ra: .cfa 8 - ^
STACK CFI 1a310 .cfa: $rsp 8 +
STACK CFI INIT 1a330 82 .cfa: $rsp .ra: .cfa 8 - ^
STACK CFI 1a330 .cfa: $rsp 112 +
STACK CFI INIT 1a3c0 34 .cfa: $rsp .ra: .cfa 8 - ^
STACK CFI 1a3c0 .cfa: $rsp 48 +
STACK CFI INIT 1a400 102 .cfa: $rsp .ra: .cfa 8 - ^
STACK CFI 1a400 .cfa: $rsp 80 +
STACK CFI INIT 1a510 98 .cfa: $rsp .ra: .cfa 8 - ^
STACK CFI 1a510 .cfa: $rsp 48 +
STACK CFI INIT 1a5b0 ab .cfa: $rsp .ra: .cfa 8 - ^
STACK CFI 1a5b0 .cfa: $rsp 80 +
STACK CFI INIT 1a660 2e .cfa: $rsp .ra: .cfa 8 - ^
STACK CFI 1a660 .cfa: $rsp 8 +
STACK CFI INIT 1a690 3e0 .cfa: $rsp .ra: .cfa 8 - ^
STACK CFI 1a690 .cfa: $rsp 208 +
STACK CFI INIT 1aa70 3e .cfa: $rsp .ra: .cfa 8 - ^
STACK CFI 1aa70 .cfa: $rsp 80 +
STACK CFI INIT 1aab0 1e4 .cfa: $rsp .ra: .cfa 8 - ^
STACK CFI 1aab0 .cfa: $rsp 160 +
STACK CFI INIT 1aca0 15c .cfa: $rsp .ra: .cfa 8 - ^
STACK CFI 1aca0 .cfa: $rsp 112 +
STACK CFI INIT 1ae00 f4 .cfa: $rsp .ra: .cfa 8 - ^
STACK CFI 1ae00 .cfa: $rsp 80 +
STACK CFI INIT 1af00 81 .cfa: $rsp .ra: .cfa 8 - ^
STACK CFI 1af00 .cfa: $rsp 96 +
STACK CFI INIT 1af90 1df .cfa: $rsp .ra: .cfa 8 - ^
STACK CFI 1af90 .cfa: $rsp 128 +
STACK CFI INIT 1b170 9 .cfa: $rsp .ra: .cfa 8 - ^
STACK CFI 1b170 .cfa: $rsp 8 +
STACK CFI INIT 1b180 9 .cfa: $rsp .ra: .cfa 8 - ^
STACK CFI 1b180 .cfa: $rsp 8 +
STACK CFI INIT 1b190 1b2 .cfa: $rsp .ra: .cfa 8 - ^
STACK CFI 1b190 .cfa: $rsp 128 +
STACK CFI INIT 1b350 4d0 .cfa: $rsp .ra: .cfa 8 - ^
STACK CFI 1b350 .cfa: $rsp 432 +
STACK CFI INIT 1b820 381 .cfa: $rsp .ra: .cfa 8 - ^
STACK CFI 1b820 .cfa: $rsp 336 +
STACK CFI INIT 1bbb0 286 .cfa: $rsp .ra: .cfa 8 - ^
STACK CFI 1bbb0 .cfa: $rsp 336 +
STACK CFI INIT 1be40 b2 .cfa: $rsp .ra: .cfa 8 - ^
STACK CFI 1be40 .cfa: $rsp 64 +
STACK CFI INIT 1bf00 8c .cfa: $rsp .ra: .cfa 8 - ^
STACK CFI 1bf00 .cfa: $rsp 64 +
STACK CFI INIT 1bf90 98 .cfa: $rsp .ra: .cfa 8 - ^
STACK CFI 1bf90 .cfa: $rsp 64 +
STACK CFI INIT 1c030 2f1 .cfa: $rsp .ra: .cfa 8 - ^
STACK CFI 1c030 .cfa: $rsp 144 +
STACK CFI INIT 1c330 5 .cfa: $rsp .ra: .cfa 8 - ^
STACK CFI 1c330 .cfa: $rsp 8 +
STACK CFI INIT 1c340 fb .cfa: $rsp .ra: .cfa 8 - ^
STACK CFI 1c340 .cfa: $rsp 128 +
STACK CFI INIT 1c440 1a1 .cfa: $rsp .ra: .cfa 8 - ^
STACK CFI 1c440 .cfa: $rsp 128 +
STACK CFI INIT 1c5f0 22b .cfa: $rsp .ra: .cfa 8 - ^
STACK CFI 1c5f0 .cfa: $rsp 144 +
STACK CFI INIT 1c820 484 .cfa: $rsp .ra: .cfa 8 - ^
STACK CFI 1c820 .cfa: $rsp 160 +
STACK CFI INIT 1ccb0 91 .cfa: $rsp .ra: .cfa 8 - ^
STACK CFI 1ccb0 .cfa: $rsp 96 +
STACK CFI INIT 1cd50 24 .cfa: $rsp .ra: .cfa 8 - ^
STACK CFI 1cd50 .cfa: $rsp 8 +
STACK CFI INIT 1cd80 166 .cfa: $rsp .ra: .cfa 8 - ^
STACK CFI 1cd80 .cfa: $rsp 96 +
STACK CFI INIT 1cef0 16 .cfa: $rsp .ra: .cfa 8 - ^
STACK CFI 1cef0 .cfa: $rsp 8 +
STACK CFI INIT 1cf10 127 .cfa: $rsp .ra: .cfa 8 - ^
STACK CFI 1cf10 .cfa: $rsp 160 +
STACK CFI INIT 1d040 113 .cfa: $rsp .ra: .cfa 8 - ^
STACK CFI 1d040 .cfa: $rsp 96 +
STACK CFI INIT 1d160 c8 .cfa: $rsp .ra: .cfa 8 - ^
STACK CFI 1d160 .cfa: $rsp 96 +
STACK CFI INIT 1d230 3a7 .cfa: $rsp .ra: .cfa 8 - ^
STACK CFI 1d230 .cfa: $rsp 176 +
STACK CFI INIT 1d5e0 2bc .cfa: $rsp .ra: .cfa 8 - ^
STACK CFI 1d5e0 .cfa: $rsp 128 +
STACK CFI INIT 1d8a0 20a .cfa: $rsp .ra: .cfa 8 - ^
STACK CFI 1d8a0 .cfa: $rsp 96 +
STACK CFI INIT 1dab0 635 .cfa: $rsp .ra: .cfa 8 - ^
STACK CFI 1dab0 .cfa: $rsp 192 +
STACK CFI INIT 1e0f0 68e .cfa: $rsp .ra: .cfa 8 - ^
STACK CFI 1e0f0 .cfa: $rsp 432 +
STACK CFI INIT 1e780 c5 .cfa: $rsp .ra: .cfa 8 - ^
STACK CFI 1e780 .cfa: $rsp 8 +
STACK CFI INIT 1e850 186 .cfa: $rsp .ra: .cfa 8 - ^
STACK CFI 1e850 .cfa: $rsp 112 +
STACK CFI INIT 1e9e0 33 .cfa: $rsp .ra: .cfa 8 - ^
STACK CFI 1e9e0 .cfa: $rsp 48 +
STACK CFI INIT 1ea20 45 .cfa: $rsp .ra: .cfa 8 - ^
STACK CFI 1ea20 .cfa: $rsp 64 +
STACK CFI INIT 1ea70 45 .cfa: $rsp .ra: .cfa 8 - ^
STACK CFI 1ea70 .cfa: $rsp 64 +
STACK CFI INIT 1eac0 77 .cfa: $rsp .ra: .cfa 8 - ^
STACK CFI 1eac0 .cfa: $rsp 80 +
STACK CFI INIT 1eb40 5 .cfa: $rsp .ra: .cfa 8 - ^
STACK CFI 1eb40 .cfa: $rsp 8 +
STACK CFI INIT 1eb50 6 .cfa: $rsp .ra: .cfa 8 - ^
STACK CFI 1eb50 .cfa: $rsp 8 +
STACK CFI INIT 1eb60 1 .cfa: $rsp .ra: .cfa 8 - ^
STACK CFI 1eb60 .cfa: $rsp 8 +
STACK CFI INIT 1eb70 f .cfa: $rsp .ra: .cfa 8 - ^
STACK CFI 1eb70 .cfa: $rsp 8 +
STACK CFI INIT 1eb80 29 .cfa: $rsp .ra: .cfa 8 - ^
STACK CFI 1eb80 .cfa: $rsp 48 +
STACK CFI INIT 1ebb0 12 .cfa: $rsp .ra: .cfa 8 - ^
STACK CFI 1ebb0 .cfa: $rsp 8 +
STACK CFI INIT 1ebd0 1a .cfa: $rsp .ra: .cfa 8 - ^
STACK CFI 1ebd0 .cfa: $rsp 8 +
STACK CFI INIT 1ebf0 2c .cfa: $rsp .ra: .cfa 8 - ^
STACK CFI 1ebf0 .cfa: $rsp 48 +
STACK CFI INIT 1ec20 274 .cfa: $rsp .ra: .cfa 8 - ^
STACK CFI 1ec20 .cfa: $rsp 112 +
STACK CFI INIT 1eea0 284 .cfa: $rsp .ra: .cfa 8 - ^
STACK CFI 1eea0 .cfa: $rsp 112 +
STACK CFI INIT 1f130 d49 .cfa: $rsp .ra: .cfa 8 - ^
STACK CFI 1f130 .cfa: $rsp 512 +
STACK CFI INIT 1fe80 5 .cfa: $rsp .ra: .cfa 8 - ^
STACK CFI 1fe80 .cfa: $rsp 8 +
STACK CFI INIT 1fe90 2b .cfa: $rsp .ra: .cfa 8 - ^
STACK CFI 1fe90 .cfa: $rsp 64 +
STACK CFI INIT 1fec0 12 .cfa: $rsp .ra: .cfa 8 - ^
STACK CFI 1fec0 .cfa: $rsp 8 +
STACK CFI INIT 1fee0 45 .cfa: $rsp .ra: .cfa 8 - ^
STACK CFI 1fee0 .cfa: $rsp 64 +
STACK CFI INIT 1ff30 5 .cfa: $rsp .ra: .cfa 8 - ^
STACK CFI 1ff30 .cfa: $rsp 8 +
STACK CFI INIT 1ff40 7 .cfa: $rsp .ra: .cfa 8 - ^
STACK CFI 1ff40 .cfa: $rsp 8 +
STACK CFI INIT 1ff50 6 .cfa: $rsp .ra: .cfa 8 - ^
STACK CFI 1ff50 .cfa: $rsp 8 +
STACK CFI INIT 1ff60 270 .cfa: $rsp .ra: .cfa 8 - ^
STACK CFI 1ff60 .cfa: $rsp 320 +
STACK CFI INIT 201d0 1f .cfa: $rsp .ra: .cfa 8 - ^
STACK CFI 201d0 .cfa: $rsp 48 +
STACK CFI INIT 201f0 4c .cfa: $rsp .ra: .cfa 8 - ^
STACK CFI 201f0 .cfa: $rsp 96 +
STACK CFI INIT 20240 183 .cfa: $rsp .ra: .cfa 8 - ^
STACK CFI 20240 .cfa: $rsp 112 +
STACK CFI INIT 203d0 1a .cfa: $rsp .ra: .cfa 8 - ^
STACK CFI 203d0 .cfa: $rsp 8 +
STACK CFI INIT 203f0 16a .cfa: $rsp .ra: .cfa 8 - ^
STACK CFI 203f0 .cfa: $rsp 80 +
STACK CFI INIT 20560 1f4f .cfa: $rsp .ra: .cfa 8 - ^
STACK CFI 20560 .cfa: $rsp 560 +
STACK CFI INIT 224b0 56 .cfa: $rsp .ra: .cfa 8 - ^
STACK CFI 224b0 .cfa: $rsp 64 +
STACK CFI INIT 22510 3c .cfa: $rsp .ra: .cfa 8 - ^
STACK CFI 22510 .cfa: $rsp 8 +
STACK CFI INIT 22550 270 .cfa: $rsp .ra: .cfa 8 - ^
STACK CFI 22550 .cfa: $rsp 336 +
STACK CFI INIT 227c0 a2 .cfa: $rsp .ra: .cfa 8 - ^
STACK CFI 227c0 .cfa: $rsp 64 +
STACK CFI INIT 22870 45 .cfa: $rsp .ra: .cfa 8 - ^
STACK CFI 22870 .cfa: $rsp 64 +
STACK CFI INIT 228c0 5f .cfa: $rsp .ra: .cfa 8 - ^
STACK CFI 228c0 .cfa: $rsp 80 +
STACK CFI INIT 22920 77 .cfa: $rsp .ra: .cfa 8 - ^
STACK CFI 22920 .cfa: $rsp 80 +
STACK CFI INIT 229a0 f4 .cfa: $rsp .ra: .cfa 8 - ^
STACK CFI 229a0 .cfa: $rsp 96 +
STACK CFI INIT 22aa0 63 .cfa: $rsp .ra: .cfa 8 - ^
STACK CFI 22aa0 .cfa: $rsp 64 +
STACK CFI INIT 22b10 10 .cfa: $rsp .ra: .cfa 8 - ^
STACK CFI 22b10 .cfa: $rsp 8 +
STACK CFI INIT 22b20 156 .cfa: $rsp .ra: .cfa 8 - ^
STACK CFI 22b20 .cfa: $rsp 96 +
STACK CFI INIT 22c80 1fe .cfa: $rsp .ra: .cfa 8 - ^
STACK CFI 22c80 .cfa: $rsp 96 +
STACK CFI INIT 22e80 8 .cfa: $rsp .ra: .cfa 8 - ^
STACK CFI 22e80 .cfa: $rsp 8 +
STACK CFI INIT 22e90 1e .cfa: $rsp .ra: .cfa 8 - ^
STACK CFI 22e90 .cfa: $rsp 48 +
STACK CFI INIT 22eb0 1e .cfa: $rsp .ra: .cfa 8 - ^
STACK CFI 22eb0 .cfa: $rsp 48 +
STACK CFI INIT 22ed0 1e .cfa: $rsp .ra: .cfa 8 - ^
STACK CFI 22ed0 .cfa: $rsp 48 +
STACK CFI INIT 22ef0 56 .cfa: $rsp .ra: .cfa 8 - ^
STACK CFI 22ef0 .cfa: $rsp 48 +
STACK CFI INIT 22f50 57 .cfa: $rsp .ra: .cfa 8 - ^
STACK CFI 22f50 .cfa: $rsp 64 +
STACK CFI INIT 22fb0 22 .cfa: $rsp .ra: .cfa 8 - ^
STACK CFI 22fb0 .cfa: $rsp 48 +
STACK CFI INIT 22fe0 15 .cfa: $rsp .ra: .cfa 8 - ^
STACK CFI 22fe0 .cfa: $rsp 8 +
STACK CFI INIT 23000 2e .cfa: $rsp .ra: .cfa 8 - ^
STACK CFI 23000 .cfa: $rsp 48 +
STACK CFI INIT 23030 90 .cfa: $rsp .ra: .cfa 8 - ^
STACK CFI 23030 .cfa: $rsp 48 +
STACK CFI INIT 230c0 b3 .cfa: $rsp .ra: .cfa 8 - ^
STACK CFI 230c0 .cfa: $rsp 64 +
STACK CFI INIT 23180 cd .cfa: $rsp .ra: .cfa 8 - ^
STACK CFI 23180 .cfa: $rsp 64 +
STACK CFI INIT 23250 1d .cfa: $rsp .ra: .cfa 8 - ^
STACK CFI 23250 .cfa: $rsp 48 +
STACK CFI INIT 23270 249 .cfa: $rsp .ra: .cfa 8 - ^
STACK CFI 23270 .cfa: $rsp 128 +
STACK CFI INIT 234c0 16 .cfa: $rsp .ra: .cfa 8 - ^
STACK CFI 234c0 .cfa: $rsp 48 +
STACK CFI INIT 234e0 38 .cfa: $rsp .ra: .cfa 8 - ^
STACK CFI 234e0 .cfa: $rsp 64 +
STACK CFI INIT 23520 55 .cfa: $rsp .ra: .cfa 8 - ^
STACK CFI 23520 .cfa: $rsp 64 +
STACK CFI INIT 23580 55 .cfa: $rsp .ra: .cfa 8 - ^
STACK CFI 23580 .cfa: $rsp 64 +
STACK CFI INIT 235e0 64 .cfa: $rsp .ra: .cfa 8 - ^
STACK CFI 235e0 .cfa: $rsp 80 +
STACK CFI INIT 23650 a5 .cfa: $rsp .ra: .cfa 8 - ^
STACK CFI 23650 .cfa: $rsp 64 +
STACK CFI INIT 23700 14a .cfa: $rsp .ra: .cfa 8 - ^
STACK CFI 23700 .cfa: $rsp 80 +
STACK CFI INIT 23850 434 .cfa: $rsp .ra: .cfa 8 - ^
STACK CFI 23850 .cfa: $rsp 176 +
STACK CFI INIT 23c90 16 .cfa: $rsp .ra: .cfa 8 - ^
STACK CFI 23c90 .cfa: $rsp 48 +
STACK CFI INIT 23cb0 22 .cfa: $rsp .ra: .cfa 8 - ^
STACK CFI 23cb0 .cfa: $rsp 48 +
STACK CFI INIT 23ce0 22 .cfa: $rsp .ra: .cfa 8 - ^
STACK CFI 23ce0 .cfa: $rsp 48 +
STACK CFI INIT 23d10 416 .cfa: $rsp .ra: .cfa 8 - ^
STACK CFI 23d10 .cfa: $rsp 176 +
STACK CFI INIT 24130 7 .cfa: $rsp .ra: .cfa 8 - ^
STACK CFI 24130 .cfa: $rsp 8 +
STACK CFI INIT 24140 76 .cfa: $rsp .ra: .cfa 8 - ^
STACK CFI 24140 .cfa: $rsp 8 +
STACK CFI INIT 241c0 83 .cfa: $rsp .ra: .cfa 8 - ^
STACK CFI 241c0 .cfa: $rsp 80 +
STACK CFI INIT 24250 1cd .cfa: $rsp .ra: .cfa 8 - ^
STACK CFI 24250 .cfa: $rsp 112 +
STACK CFI INIT 24420 297 .cfa: $rsp .ra: .cfa 8 - ^
STACK CFI 24420 .cfa: $rsp 96 +
STACK CFI INIT 246c0 1de .cfa: $rsp .ra: .cfa 8 - ^
STACK CFI 246c0 .cfa: $rsp 112 +
STACK CFI INIT 248a0 aa .cfa: $rsp .ra: .cfa 8 - ^
STACK CFI 248a0 .cfa: $rsp 80 +
STACK CFI INIT 24950 106 .cfa: $rsp .ra: .cfa 8 - ^
STACK CFI 24950 .cfa: $rsp 128 +
STACK CFI INIT 24a60 fa .cfa: $rsp .ra: .cfa 8 - ^
STACK CFI 24a60 .cfa: $rsp 80 +
STACK CFI INIT 24b60 27c .cfa: $rsp .ra: .cfa 8 - ^
STACK CFI 24b60 .cfa: $rsp 176 +
STACK CFI INIT 24de0 17c .cfa: $rsp .ra: .cfa 8 - ^
STACK CFI 24de0 .cfa: $rsp 144 +
STACK CFI INIT 24f60 183 .cfa: $rsp .ra: .cfa 8 - ^
STACK CFI 24f60 .cfa: $rsp 160 +
STACK CFI INIT 250f0 ec .cfa: $rsp .ra: .cfa 8 - ^
STACK CFI 250f0 .cfa: $rsp 128 +
STACK CFI INIT 251e0 91 .cfa: $rsp .ra: .cfa 8 - ^
STACK CFI 251e0 .cfa: $rsp 96 +
STACK CFI INIT 25280 2040 .cfa: $rsp .ra: .cfa 8 - ^
STACK CFI 25280 .cfa: $rsp 96 +
STACK CFI INIT 272c0 fa .cfa: $rsp .ra: .cfa 8 - ^
STACK CFI 272c0 .cfa: $rsp 96 +
STACK CFI INIT 273c0 42 .cfa: $rsp .ra: .cfa 8 - ^
STACK CFI 273c0 .cfa: $rsp 64 +
STACK CFI INIT 27410 52 .cfa: $rsp .ra: .cfa 8 - ^
STACK CFI 27410 .cfa: $rsp 64 +
STACK CFI INIT 27470 47 .cfa: $rsp .ra: .cfa 8 - ^
STACK CFI 27470 .cfa: $rsp 48 +
STACK CFI INIT 274c0 71 .cfa: $rsp .ra: .cfa 8 - ^
STACK CFI 274c0 .cfa: $rsp 48 +
STACK CFI INIT 27540 1e .cfa: $rsp .ra: .cfa 8 - ^
STACK CFI 27540 .cfa: $rsp 48 +
STACK CFI INIT 27560 1e .cfa: $rsp .ra: .cfa 8 - ^
STACK CFI 27560 .cfa: $rsp 48 +
STACK CFI INIT 27580 8 .cfa: $rsp .ra: .cfa 8 - ^
STACK CFI 27580 .cfa: $rsp 8 +
STACK CFI INIT 27590 56 .cfa: $rsp .ra: .cfa 8 - ^
STACK CFI 27590 .cfa: $rsp 80 +
STACK CFI INIT 275f0 38 .cfa: $rsp .ra: .cfa 8 - ^
STACK CFI 275f0 .cfa: $rsp 64 +
STACK CFI INIT 27630 55 .cfa: $rsp .ra: .cfa 8 - ^
STACK CFI 27630 .cfa: $rsp 64 +
STACK CFI INIT 27690 5f .cfa: $rsp .ra: .cfa 8 - ^
STACK CFI 27690 .cfa: $rsp 64 +
STACK CFI INIT 276f0 f0 .cfa: $rsp .ra: .cfa 8 - ^
STACK CFI 276f0 .cfa: $rsp 80 +
STACK CFI INIT 277e0 1a .cfa: $rsp .ra: .cfa 8 - ^
STACK CFI 277e0 .cfa: $rsp 8 +
STACK CFI INIT 27800 1a .cfa: $rsp .ra: .cfa 8 - ^
STACK CFI 27800 .cfa: $rsp 8 +
STACK CFI INIT 27820 1a .cfa: $rsp .ra: .cfa 8 - ^
STACK CFI 27820 .cfa: $rsp 8 +
STACK CFI INIT 27840 2d .cfa: $rsp .ra: .cfa 8 - ^
STACK CFI 27840 .cfa: $rsp 64 +
STACK CFI INIT 27870 17 .cfa: $rsp .ra: .cfa 8 - ^
STACK CFI 27870 .cfa: $rsp 8 +
STACK CFI INIT 27890 49 .cfa: $rsp .ra: .cfa 8 - ^
STACK CFI 27890 .cfa: $rsp 80 +
STACK CFI INIT 278e0 39 .cfa: $rsp .ra: .cfa 8 - ^
STACK CFI 278e0 .cfa: $rsp 64 +
STACK CFI INIT 27920 36 .cfa: $rsp .ra: .cfa 8 - ^
STACK CFI 27920 .cfa: $rsp 64 +
STACK CFI INIT 27960 30 .cfa: $rsp .ra: .cfa 8 - ^
STACK CFI 27960 .cfa: $rsp 64 +
STACK CFI INIT 27990 3e .cfa: $rsp .ra: .cfa 8 - ^
STACK CFI 27990 .cfa: $rsp 80 +
STACK CFI INIT 279d0 3e .cfa: $rsp .ra: .cfa 8 - ^
STACK CFI 279d0 .cfa: $rsp 80 +
STACK CFI INIT 27a10 36 .cfa: $rsp .ra: .cfa 8 - ^
STACK CFI 27a10 .cfa: $rsp 64 +
STACK CFI INIT 27a50 30 .cfa: $rsp .ra: .cfa 8 - ^
STACK CFI 27a50 .cfa: $rsp 64 +
STACK CFI INIT 27a80 17 .cfa: $rsp .ra: .cfa 8 - ^
STACK CFI 27a80 .cfa: $rsp 8 +
STACK CFI INIT 27aa0 49 .cfa: $rsp .ra: .cfa 8 - ^
STACK CFI 27aa0 .cfa: $rsp 80 +
STACK CFI INIT 27af0 3e .cfa: $rsp .ra: .cfa 8 - ^
STACK CFI 27af0 .cfa: $rsp 80 +
STACK CFI INIT 27b30 39 .cfa: $rsp .ra: .cfa 8 - ^
STACK CFI 27b30 .cfa: $rsp 64 +
STACK CFI INIT 27b70 48 .cfa: $rsp .ra: .cfa 8 - ^
STACK CFI 27b70 .cfa: $rsp 80 +
STACK CFI INIT 27bc0 39 .cfa: $rsp .ra: .cfa 8 - ^
STACK CFI 27bc0 .cfa: $rsp 64 +
STACK CFI INIT 27c00 77 .cfa: $rsp .ra: .cfa 8 - ^
STACK CFI 27c00 .cfa: $rsp 64 +
STACK CFI INIT 27c80 83 .cfa: $rsp .ra: .cfa 8 - ^
STACK CFI 27c80 .cfa: $rsp 80 +
STACK CFI INIT 27d10 f3 .cfa: $rsp .ra: .cfa 8 - ^
STACK CFI 27d10 .cfa: $rsp 96 +
STACK CFI INIT 27e10 9 .cfa: $rsp .ra: .cfa 8 - ^
STACK CFI 27e10 .cfa: $rsp 8 +
STACK CFI INIT 27e20 9 .cfa: $rsp .ra: .cfa 8 - ^
STACK CFI 27e20 .cfa: $rsp 8 +
STACK CFI INIT 27e30 59 .cfa: $rsp .ra: .cfa 8 - ^
STACK CFI 27e30 .cfa: $rsp 96 +
STACK CFI INIT 27e90 206 .cfa: $rsp .ra: .cfa 8 - ^
STACK CFI 27e90 .cfa: $rsp 128 +
STACK CFI INIT 280a0 7a .cfa: $rsp .ra: .cfa 8 - ^
STACK CFI 280a0 .cfa: $rsp 80 +
STACK CFI INIT 28120 32 .cfa: $rsp .ra: .cfa 8 - ^
STACK CFI 28120 .cfa: $rsp 48 +
STACK CFI INIT 28160 13 .cfa: $rsp .ra: .cfa 8 - ^
STACK CFI 28160 .cfa: $rsp 8 +
STACK CFI INIT 28180 46 .cfa: $rsp .ra: .cfa 8 - ^
STACK CFI 28180 .cfa: $rsp 48 +
STACK CFI INIT 281d0 c3 .cfa: $rsp .ra: .cfa 8 - ^
STACK CFI 281d0 .cfa: $rsp 80 +
STACK CFI INIT 282a0 ad .cfa: $rsp .ra: .cfa 8 - ^
STACK CFI 282a0 .cfa: $rsp 80 +
STACK CFI INIT 28350 20f .cfa: $rsp .ra: .cfa 8 - ^
STACK CFI 28350 .cfa: $rsp 16512 +
STACK CFI INIT 28560 5 .cfa: $rsp .ra: .cfa 8 - ^
STACK CFI 28560 .cfa: $rsp 8 +
STACK CFI INIT 28570 21 .cfa: $rsp .ra: .cfa 8 - ^
STACK CFI 28570 .cfa: $rsp 8 +
STACK CFI INIT 285a0 45 .cfa: $rsp .ra: .cfa 8 - ^
STACK CFI 285a0 .cfa: $rsp 80 +
STACK CFI INIT 285f0 5a .cfa: $rsp .ra: .cfa 8 - ^
STACK CFI 285f0 .cfa: $rsp 80 +
STACK CFI INIT 28650 d1 .cfa: $rsp .ra: .cfa 8 - ^
STACK CFI 28650 .cfa: $rsp 96 +
STACK CFI INIT 28730 6f .cfa: $rsp .ra: .cfa 8 - ^
STACK CFI 28730 .cfa: $rsp 96 +
STACK CFI INIT 287a0 d .cfa: $rsp .ra: .cfa 8 - ^
STACK CFI 287a0 .cfa: $rsp 8 +
STACK CFI INIT 287b0 216 .cfa: $rsp .ra: .cfa 8 - ^
STACK CFI 287b0 .cfa: $rsp 128 +
STACK CFI INIT 289d0 3a .cfa: $rsp .ra: .cfa 8 - ^
STACK CFI 289d0 .cfa: $rsp 80 +
STACK CFI INIT 28a10 3a .cfa: $rsp .ra: .cfa 8 - ^
STACK CFI 28a10 .cfa: $rsp 80 +
STACK CFI INIT 28a50 292 .cfa: $rsp .ra: .cfa 8 - ^
STACK CFI 28a50 .cfa: $rsp 176 +
STACK CFI INIT 28cf0 25e .cfa: $rsp .ra: .cfa 8 - ^
STACK CFI 28cf0 .cfa: $rsp 128 +
STACK CFI INIT 28f50 10 .cfa: $rsp .ra: .cfa 8 - ^
STACK CFI 28f50 .cfa: $rsp 8 +
STACK CFI INIT 28f60 10 .cfa: $rsp .ra: .cfa 8 - ^
STACK CFI 28f60 .cfa: $rsp 8 +
STACK CFI INIT 28f70 21 .cfa: $rsp .ra: .cfa 8 - ^
STACK CFI 28f70 .cfa: $rsp 48 +
STACK CFI INIT 28fa0 1e .cfa: $rsp .ra: .cfa 8 - ^
STACK CFI 28fa0 .cfa: $rsp 8 +
STACK CFI INIT 28fc0 1f .cfa: $rsp .ra: .cfa 8 - ^
STACK CFI 28fc0 .cfa: $rsp 8 +
STACK CFI INIT 28fe0 27 .cfa: $rsp .ra: .cfa 8 - ^
STACK CFI 28fe0 .cfa: $rsp 8 +
STACK CFI INIT 29010 18 .cfa: $rsp .ra: .cfa 8 - ^
STACK CFI 29010 .cfa: $rsp 8 +
STACK CFI INIT 29030 b .cfa: $rsp .ra: .cfa 8 - ^
STACK CFI 29030 .cfa: $rsp 8 +
STACK CFI INIT 29040 b .cfa: $rsp .ra: .cfa 8 - ^
STACK CFI 29040 .cfa: $rsp 8 +
STACK CFI INIT 29050 26 .cfa: $rsp .ra: .cfa 8 - ^
STACK CFI 29050 .cfa: $rsp 8 +
STACK CFI INIT 29080 74 .cfa: $rsp .ra: .cfa 8 - ^
STACK CFI 29080 .cfa: $rsp 96 +
STACK CFI INIT 29100 66 .cfa: $rsp .ra: .cfa 8 - ^
STACK CFI 29100 .cfa: $rsp 64 +
STACK CFI INIT 29170 6f .cfa: $rsp .ra: .cfa 8 - ^
STACK CFI 29170 .cfa: $rsp 64 +
STACK CFI INIT 291e0 3c .cfa: $rsp .ra: .cfa 8 - ^
STACK CFI 291e0 .cfa: $rsp 64 +
STACK CFI INIT 29220 91 .cfa: $rsp .ra: .cfa 8 - ^
STACK CFI 29220 .cfa: $rsp 48 +
STACK CFI INIT 292c0 b6 .cfa: $rsp .ra: .cfa 8 - ^
STACK CFI 292c0 .cfa: $rsp 64 +
STACK CFI INIT 29380 10f9 .cfa: $rsp .ra: .cfa 8 - ^
STACK CFI 29380 .cfa: $rsp 304 +
STACK CFI INIT 2a480 15 .cfa: $rsp .ra: .cfa 8 - ^
STACK CFI 2a480 .cfa: $rsp 8 +
STACK CFI INIT 2a4a0 7c .cfa: $rsp .ra: .cfa 8 - ^
STACK CFI 2a4a0 .cfa: $rsp 64 +
STACK CFI INIT 2a520 c6 .cfa: $rsp .ra: .cfa 8 - ^
STACK CFI 2a520 .cfa: $rsp 96 +
STACK CFI INIT 2a5f0 bb .cfa: $rsp .ra: .cfa 8 - ^
STACK CFI 2a5f0 .cfa: $rsp 80 +
STACK CFI INIT 2a6b0 7b .cfa: $rsp .ra: .cfa 8 - ^
STACK CFI 2a6b0 .cfa: $rsp 96 +
STACK CFI INIT 2a730 c3 .cfa: $rsp .ra: .cfa 8 - ^
STACK CFI 2a730 .cfa: $rsp 96 +
STACK CFI INIT 2a800 140 .cfa: $rsp .ra: .cfa 8 - ^
STACK CFI 2a800 .cfa: $rsp 128 +
STACK CFI INIT 2a940 228 .cfa: $rsp .ra: .cfa 8 - ^
STACK CFI 2a940 .cfa: $rsp 112 +
STACK CFI INIT 2ab70 11e .cfa: $rsp .ra: .cfa 8 - ^
STACK CFI 2ab70 .cfa: $rsp 96 +
STACK CFI INIT 2ac90 2c6 .cfa: $rsp .ra: .cfa 8 - ^
STACK CFI 2ac90 .cfa: $rsp 128 +
STACK CFI INIT 2af60 326 .cfa: $rsp .ra: .cfa 8 - ^
STACK CFI 2af60 .cfa: $rsp 144 +
STACK CFI INIT 2b290 366 .cfa: $rsp .ra: .cfa 8 - ^
STACK CFI 2b290 .cfa: $rsp 144 +
STACK CFI INIT 2b600 11e .cfa: $rsp .ra: .cfa 8 - ^
STACK CFI 2b600 .cfa: $rsp 96 +
STACK CFI INIT 2b720 11e .cfa: $rsp .ra: .cfa 8 - ^
STACK CFI 2b720 .cfa: $rsp 96 +
STACK CFI INIT 2b840 11e .cfa: $rsp .ra: .cfa 8 - ^
STACK CFI 2b840 .cfa: $rsp 96 +
STACK CFI INIT 2b960 1d6 .cfa: $rsp .ra: .cfa 8 - ^
STACK CFI 2b960 .cfa: $rsp 112 +
STACK CFI INIT 2bb40 486 .cfa: $rsp .ra: .cfa 8 - ^
STACK CFI 2bb40 .cfa: $rsp 208 +
STACK CFI INIT 2bfd0 96b .cfa: $rsp .ra: .cfa 8 - ^
STACK CFI 2bfd0 .cfa: $rsp 256 +
STACK CFI INIT 2c940 11 .cfa: $rsp .ra: .cfa 8 - ^
STACK CFI 2c940 .cfa: $rsp 8 +
STACK CFI INIT 2c960 163 .cfa: $rsp .ra: .cfa 8 - ^
STACK CFI 2c960 .cfa: $rsp 128 +
STACK CFI INIT 2cad0 bfb .cfa: $rsp .ra: .cfa 8 - ^
STACK CFI 2cad0 .cfa: $rsp 224 +
STACK CFI INIT 2d6d0 11d .cfa: $rsp .ra: .cfa 8 - ^
STACK CFI 2d6d0 .cfa: $rsp 96 +
STACK CFI INIT 2d7f0 1f .cfa: $rsp .ra: .cfa 8 - ^
STACK CFI 2d7f0 .cfa: $rsp 48 +
STACK CFI INIT 2d810 16 .cfa: $rsp .ra: .cfa 8 - ^
STACK CFI 2d810 .cfa: $rsp 8 +
STACK CFI INIT 2d830 41 .cfa: $rsp .ra: .cfa 8 - ^
STACK CFI 2d830 .cfa: $rsp 48 +
STACK CFI INIT 2d880 1f .cfa: $rsp .ra: .cfa 8 - ^
STACK CFI 2d880 .cfa: $rsp 48 +
STACK CFI INIT 2d8a0 e2 .cfa: $rsp .ra: .cfa 8 - ^
STACK CFI 2d8a0 .cfa: $rsp 160 +
STACK CFI INIT 2d990 7ac .cfa: $rsp .ra: .cfa 8 - ^
STACK CFI 2d990 .cfa: $rsp 240 +
STACK CFI INIT 2e140 194 .cfa: $rsp .ra: .cfa 8 - ^
STACK CFI 2e140 .cfa: $rsp 144 +
STACK CFI INIT 2e2e0 af .cfa: $rsp .ra: .cfa 8 - ^
STACK CFI 2e2e0 .cfa: $rsp 96 +
STACK CFI INIT 2e390 4e1 .cfa: $rsp .ra: .cfa 8 - ^
STACK CFI 2e390 .cfa: $rsp 176 +
STACK CFI INIT 2e880 3f7 .cfa: $rsp .ra: .cfa 8 - ^
STACK CFI 2e880 .cfa: $rsp 96 +
STACK CFI INIT 2ec80 4e .cfa: $rsp .ra: .cfa 8 - ^
STACK CFI 2ec80 .cfa: $rsp 80 +
STACK CFI INIT 2ecd0 933 .cfa: $rsp .ra: .cfa 8 - ^
STACK CFI 2ecd0 .cfa: $rsp 224 +
STACK CFI INIT 2f610 11 .cfa: $rsp .ra: .cfa 8 - ^
STACK CFI 2f610 .cfa: $rsp 8 +
STACK CFI INIT 2f630 146 .cfa: $rsp .ra: .cfa 8 - ^
STACK CFI 2f630 .cfa: $rsp 144 +
STACK CFI INIT 2f780 615 .cfa: $rsp .ra: .cfa 8 - ^
STACK CFI 2f780 .cfa: $rsp 192 +
STACK CFI INIT 2fda0 186 .cfa: $rsp .ra: .cfa 8 - ^
STACK CFI 2fda0 .cfa: $rsp 112 +
STACK CFI INIT 2ff30 2fd .cfa: $rsp .ra: .cfa 8 - ^
STACK CFI 2ff30 .cfa: $rsp 128 +
STACK CFI INIT 30230 79 .cfa: $rsp .ra: .cfa 8 - ^
STACK CFI 30230 .cfa: $rsp 96 +
STACK CFI INIT 302b0 32d .cfa: $rsp .ra: .cfa 8 - ^
STACK CFI 302b0 .cfa: $rsp 128 +
STACK CFI INIT 305e0 47 .cfa: $rsp .ra: .cfa 8 - ^
STACK CFI 305e0 .cfa: $rsp 64 +
STACK CFI INIT 30630 47 .cfa: $rsp .ra: .cfa 8 - ^
STACK CFI 30630 .cfa: $rsp 64 +
STACK CFI INIT 30680 47 .cfa: $rsp .ra: .cfa 8 - ^
STACK CFI 30680 .cfa: $rsp 64 +
STACK CFI INIT 306d0 7a .cfa: $rsp .ra: .cfa 8 - ^
STACK CFI 306d0 .cfa: $rsp 80 +
STACK CFI INIT 30750 7a .cfa: $rsp .ra: .cfa 8 - ^
STACK CFI 30750 .cfa: $rsp 80 +
STACK CFI INIT 307d0 5f .cfa: $rsp .ra: .cfa 8 - ^
STACK CFI 307d0 .cfa: $rsp 80 +
STACK CFI INIT 30830 83 .cfa: $rsp .ra: .cfa 8 - ^
STACK CFI 30830 .cfa: $rsp 80 +
STACK CFI INIT 308c0 133 .cfa: $rsp .ra: .cfa 8 - ^
STACK CFI 308c0 .cfa: $rsp 80 +
STACK CFI INIT 30a00 11a .cfa: $rsp .ra: .cfa 8 - ^
STACK CFI 30a00 .cfa: $rsp 96 +
STACK CFI INIT 30b20 5c .cfa: $rsp .ra: .cfa 8 - ^
STACK CFI 30b20 .cfa: $rsp 48 +
STACK CFI INIT 30b80 4c .cfa: $rsp .ra: .cfa 8 - ^
STACK CFI 30b80 .cfa: $rsp 48 +
STACK CFI INIT 30bd0 17e .cfa: $rsp .ra: .cfa 8 - ^
STACK CFI 30bd0 .cfa: $rsp 112 +
STACK CFI INIT 30d50 7c .cfa: $rsp .ra: .cfa 8 - ^
STACK CFI 30d50 .cfa: $rsp 48 +
STACK CFI INIT 30dd0 1f .cfa: $rsp .ra: .cfa 8 - ^
STACK CFI 30dd0 .cfa: $rsp 48 +
STACK CFI INIT 30df0 d80 .cfa: $rsp .ra: .cfa 8 - ^
STACK CFI 30df0 .cfa: $rsp 176 +
STACK CFI INIT 31b70 1a4 .cfa: $rsp .ra: .cfa 8 - ^
STACK CFI 31b70 .cfa: $rsp 112 +
STACK CFI INIT 31d20 1c6 .cfa: $rsp .ra: .cfa 8 - ^
STACK CFI 31d20 .cfa: $rsp 128 +
STACK CFI INIT 31ef0 7be .cfa: $rsp .ra: .cfa 8 - ^
STACK CFI 31ef0 .cfa: $rsp 208 +
STACK CFI INIT 326b0 ca .cfa: $rsp .ra: .cfa 8 - ^
STACK CFI 326b0 .cfa: $rsp 48 +
STACK CFI INIT 32780 1a8 .cfa: $rsp .ra: .cfa 8 - ^
STACK CFI 32780 .cfa: $rsp 144 +
STACK CFI INIT 32930 4f .cfa: $rsp .ra: .cfa 8 - ^
STACK CFI 32930 .cfa: $rsp 48 +
STACK CFI INIT 32980 77 .cfa: $rsp .ra: .cfa 8 - ^
STACK CFI 32980 .cfa: $rsp 80 +
STACK CFI INIT 32a00 d3 .cfa: $rsp .ra: .cfa 8 - ^
STACK CFI 32a00 .cfa: $rsp 112 +
STACK CFI INIT 32ae0 be .cfa: $rsp .ra: .cfa 8 - ^
STACK CFI 32ae0 .cfa: $rsp 80 +
STACK CFI INIT 32ba0 26 .cfa: $rsp .ra: .cfa 8 - ^
STACK CFI 32ba0 .cfa: $rsp 8 +
STACK CFI INIT 32bd0 52 .cfa: $rsp .ra: .cfa 8 - ^
STACK CFI 32bd0 .cfa: $rsp 64 +
STACK CFI INIT 32c30 236 .cfa: $rsp .ra: .cfa 8 - ^
STACK CFI 32c30 .cfa: $rsp 160 +
STACK CFI INIT 32e70 268 .cfa: $rsp .ra: .cfa 8 - ^
STACK CFI 32e70 .cfa: $rsp 128 +
STACK CFI INIT 330e0 15 .cfa: $rsp .ra: .cfa 8 - ^
STACK CFI 330e0 .cfa: $rsp 8 +
STACK CFI INIT 33100 db .cfa: $rsp .ra: .cfa 8 - ^
STACK CFI 33100 .cfa: $rsp 1136 +
STACK CFI INIT 331e0 c .cfa: $rsp .ra: .cfa 8 - ^
STACK CFI 331e0 .cfa: $rsp 8 +
STACK CFI INIT 331f0 32 .cfa: $rsp .ra: .cfa 8 - ^
STACK CFI 331f0 .cfa: $rsp 48 +
STACK CFI INIT 33230 3a .cfa: $rsp .ra: .cfa 8 - ^
STACK CFI 33230 .cfa: $rsp 64 +
STACK CFI INIT 33270 3aa .cfa: $rsp .ra: .cfa 8 - ^
STACK CFI 33270 .cfa: $rsp 144 +
STACK CFI INIT 33620 91 .cfa: $rsp .ra: .cfa 8 - ^
STACK CFI 33620 .cfa: $rsp 64 +
STACK CFI INIT 336c0 ee .cfa: $rsp .ra: .cfa 8 - ^
STACK CFI 336c0 .cfa: $rsp 96 +
STACK CFI INIT 337b0 a2 .cfa: $rsp .ra: .cfa 8 - ^
STACK CFI 337b0 .cfa: $rsp 112 +
STACK CFI INIT 33860 2a8 .cfa: $rsp .ra: .cfa 8 - ^
STACK CFI 33860 .cfa: $rsp 160 +
STACK CFI INIT 33b10 6d .cfa: $rsp .ra: .cfa 8 - ^
STACK CFI 33b10 .cfa: $rsp 96 +
STACK CFI INIT 33b80 10e .cfa: $rsp .ra: .cfa 8 - ^
STACK CFI 33b80 .cfa: $rsp 128 +
STACK CFI INIT 33c90 11e .cfa: $rsp .ra: .cfa 8 - ^
STACK CFI 33c90 .cfa: $rsp 128 +
STACK CFI INIT 33db0 278 .cfa: $rsp .ra: .cfa 8 - ^
STACK CFI 33db0 .cfa: $rsp 144 +
STACK CFI INIT 34030 285 .cfa: $rsp .ra: .cfa 8 - ^
STACK CFI 34030 .cfa: $rsp 176 +
STACK CFI INIT 342c0 306 .cfa: $rsp .ra: .cfa 8 - ^
STACK CFI 342c0 .cfa: $rsp 112 +
STACK CFI INIT 345d0 a3 .cfa: $rsp .ra: .cfa 8 - ^
STACK CFI 345d0 .cfa: $rsp 96 +
STACK CFI INIT 34680 ba .cfa: $rsp .ra: .cfa 8 - ^
STACK CFI 34680 .cfa: $rsp 112 +
STACK CFI INIT 34740 720 .cfa: $rsp .ra: .cfa 8 - ^
STACK CFI 34740 .cfa: $rsp 272 +
STACK CFI INIT 34e60 4f1 .cfa: $rsp .ra: .cfa 8 - ^
STACK CFI 34e60 .cfa: $rsp 192 +
STACK CFI INIT 35360 3e0 .cfa: $rsp .ra: .cfa 8 - ^
STACK CFI 35360 .cfa: $rsp 160 +
STACK CFI INIT 35740 1c2 .cfa: $rsp .ra: .cfa 8 - ^
STACK CFI 35740 .cfa: $rsp 144 +
STACK CFI INIT 35910 13 .cfa: $rsp .ra: .cfa 8 - ^
STACK CFI 35910 .cfa: $rsp 8 +
STACK CFI INIT 35930 5 .cfa: $rsp .ra: .cfa 8 - ^
STACK CFI 35930 .cfa: $rsp 8 +
STACK CFI INIT 35940 b .cfa: $rsp .ra: .cfa 8 - ^
STACK CFI 35940 .cfa: $rsp 8 +
STACK CFI INIT 35950 7 .cfa: $rsp .ra: .cfa 8 - ^
STACK CFI 35950 .cfa: $rsp 8 +
STACK CFI INIT 35960 8 .cfa: $rsp .ra: .cfa 8 - ^
STACK CFI 35960 .cfa: $rsp 8 +
STACK CFI INIT 35970 19 .cfa: $rsp .ra: .cfa 8 - ^
STACK CFI 35970 .cfa: $rsp 8 +
STACK CFI INIT 35990 1f .cfa: $rsp .ra: .cfa 8 - ^
STACK CFI 35990 .cfa: $rsp 8 +
STACK CFI INIT 359b0 17 .cfa: $rsp .ra: .cfa 8 - ^
STACK CFI 359b0 .cfa: $rsp 8 +
STACK CFI INIT 359d0 c .cfa: $rsp .ra: .cfa 8 - ^
STACK CFI 359d0 .cfa: $rsp 8 +
STACK CFI INIT 359e0 13 .cfa: $rsp .ra: .cfa 8 - ^
STACK CFI 359e0 .cfa: $rsp 8 +
STACK CFI INIT 35a00 2b .cfa: $rsp .ra: .cfa 8 - ^
STACK CFI 35a00 .cfa: $rsp 8 +
STACK CFI INIT 35a30 18 .cfa: $rsp .ra: .cfa 8 - ^
STACK CFI 35a30 .cfa: $rsp 8 +
STACK CFI INIT 35a50 162 .cfa: $rsp .ra: .cfa 8 - ^
STACK CFI 35a50 .cfa: $rsp 96 +
STACK CFI INIT 35bc0 187 .cfa: $rsp .ra: .cfa 8 - ^
STACK CFI 35bc0 .cfa: $rsp 128 +
STACK CFI INIT 35d50 4 .cfa: $rsp .ra: .cfa 8 - ^
STACK CFI 35d50 .cfa: $rsp 8 +
STACK CFI INIT 35d60 4 .cfa: $rsp .ra: .cfa 8 - ^
STACK CFI 35d60 .cfa: $rsp 8 +
STACK CFI INIT 35d70 71 .cfa: $rsp .ra: .cfa 8 - ^
STACK CFI 35d70 .cfa: $rsp 80 +
STACK CFI INIT 35df0 9d .cfa: $rsp .ra: .cfa 8 - ^
STACK CFI 35df0 .cfa: $rsp 80 +
STACK CFI INIT 35e90 b6 .cfa: $rsp .ra: .cfa 8 - ^
STACK CFI 35e90 .cfa: $rsp 80 +
STACK CFI INIT 35f50 35 .cfa: $rsp .ra: .cfa 8 - ^
STACK CFI 35f50 .cfa: $rsp 48 +
STACK CFI INIT 35f90 1b5 .cfa: $rsp .ra: .cfa 8 - ^
STACK CFI 35f90 .cfa: $rsp 112 +
STACK CFI INIT 36150 51 .cfa: $rsp .ra: .cfa 8 - ^
STACK CFI 36150 .cfa: $rsp 16 +
STACK CFI INIT 361b0 3db .cfa: $rsp .ra: .cfa 8 - ^
STACK CFI 361b0 .cfa: $rsp 160 +
STACK CFI INIT 36590 b9 .cfa: $rsp .ra: .cfa 8 - ^
STACK CFI 36590 .cfa: $rsp 80 +
STACK CFI INIT 36650 53 .cfa: $rsp .ra: .cfa 8 - ^
STACK CFI 36650 .cfa: $rsp 8 +
STACK CFI INIT 366b0 143 .cfa: $rsp .ra: .cfa 8 - ^
STACK CFI 366b0 .cfa: $rsp 96 +
STACK CFI INIT 36800 27 .cfa: $rsp .ra: .cfa 8 - ^
STACK CFI 36800 .cfa: $rsp 8 +
STACK CFI INIT 36830 1e5 .cfa: $rsp .ra: .cfa 8 - ^
STACK CFI 36830 .cfa: $rsp 128 +
STACK CFI INIT 36a20 21 .cfa: $rsp .ra: .cfa 8 - ^
STACK CFI 36a20 .cfa: $rsp 8 +
STACK CFI INIT 36a50 1e .cfa: $rsp .ra: .cfa 8 - ^
STACK CFI 36a50 .cfa: $rsp 8 +
STACK CFI INIT 36a70 e5 .cfa: $rsp .ra: .cfa 8 - ^
STACK CFI 36a70 .cfa: $rsp 80 +
STACK CFI INIT 36b60 26e .cfa: $rsp .ra: .cfa 8 - ^
STACK CFI 36b60 .cfa: $rsp 128 +
STACK CFI INIT 36dd0 66 .cfa: $rsp .ra: .cfa 8 - ^
STACK CFI 36dd0 .cfa: $rsp 64 +
STACK CFI INIT 36e40 63 .cfa: $rsp .ra: .cfa 8 - ^
STACK CFI 36e40 .cfa: $rsp 64 +
STACK CFI INIT 36eb0 108 .cfa: $rsp .ra: .cfa 8 - ^
STACK CFI 36eb0 .cfa: $rsp 80 +
STACK CFI INIT 36fc0 67 .cfa: $rsp .ra: .cfa 8 - ^
STACK CFI 36fc0 .cfa: $rsp 64 +
STACK CFI INIT 37030 19 .cfa: $rsp .ra: .cfa 8 - ^
STACK CFI 37030 .cfa: $rsp 8 +
STACK CFI INIT 37050 25 .cfa: $rsp .ra: .cfa 8 - ^
STACK CFI 37050 .cfa: $rsp 64 +
STACK CFI INIT 37080 5 .cfa: $rsp .ra: .cfa 8 - ^
STACK CFI 37080 .cfa: $rsp 8 +
STACK CFI INIT 37090 93 .cfa: $rsp .ra: .cfa 8 - ^
STACK CFI 37090 .cfa: $rsp 96 +
STACK CFI INIT 37130 5 .cfa: $rsp .ra: .cfa 8 - ^
STACK CFI 37130 .cfa: $rsp 8 +
STACK CFI INIT 37140 39 .cfa: $rsp .ra: .cfa 8 - ^
STACK CFI 37140 .cfa: $rsp 64 +
STACK CFI INIT 37180 13e .cfa: $rsp .ra: .cfa 8 - ^
STACK CFI 37180 .cfa: $rsp 112 +
STACK CFI INIT 372c0 11b .cfa: $rsp .ra: .cfa 8 - ^
STACK CFI 372c0 .cfa: $rsp 144 +
STACK CFI INIT 373e0 d0 .cfa: $rsp .ra: .cfa 8 - ^
STACK CFI 373e0 .cfa: $rsp 96 +
STACK CFI INIT 374b0 2be .cfa: $rsp .ra: .cfa 8 - ^
STACK CFI 374b0 .cfa: $rsp 160 +
STACK CFI INIT 37770 d3 .cfa: $rsp .ra: .cfa 8 - ^
STACK CFI 37770 .cfa: $rsp 128 +
STACK CFI INIT 37850 9b .cfa: $rsp .ra: .cfa 8 - ^
STACK CFI 37850 .cfa: $rsp 96 +
STACK CFI INIT 378f0 608 .cfa: $rsp .ra: .cfa 8 - ^
STACK CFI 378f0 .cfa: $rsp 240 +
STACK CFI INIT 37f00 cb .cfa: $rsp .ra: .cfa 8 - ^
STACK CFI 37f00 .cfa: $rsp 112 +
STACK CFI INIT 37fd0 23 .cfa: $rsp .ra: .cfa 8 - ^
STACK CFI 37fd0 .cfa: $rsp 8 +
STACK CFI INIT 38000 9 .cfa: $rsp .ra: .cfa 8 - ^
STACK CFI 38000 .cfa: $rsp 8 +
STACK CFI INIT 38010 9 .cfa: $rsp .ra: .cfa 8 - ^
STACK CFI 38010 .cfa: $rsp 8 +
STACK CFI INIT 38020 53 .cfa: $rsp .ra: .cfa 8 - ^
STACK CFI 38020 .cfa: $rsp 80 +
STACK CFI INIT 38080 8 .cfa: $rsp .ra: .cfa 8 - ^
STACK CFI 38080 .cfa: $rsp 8 +
STACK CFI INIT 38090 169 .cfa: $rsp .ra: .cfa 8 - ^
STACK CFI 38090 .cfa: $rsp 80 +
STACK CFI INIT 38200 11f .cfa: $rsp .ra: .cfa 8 - ^
STACK CFI 38200 .cfa: $rsp 112 +
STACK CFI INIT 38320 1b6 .cfa: $rsp .ra: .cfa 8 - ^
STACK CFI 38320 .cfa: $rsp 128 +
STACK CFI INIT 384e0 1ec .cfa: $rsp .ra: .cfa 8 - ^
STACK CFI 384e0 .cfa: $rsp 112 +
STACK CFI INIT 386d0 3d .cfa: $rsp .ra: .cfa 8 - ^
STACK CFI 386d0 .cfa: $rsp 64 +
STACK CFI INIT 38710 de .cfa: $rsp .ra: .cfa 8 - ^
STACK CFI 38710 .cfa: $rsp 80 +
STACK CFI INIT 387f0 2b74 .cfa: $rsp .ra: .cfa 8 - ^
STACK CFI 387f0 .cfa: $rsp 2960 +
STACK CFI INIT 3b370 20 .cfa: $rsp .ra: .cfa 8 - ^
STACK CFI 3b370 .cfa: $rsp 8 +
STACK CFI INIT 3b390 1f .cfa: $rsp .ra: .cfa 8 - ^
STACK CFI 3b390 .cfa: $rsp 8 +
STACK CFI INIT 3b3b0 15 .cfa: $rsp .ra: .cfa 8 - ^
STACK CFI 3b3b0 .cfa: $rsp 8 +
STACK CFI INIT 3b3d0 41 .cfa: $rsp .ra: .cfa 8 - ^
STACK CFI 3b3d0 .cfa: $rsp 48 +
STACK CFI INIT 3b420 10c .cfa: $rsp .ra: .cfa 8 - ^
STACK CFI 3b420 .cfa: $rsp 64 +
STACK CFI INIT 3b530 26 .cfa: $rsp .ra: .cfa 8 - ^
STACK CFI 3b530 .cfa: $rsp 48 +
STACK CFI INIT 3b560 1c .cfa: $rsp .ra: .cfa 8 - ^
STACK CFI 3b560 .cfa: $rsp 48 +
STACK CFI INIT 3b580 7 .cfa: $rsp .ra: .cfa 8 - ^
STACK CFI 3b580 .cfa: $rsp 8 +
STACK CFI INIT 3b590 7 .cfa: $rsp .ra: .cfa 8 - ^
STACK CFI 3b590 .cfa: $rsp 8 +
STACK CFI INIT 3b5a0 46 .cfa: $rsp .ra: .cfa 8 - ^
STACK CFI 3b5a0 .cfa: $rsp 64 +
STACK CFI INIT 3b5f0 152 .cfa: $rsp .ra: .cfa 8 - ^
STACK CFI 3b5f0 .cfa: $rsp 80 +
STACK CFI INIT 3b750 c .cfa: $rsp .ra: .cfa 8 - ^
STACK CFI 3b750 .cfa: $rsp 8 +
STACK CFI INIT 3b760 f .cfa: $rsp .ra: .cfa 8 - ^
STACK CFI 3b760 .cfa: $rsp 8 +
STACK CFI INIT 3b770 6f .cfa: $rsp .ra: .cfa 8 - ^
STACK CFI 3b770 .cfa: $rsp 8 +
STACK CFI INIT 3b7e0 2 .cfa: $rsp .ra: .cfa 8 - ^
STACK CFI 3b7e0 .cfa: $rsp 8 +
STACK CFI INIT 3b7f0 81 .cfa: $rsp .ra: .cfa 8 - ^
STACK CFI 3b7f0 .cfa: $rsp 8 +
STACK CFI INIT 3b880 6e .cfa: $rsp .ra: .cfa 8 - ^
STACK CFI 3b880 .cfa: $rsp 16 +
STACK CFI INIT 3b8f0 8c .cfa: $rsp .ra: .cfa 8 - ^
STACK CFI 3b8f0 .cfa: $rsp 80 +
STACK CFI INIT 3b980 44 .cfa: $rsp .ra: .cfa 8 - ^
STACK CFI 3b980 .cfa: $rsp 64 +
STACK CFI INIT 3b9d0 33a .cfa: $rsp .ra: .cfa 8 - ^
STACK CFI 3b9d0 .cfa: $rsp 176 +
STACK CFI INIT 3bd10 2d7 .cfa: $rsp .ra: .cfa 8 - ^
STACK CFI 3bd10 .cfa: $rsp 176 +
STACK CFI INIT 3bff0 3a .cfa: $rsp .ra: .cfa 8 - ^
STACK CFI 3bff0 .cfa: $rsp 64 +
STACK CFI INIT 3c030 9f .cfa: $rsp .ra: .cfa 8 - ^
STACK CFI 3c030 .cfa: $rsp 48 +
STACK CFI INIT 3c0d0 536 .cfa: $rsp .ra: .cfa 8 - ^
STACK CFI 3c0d0 .cfa: $rsp 176 +
STACK CFI INIT 3c610 3b9 .cfa: $rsp .ra: .cfa 8 - ^
STACK CFI 3c610 .cfa: $rsp 144 +
STACK CFI INIT 3c9d0 11 .cfa: $rsp .ra: .cfa 8 - ^
STACK CFI 3c9d0 .cfa: $rsp 8 +
STACK CFI INIT 3c9f0 70 .cfa: $rsp .ra: .cfa 8 - ^
STACK CFI 3c9f0 .cfa: $rsp 48 +
STACK CFI INIT 3ca60 4 .cfa: $rsp .ra: .cfa 8 - ^
STACK CFI 3ca60 .cfa: $rsp 8 +
STACK CFI INIT 3ca70 2bd .cfa: $rsp .ra: .cfa 8 - ^
STACK CFI 3ca70 .cfa: $rsp 176 +
STACK CFI INIT 3cd30 49 .cfa: $rsp .ra: .cfa 8 - ^
STACK CFI 3cd30 .cfa: $rsp 48 +
STACK CFI INIT 3cd80 12 .cfa: $rsp .ra: .cfa 8 - ^
STACK CFI 3cd80 .cfa: $rsp 8 +
STACK CFI INIT 3cda0 9 .cfa: $rsp .ra: .cfa 8 - ^
STACK CFI 3cda0 .cfa: $rsp 8 +
STACK CFI INIT 3cdb0 8 .cfa: $rsp .ra: .cfa 8 - ^
STACK CFI 3cdb0 .cfa: $rsp 8 +
STACK CFI INIT 3cdc0 19 .cfa: $rsp .ra: .cfa 8 - ^
STACK CFI 3cdc0 .cfa: $rsp 8 +
STACK CFI INIT 3cde0 2d .cfa: $rsp .ra: .cfa 8 - ^
STACK CFI 3cde0 .cfa: $rsp 8 +
STACK CFI INIT 3ce10 64 .cfa: $rsp .ra: .cfa 8 - ^
STACK CFI 3ce10 .cfa: $rsp 8 +
STACK CFI INIT 3ce80 d7 .cfa: $rsp .ra: .cfa 8 - ^
STACK CFI 3ce80 .cfa: $rsp 8 +
STACK CFI INIT 3cf60 c5 .cfa: $rsp .ra: .cfa 8 - ^
STACK CFI 3cf60 .cfa: $rsp 8 +
STACK CFI INIT 3d030 75 .cfa: $rsp .ra: .cfa 8 - ^
STACK CFI 3d030 .cfa: $rsp 48 +
STACK CFI INIT 3d0b0 2f .cfa: $rsp .ra: .cfa 8 - ^
STACK CFI 3d0b0 .cfa: $rsp 48 +
STACK CFI INIT 3d0e0 6d .cfa: $rsp .ra: .cfa 8 - ^
STACK CFI 3d0e0 .cfa: $rsp 48 +
STACK CFI INIT 3d150 3a .cfa: $rsp .ra: .cfa 8 - ^
STACK CFI 3d150 .cfa: $rsp 48 +
STACK CFI INIT 3d190 45 .cfa: $rsp .ra: .cfa 8 - ^
STACK CFI 3d190 .cfa: $rsp 48 +
STACK CFI INIT 3d1e0 49 .cfa: $rsp .ra: .cfa 8 - ^
STACK CFI 3d1e0 .cfa: $rsp 48 +
STACK CFI INIT 3d230 1c .cfa: $rsp .ra: .cfa 8 - ^
STACK CFI 3d230 .cfa: $rsp 16 +
STACK CFI INIT 3d250 7 .cfa: $rsp .ra: .cfa 8 - ^
STACK CFI 3d250 .cfa: $rsp 8 +
STACK CFI INIT 3d260 7 .cfa: $rsp .ra: .cfa 8 - ^
STACK CFI 3d260 .cfa: $rsp 8 +
STACK CFI INIT 3d270 7 .cfa: $rsp .ra: .cfa 8 - ^
STACK CFI 3d270 .cfa: $rsp 8 +
STACK CFI INIT 3d280 26 .cfa: $rsp .ra: .cfa 8 - ^
STACK CFI 3d280 .cfa: $rsp 16 +
STACK CFI INIT 3d2b0 38 .cfa: $rsp .ra: .cfa 8 - ^
STACK CFI 3d2b0 .cfa: $rsp 48 +
STACK CFI INIT 3d2f0 115 .cfa: $rsp .ra: .cfa 8 - ^
STACK CFI 3d2f0 .cfa: $rsp 128 +
STACK CFI INIT 3d410 8a .cfa: $rsp .ra: .cfa 8 - ^
STACK CFI 3d410 .cfa: $rsp 64 +
STACK CFI INIT 3d4a0 66 .cfa: $rsp .ra: .cfa 8 - ^
STACK CFI 3d4a0 .cfa: $rsp 80 +
STACK CFI INIT 3d510 1d9 .cfa: $rsp .ra: .cfa 8 - ^
STACK CFI 3d510 .cfa: $rsp 160 +
STACK CFI INIT 3d6f0 77 .cfa: $rsp .ra: .cfa 8 - ^
STACK CFI 3d6f0 .cfa: $rsp 64 +
STACK CFI INIT 3d770 d7 .cfa: $rsp .ra: .cfa 8 - ^
STACK CFI 3d770 .cfa: $rsp 64 +
STACK CFI INIT 3d850 3d .cfa: $rsp .ra: .cfa 8 - ^
STACK CFI 3d850 .cfa: $rsp 48 +
STACK CFI INIT 3d890 67 .cfa: $rsp .ra: .cfa 8 - ^
STACK CFI 3d890 .cfa: $rsp 80 +
STACK CFI INIT 3d900 49 .cfa: $rsp .ra: .cfa 8 - ^
STACK CFI 3d900 .cfa: $rsp 80 +
STACK CFI INIT 3d950 8f .cfa: $rsp .ra: .cfa 8 - ^
STACK CFI 3d950 .cfa: $rsp 96 +
STACK CFI INIT 3d9e0 5 .cfa: $rsp .ra: .cfa 8 - ^
STACK CFI 3d9e0 .cfa: $rsp 8 +
STACK CFI INIT 3d9f0 4 .cfa: $rsp .ra: .cfa 8 - ^
STACK CFI 3d9f0 .cfa: $rsp 8 +
STACK CFI INIT 3da00 4 .cfa: $rsp .ra: .cfa 8 - ^
STACK CFI 3da00 .cfa: $rsp 8 +
STACK CFI INIT 3da10 5 .cfa: $rsp .ra: .cfa 8 - ^
STACK CFI 3da10 .cfa: $rsp 8 +
STACK CFI INIT 3da20 23 .cfa: $rsp .ra: .cfa 8 - ^
STACK CFI 3da20 .cfa: $rsp 48 +
STACK CFI INIT 3da50 5 .cfa: $rsp .ra: .cfa 8 - ^
STACK CFI 3da50 .cfa: $rsp 8 +
STACK CFI INIT 3da60 e .cfa: $rsp .ra: .cfa 8 - ^
STACK CFI 3da60 .cfa: $rsp 8 +
STACK CFI INIT 3da70 68 .cfa: $rsp .ra: .cfa 8 - ^
STACK CFI 3da70 .cfa: $rsp 48 +
STACK CFI INIT 3dae0 37b .cfa: $rsp .ra: .cfa 8 - ^
STACK CFI 3dae0 .cfa: $rsp 112 +
STACK CFI INIT 3de60 32 .cfa: $rsp .ra: .cfa 8 - ^
STACK CFI 3de60 .cfa: $rsp 64 +
STACK CFI INIT 3dea0 69 .cfa: $rsp .ra: .cfa 8 - ^
STACK CFI 3dea0 .cfa: $rsp 64 +
STACK CFI INIT 3df10 47 .cfa: $rsp .ra: .cfa 8 - ^
STACK CFI 3df10 .cfa: $rsp 8 +
STACK CFI INIT 3df60 1 .cfa: $rsp .ra: .cfa 8 - ^
STACK CFI 3df60 .cfa: $rsp 8 +
STACK CFI INIT 3df70 a .cfa: $rsp .ra: .cfa 8 - ^
STACK CFI 3df70 .cfa: $rsp 8 +
STACK CFI INIT 3df80 5 .cfa: $rsp .ra: .cfa 8 - ^
STACK CFI 3df80 .cfa: $rsp 8 +
STACK CFI INIT 3df90 77 .cfa: $rsp .ra: .cfa 8 - ^
STACK CFI 3df90 .cfa: $rsp 80 +
STACK CFI INIT 3e010 77 .cfa: $rsp .ra: .cfa 8 - ^
STACK CFI 3e010 .cfa: $rsp 80 +
STACK CFI INIT 3e090 83 .cfa: $rsp .ra: .cfa 8 - ^
STACK CFI 3e090 .cfa: $rsp 80 +
STACK CFI INIT 3e120 f4 .cfa: $rsp .ra: .cfa 8 - ^
STACK CFI 3e120 .cfa: $rsp 96 +
STACK CFI INIT 3e220 206 .cfa: $rsp .ra: .cfa 8 - ^
STACK CFI 3e220 .cfa: $rsp 96 +
STACK CFI INIT 3e430 7 .cfa: $rsp .ra: .cfa 8 - ^
STACK CFI 3e430 .cfa: $rsp 8 +
STACK CFI INIT 3e450 53 .cfa: $rsp .ra: .cfa 8 - ^
STACK CFI 3e450 .cfa: $rsp 80 +
STACK CFI INIT 3e4b0 111 .cfa: $rsp .ra: .cfa 8 - ^
STACK CFI 3e4b0 .cfa: $rsp 96 +
STACK CFI INIT 3e5d0 57 .cfa: $rsp .ra: .cfa 8 - ^
STACK CFI 3e5d0 .cfa: $rsp 64 +
STACK CFI INIT 3e630 53 .cfa: $rsp .ra: .cfa 8 - ^
STACK CFI 3e630 .cfa: $rsp 80 +
STACK CFI INIT 3e690 6f .cfa: $rsp .ra: .cfa 8 - ^
STACK CFI 3e690 .cfa: $rsp 96 +
STACK CFI INIT 3e700 388 .cfa: $rsp .ra: .cfa 8 - ^
STACK CFI 3e700 .cfa: $rsp 384 +
STACK CFI INIT 3ea90 1e8 .cfa: $rsp .ra: .cfa 8 - ^
STACK CFI 3ea90 .cfa: $rsp 144 +
STACK CFI INIT 3ec80 8a .cfa: $rsp .ra: .cfa 8 - ^
STACK CFI 3ec80 .cfa: $rsp 80 +
STACK CFI INIT 3ed10 12f .cfa: $rsp .ra: .cfa 8 - ^
STACK CFI 3ed10 .cfa: $rsp 56 +
STACK CFI INIT 3ee40 17 .cfa: $rsp .ra: .cfa 8 - ^
STACK CFI 3ee40 .cfa: $rsp 8 +
STACK CFI INIT 3ee60 16d .cfa: $rsp .ra: .cfa 8 - ^
STACK CFI 3ee60 .cfa: $rsp 128 +
STACK CFI INIT 3efd0 1c7 .cfa: $rsp .ra: .cfa 8 - ^
STACK CFI 3efd0 .cfa: $rsp 160 +
STACK CFI INIT 3f1a0 a0 .cfa: $rsp .ra: .cfa 8 - ^
STACK CFI 3f1a0 .cfa: $rsp 80 +
STACK CFI INIT 3f240 b6 .cfa: $rsp .ra: .cfa 8 - ^
STACK CFI 3f240 .cfa: $rsp 80 +
STACK CFI INIT 3f300 6a5 .cfa: $rsp .ra: .cfa 8 - ^
STACK CFI 3f300 .cfa: $rsp 464 +
STACK CFI INIT 3f9b0 6a3 .cfa: $rsp .ra: .cfa 8 - ^
STACK CFI 3f9b0 .cfa: $rsp 496 +
STACK CFI INIT 40060 a7c .cfa: $rsp .ra: .cfa 8 - ^
STACK CFI 40060 .cfa: $rsp 288 +
STACK CFI INIT 40ae0 29d .cfa: $rsp .ra: .cfa 8 - ^
STACK CFI 40ae0 .cfa: $rsp 96 +
STACK CFI INIT 40d80 1e5 .cfa: $rsp .ra: .cfa 8 - ^
STACK CFI 40d80 .cfa: $rsp 144 +
STACK CFI INIT 40f70 2d6 .cfa: $rsp .ra: .cfa 8 - ^
STACK CFI 40f70 .cfa: $rsp 208 +
STACK CFI INIT 41250 20a .cfa: $rsp .ra: .cfa 8 - ^
STACK CFI 41250 .cfa: $rsp 160 +
STACK CFI INIT 41460 4fc .cfa: $rsp .ra: .cfa 8 - ^
STACK CFI 41460 .cfa: $rsp 240 +
STACK CFI INIT 41960 37 .cfa: $rsp .ra: .cfa 8 - ^
STACK CFI 41960 .cfa: $rsp 64 +
STACK CFI INIT 419a0 119 .cfa: $rsp .ra: .cfa 8 - ^
STACK CFI 419a0 .cfa: $rsp 208 +
STACK CFI INIT 41ac0 27c .cfa: $rsp .ra: .cfa 8 - ^
STACK CFI 41ac0 .cfa: $rsp 336 +
STACK CFI INIT 41d40 e1 .cfa: $rsp .ra: .cfa 8 - ^
STACK CFI 41d40 .cfa: $rsp 96 +
STACK CFI INIT 41e30 88 .cfa: $rsp .ra: .cfa 8 - ^
STACK CFI 41e30 .cfa: $rsp 96 +
STACK CFI INIT 41ec0 5c1 .cfa: $rsp .ra: .cfa 8 - ^
STACK CFI 41ec0 .cfa: $rsp 352 +
STACK CFI INIT 42490 de .cfa: $rsp .ra: .cfa 8 - ^
STACK CFI 42490 .cfa: $rsp 96 +
STACK CFI INIT 42570 30d .cfa: $rsp .ra: .cfa 8 - ^
STACK CFI 42570 .cfa: $rsp 352 +
STACK CFI INIT 42880 5f5 .cfa: $rsp .ra: .cfa 8 - ^
STACK CFI 42880 .cfa: $rsp 432 +
STACK CFI INIT 42e80 cf .cfa: $rsp .ra: .cfa 8 - ^
STACK CFI 42e80 .cfa: $rsp 64 +
STACK CFI INIT 42f50 118 .cfa: $rsp .ra: .cfa 8 - ^
STACK CFI 42f50 .cfa: $rsp 96 +
STACK CFI INIT 43070 399 .cfa: $rsp .ra: .cfa 8 - ^
STACK CFI 43070 .cfa: $rsp 224 +
STACK CFI INIT 43410 6a3 .cfa: $rsp .ra: .cfa 8 - ^
STACK CFI 43410 .cfa: $rsp 240 +
STACK CFI INIT 43ac0 397 .cfa: $rsp .ra: .cfa 8 - ^
STACK CFI 43ac0 .cfa: $rsp 176 +
STACK CFI INIT 43e60 181 .cfa: $rsp .ra: .cfa 8 - ^
STACK CFI 43e60 .cfa: $rsp 112 +
STACK CFI INIT 43ff0 221 .cfa: $rsp .ra: .cfa 8 - ^
STACK CFI 43ff0 .cfa: $rsp 112 +
STACK CFI INIT 44220 8d .cfa: $rsp .ra: .cfa 8 - ^
STACK CFI 44220 .cfa: $rsp 64 +
STACK CFI INIT 442b0 96b .cfa: $rsp .ra: .cfa 8 - ^
STACK CFI 442b0 .cfa: $rsp 352 +
STACK CFI INIT 44c20 54 .cfa: $rsp .ra: .cfa 8 - ^
STACK CFI 44c20 .cfa: $rsp 64 +
STACK CFI INIT 44c80 326 .cfa: $rsp .ra: .cfa 8 - ^
STACK CFI 44c80 .cfa: $rsp 112 +
STACK CFI INIT 44fb0 1e9 .cfa: $rsp .ra: .cfa 8 - ^
STACK CFI 44fb0 .cfa: $rsp 80 +
STACK CFI INIT 451b0 4c1 .cfa: $rsp .ra: .cfa 8 - ^
STACK CFI 451b0 .cfa: $rsp 176 +
STACK CFI INIT 45690 5d .cfa: $rsp .ra: .cfa 8 - ^
STACK CFI 45690 .cfa: $rsp 64 +
STACK CFI INIT 456f0 8 .cfa: $rsp .ra: .cfa 8 - ^
STACK CFI 456f0 .cfa: $rsp 8 +
STACK CFI INIT 45700 30 .cfa: $rsp .ra: .cfa 8 - ^
STACK CFI 45700 .cfa: $rsp 48 +
STACK CFI INIT 45730 72 .cfa: $rsp .ra: .cfa 8 - ^
STACK CFI 45730 .cfa: $rsp 48 +
STACK CFI INIT 457b0 10 .cfa: $rsp .ra: .cfa 8 - ^
STACK CFI 457b0 .cfa: $rsp 8 +
STACK CFI INIT 457c0 13f .cfa: $rsp .ra: .cfa 8 - ^
STACK CFI 457c0 .cfa: $rsp 112 +
STACK CFI INIT 45900 15 .cfa: $rsp .ra: .cfa 8 - ^
STACK CFI 45900 .cfa: $rsp 8 +
STACK CFI INIT 45920 2e .cfa: $rsp .ra: .cfa 8 - ^
STACK CFI 45920 .cfa: $rsp 48 +
STACK CFI INIT 45950 b .cfa: $rsp .ra: .cfa 8 - ^
STACK CFI 45950 .cfa: $rsp 8 +
STACK CFI INIT 45960 26 .cfa: $rsp .ra: .cfa 8 - ^
STACK CFI 45960 .cfa: $rsp 8 +
STACK CFI INIT 45990 f .cfa: $rsp .ra: .cfa 8 - ^
STACK CFI 45990 .cfa: $rsp 8 +
STACK CFI INIT 459a0 2d .cfa: $rsp .ra: .cfa 8 - ^
STACK CFI 459a0 .cfa: $rsp 48 +
STACK CFI INIT 459d0 64b .cfa: $rsp .ra: .cfa 8 - ^
STACK CFI 459d0 .cfa: $rsp 176 +
STACK CFI INIT 46020 55 .cfa: $rsp .ra: .cfa 8 - ^
STACK CFI 46020 .cfa: $rsp 64 +
STACK CFI INIT 46080 55 .cfa: $rsp .ra: .cfa 8 - ^
STACK CFI 46080 .cfa: $rsp 80 +
STACK CFI INIT 460e0 17c .cfa: $rsp .ra: .cfa 8 - ^
STACK CFI 460e0 .cfa: $rsp 64 +
STACK CFI INIT 46260 317 .cfa: $rsp .ra: .cfa 8 - ^
STACK CFI 46260 .cfa: $rsp 64 +
STACK CFI INIT 46580 45 .cfa: $rsp .ra: .cfa 8 - ^
STACK CFI 46580 .cfa: $rsp 64 +
STACK CFI INIT 465d0 65 .cfa: $rsp .ra: .cfa 8 - ^
STACK CFI 465d0 .cfa: $rsp 48 +
STACK CFI INIT 46640 eb .cfa: $rsp .ra: .cfa 8 - ^
STACK CFI 46640 .cfa: $rsp 192 +
STACK CFI INIT 46730 15 .cfa: $rsp .ra: .cfa 8 - ^
STACK CFI 46730 .cfa: $rsp 8 +
STACK CFI INIT 46750 61 .cfa: $rsp .ra: .cfa 8 - ^
STACK CFI 46750 .cfa: $rsp 64 +
STACK CFI INIT 467c0 e2 .cfa: $rsp .ra: .cfa 8 - ^
STACK CFI 467c0 .cfa: $rsp 80 +
STACK CFI INIT 468b0 52 .cfa: $rsp .ra: .cfa 8 - ^
STACK CFI 468b0 .cfa: $rsp 64 +
STACK CFI INIT 46910 dd .cfa: $rsp .ra: .cfa 8 - ^
STACK CFI 46910 .cfa: $rsp 96 +
STACK CFI INIT 469f0 3a .cfa: $rsp .ra: .cfa 8 - ^
STACK CFI 469f0 .cfa: $rsp 64 +
STACK CFI INIT 46a30 50 .cfa: $rsp .ra: .cfa 8 - ^
STACK CFI 46a30 .cfa: $rsp 64 +
STACK CFI INIT 46a80 52 .cfa: $rsp .ra: .cfa 8 - ^
STACK CFI 46a80 .cfa: $rsp 64 +
STACK CFI INIT 46ae0 45 .cfa: $rsp .ra: .cfa 8 - ^
STACK CFI 46ae0 .cfa: $rsp 64 +
STACK CFI INIT 46b30 552 .cfa: $rsp .ra: .cfa 8 - ^
STACK CFI 46b30 .cfa: $rsp 144 +
STACK CFI INIT 47090 d8 .cfa: $rsp .ra: .cfa 8 - ^
STACK CFI 47090 .cfa: $rsp 80 +
STACK CFI INIT 47170 11 .cfa: $rsp .ra: .cfa 8 - ^
STACK CFI 47170 .cfa: $rsp 8 +
STACK CFI INIT 47190 2a .cfa: $rsp .ra: .cfa 8 - ^
STACK CFI 47190 .cfa: $rsp 48 +
STACK CFI INIT 471c0 1a .cfa: $rsp .ra: .cfa 8 - ^
STACK CFI 471c0 .cfa: $rsp 8 +
STACK CFI INIT 471e0 3e .cfa: $rsp .ra: .cfa 8 - ^
STACK CFI 471e0 .cfa: $rsp 80 +
STACK CFI INIT 47220 269 .cfa: $rsp .ra: .cfa 8 - ^
STACK CFI 47220 .cfa: $rsp 128 +
STACK CFI INIT 47490 269 .cfa: $rsp .ra: .cfa 8 - ^
STACK CFI 47490 .cfa: $rsp 128 +
STACK CFI INIT 47700 132 .cfa: $rsp .ra: .cfa 8 - ^
STACK CFI 47700 .cfa: $rsp 112 +
STACK CFI INIT 47840 68 .cfa: $rsp .ra: .cfa 8 - ^
STACK CFI 47840 .cfa: $rsp 64 +
STACK CFI INIT 478b0 4cd .cfa: $rsp .ra: .cfa 8 - ^
STACK CFI 478b0 .cfa: $rsp 432 +
STACK CFI INIT 47d80 57 .cfa: $rsp .ra: .cfa 8 - ^
STACK CFI 47d80 .cfa: $rsp 48 +
STACK CFI INIT 47de0 3b2 .cfa: $rsp .ra: .cfa 8 - ^
STACK CFI 47de0 .cfa: $rsp 368 +
STACK CFI INIT 481a0 c .cfa: $rsp .ra: .cfa 8 - ^
STACK CFI 481a0 .cfa: $rsp 8 +
STACK CFI INIT 481b0 27 .cfa: $rsp .ra: .cfa 8 - ^
STACK CFI 481b0 .cfa: $rsp 8 +
STACK CFI INIT 481e0 2fb .cfa: $rsp .ra: .cfa 8 - ^
STACK CFI 481e0 .cfa: $rsp 144 +
STACK CFI INIT 484e0 4cc .cfa: $rsp .ra: .cfa 8 - ^
STACK CFI 484e0 .cfa: $rsp 128 +
STACK CFI INIT 489b0 7d .cfa: $rsp .ra: .cfa 8 - ^
STACK CFI 489b0 .cfa: $rsp 64 +
STACK CFI INIT 48a30 aa .cfa: $rsp .ra: .cfa 8 - ^
STACK CFI 48a30 .cfa: $rsp 80 +
STACK CFI INIT 48ae0 468 .cfa: $rsp .ra: .cfa 8 - ^
STACK CFI 48ae0 .cfa: $rsp 128 +
STACK CFI INIT 48f50 205 .cfa: $rsp .ra: .cfa 8 - ^
STACK CFI 48f50 .cfa: $rsp 304 +
STACK CFI INIT 49160 ec .cfa: $rsp .ra: .cfa 8 - ^
STACK CFI 49160 .cfa: $rsp 80 +
STACK CFI INIT 49250 5a .cfa: $rsp .ra: .cfa 8 - ^
STACK CFI 49250 .cfa: $rsp 80 +
STACK CFI INIT 492b0 2c .cfa: $rsp .ra: .cfa 8 - ^
STACK CFI 492b0 .cfa: $rsp 8 +
STACK CFI INIT 492e0 db .cfa: $rsp .ra: .cfa 8 - ^
STACK CFI 492e0 .cfa: $rsp 128 +
STACK CFI INIT 493c0 ec .cfa: $rsp .ra: .cfa 8 - ^
STACK CFI 493c0 .cfa: $rsp 144 +
STACK CFI INIT 494b0 26 .cfa: $rsp .ra: .cfa 8 - ^
STACK CFI 494b0 .cfa: $rsp 8 +
STACK CFI INIT 494e0 c .cfa: $rsp .ra: .cfa 8 - ^
STACK CFI 494e0 .cfa: $rsp 8 +
STACK CFI INIT 494f0 c .cfa: $rsp .ra: .cfa 8 - ^
STACK CFI 494f0 .cfa: $rsp 8 +
STACK CFI INIT 49500 c .cfa: $rsp .ra: .cfa 8 - ^
STACK CFI 49500 .cfa: $rsp 8 +
STACK CFI INIT 49510 193 .cfa: $rsp .ra: .cfa 8 - ^
STACK CFI 49510 .cfa: $rsp 128 +
STACK CFI INIT 496b0 21 .cfa: $rsp .ra: .cfa 8 - ^
STACK CFI 496b0 .cfa: $rsp 48 +
STACK CFI INIT 496e0 4d .cfa: $rsp .ra: .cfa 8 - ^
STACK CFI 496e0 .cfa: $rsp 80 +
STACK CFI INIT 49730 28 .cfa: $rsp .ra: .cfa 8 - ^
STACK CFI 49730 .cfa: $rsp 48 +
STACK CFI INIT 49760 b .cfa: $rsp .ra: .cfa 8 - ^
STACK CFI 49760 .cfa: $rsp 8 +
STACK CFI INIT 49770 b .cfa: $rsp .ra: .cfa 8 - ^
STACK CFI 49770 .cfa: $rsp 8 +
STACK CFI INIT 49780 5d .cfa: $rsp .ra: .cfa 8 - ^
STACK CFI 49780 .cfa: $rsp 80 +
STACK CFI INIT 497e0 2f .cfa: $rsp .ra: .cfa 8 - ^
STACK CFI 497e0 .cfa: $rsp 8 +
STACK CFI INIT 49810 5f .cfa: $rsp .ra: .cfa 8 - ^
STACK CFI 49810 .cfa: $rsp 48 +
STACK CFI INIT 49870 7d .cfa: $rsp .ra: .cfa 8 - ^
STACK CFI 49870 .cfa: $rsp 64 +
STACK CFI INIT 498f0 7e .cfa: $rsp .ra: .cfa 8 - ^
STACK CFI 498f0 .cfa: $rsp 80 +
STACK CFI INIT 49970 c .cfa: $rsp .ra: .cfa 8 - ^
STACK CFI 49970 .cfa: $rsp 8 +
STACK CFI INIT 49980 b9 .cfa: $rsp .ra: .cfa 8 - ^
STACK CFI 49980 .cfa: $rsp 80 +
STACK CFI INIT 49a40 54 .cfa: $rsp .ra: .cfa 8 - ^
STACK CFI 49a40 .cfa: $rsp 64 +
STACK CFI INIT 49aa0 5c .cfa: $rsp .ra: .cfa 8 - ^
STACK CFI 49aa0 .cfa: $rsp 80 +
STACK CFI INIT 49b00 1a7 .cfa: $rsp .ra: .cfa 8 - ^
STACK CFI 49b00 .cfa: $rsp 80 +
STACK CFI INIT 49cb0 1f .cfa: $rsp .ra: .cfa 8 - ^
STACK CFI 49cb0 .cfa: $rsp 48 +
STACK CFI INIT 49cd0 3bd .cfa: $rsp .ra: .cfa 8 - ^
STACK CFI 49cd0 .cfa: $rsp 400 +
STACK CFI INIT 4a090 46e .cfa: $rsp .ra: .cfa 8 - ^
STACK CFI 4a090 .cfa: $rsp 192 +
STACK CFI INIT 4a500 264 .cfa: $rsp .ra: .cfa 8 - ^
STACK CFI 4a500 .cfa: $rsp 352 +
STACK CFI INIT 4a770 8f8 .cfa: $rsp .ra: .cfa 8 - ^
STACK CFI 4a770 .cfa: $rsp 432 +
STACK CFI INIT 4b070 10e8 .cfa: $rsp .ra: .cfa 8 - ^
STACK CFI 4b070 .cfa: $rsp 208 +
STACK CFI INIT 4c160 2b6 .cfa: $rsp .ra: .cfa 8 - ^
STACK CFI 4c160 .cfa: $rsp 128 +
STACK CFI INIT 4c420 435 .cfa: $rsp .ra: .cfa 8 - ^
STACK CFI 4c420 .cfa: $rsp 400 +
STACK CFI INIT 4c860 15 .cfa: $rsp .ra: .cfa 8 - ^
STACK CFI 4c860 .cfa: $rsp 8 +
STACK CFI INIT 4c880 3dc .cfa: $rsp .ra: .cfa 8 - ^
STACK CFI 4c880 .cfa: $rsp 368 +
STACK CFI INIT 4cc60 617 .cfa: $rsp .ra: .cfa 8 - ^
STACK CFI 4cc60 .cfa: $rsp 240 +
STACK CFI INIT 4d280 1f2 .cfa: $rsp .ra: .cfa 8 - ^
STACK CFI 4d280 .cfa: $rsp 192 +
STACK CFI INIT 4d480 3a0 .cfa: $rsp .ra: .cfa 8 - ^
STACK CFI 4d480 .cfa: $rsp 96 +
STACK CFI INIT 4d820 3ec .cfa: $rsp .ra: .cfa 8 - ^
STACK CFI 4d820 .cfa: $rsp 80 +
STACK CFI INIT 4dc10 2e2 .cfa: $rsp .ra: .cfa 8 - ^
STACK CFI 4dc10 .cfa: $rsp 144 +
STACK CFI INIT 4df00 9 .cfa: $rsp .ra: .cfa 8 - ^
STACK CFI 4df00 .cfa: $rsp 8 +
STACK CFI INIT 4df10 59 .cfa: $rsp .ra: .cfa 8 - ^
STACK CFI 4df10 .cfa: $rsp 8 +
STACK CFI INIT 4df70 47 .cfa: $rsp .ra: .cfa 8 - ^
STACK CFI 4df70 .cfa: $rsp 64 +
STACK CFI INIT 4dfc0 5f .cfa: $rsp .ra: .cfa 8 - ^
STACK CFI 4dfc0 .cfa: $rsp 80 +
STACK CFI INIT 4e020 1a .cfa: $rsp .ra: .cfa 8 - ^
STACK CFI 4e020 .cfa: $rsp 8 +
STACK CFI INIT 4e040 b .cfa: $rsp .ra: .cfa 8 - ^
STACK CFI 4e040 .cfa: $rsp 8 +
STACK CFI INIT 4e050 83 .cfa: $rsp .ra: .cfa 8 - ^
STACK CFI 4e050 .cfa: $rsp 80 +
STACK CFI INIT 4e0e0 1bd .cfa: $rsp .ra: .cfa 8 - ^
STACK CFI 4e0e0 .cfa: $rsp 96 +
STACK CFI INIT 4e2a0 14d .cfa: $rsp .ra: .cfa 8 - ^
STACK CFI 4e2a0 .cfa: $rsp 80 +
STACK CFI INIT 4e3f0 748 .cfa: $rsp .ra: .cfa 8 - ^
STACK CFI 4e3f0 .cfa: $rsp 160 +
STACK CFI INIT 4eb40 61 .cfa: $rsp .ra: .cfa 8 - ^
STACK CFI 4eb40 .cfa: $rsp 48 +
STACK CFI INIT 4ebb0 61 .cfa: $rsp .ra: .cfa 8 - ^
STACK CFI 4ebb0 .cfa: $rsp 48 +
STACK CFI INIT 4ec20 b .cfa: $rsp .ra: .cfa 8 - ^
STACK CFI 4ec20 .cfa: $rsp 8 +
STACK CFI INIT 4ec30 b .cfa: $rsp .ra: .cfa 8 - ^
STACK CFI 4ec30 .cfa: $rsp 8 +
STACK CFI INIT 4ec40 b .cfa: $rsp .ra: .cfa 8 - ^
STACK CFI 4ec40 .cfa: $rsp 8 +
STACK CFI INIT 4ec50 246 .cfa: $rsp .ra: .cfa 8 - ^
STACK CFI 4ec50 .cfa: $rsp 112 +
STACK CFI INIT 4eea0 9b .cfa: $rsp .ra: .cfa 8 - ^
STACK CFI 4eea0 .cfa: $rsp 64 +
STACK CFI INIT 4ef40 2f .cfa: $rsp .ra: .cfa 8 - ^
STACK CFI 4ef40 .cfa: $rsp 64 +
STACK CFI INIT 4ef70 23 .cfa: $rsp .ra: .cfa 8 - ^
STACK CFI 4ef70 .cfa: $rsp 48 +
STACK CFI INIT 4efa0 2f .cfa: $rsp .ra: .cfa 8 - ^
STACK CFI 4efa0 .cfa: $rsp 64 +
STACK CFI INIT 4efd0 41 .cfa: $rsp .ra: .cfa 8 - ^
STACK CFI 4efd0 .cfa: $rsp 48 +
STACK CFI INIT 4f020 8 .cfa: $rsp .ra: .cfa 8 - ^
STACK CFI 4f020 .cfa: $rsp 8 +
STACK CFI INIT 4f030 9 .cfa: $rsp .ra: .cfa 8 - ^
STACK CFI 4f030 .cfa: $rsp 8 +
STACK CFI INIT 4f040 a .cfa: $rsp .ra: .cfa 8 - ^
STACK CFI 4f040 .cfa: $rsp 8 +
STACK CFI INIT 4f050 a .cfa: $rsp .ra: .cfa 8 - ^
STACK CFI 4f050 .cfa: $rsp 8 +
STACK CFI INIT 4f060 12 .cfa: $rsp .ra: .cfa 8 - ^
STACK CFI 4f060 .cfa: $rsp 8 +
STACK CFI INIT 4f080 687 .cfa: $rsp .ra: .cfa 8 - ^
STACK CFI 4f080 .cfa: $rsp 368 +
STACK CFI INIT 4f710 107 .cfa: $rsp .ra: .cfa 8 - ^
STACK CFI 4f710 .cfa: $rsp 64 +
STACK CFI INIT 4f820 13 .cfa: $rsp .ra: .cfa 8 - ^
STACK CFI 4f820 .cfa: $rsp 8 +
STACK CFI INIT 4f840 11 .cfa: $rsp .ra: .cfa 8 - ^
STACK CFI 4f840 .cfa: $rsp 8 +
STACK CFI INIT 4f860 57 .cfa: $rsp .ra: .cfa 8 - ^
STACK CFI 4f860 .cfa: $rsp 64 +
STACK CFI INIT 4f8c0 60 .cfa: $rsp .ra: .cfa 8 - ^
STACK CFI 4f8c0 .cfa: $rsp 80 +
STACK CFI INIT 4f920 5c .cfa: $rsp .ra: .cfa 8 - ^
STACK CFI 4f920 .cfa: $rsp 80 +
STACK CFI INIT 4f980 2b7 .cfa: $rsp .ra: .cfa 8 - ^
STACK CFI 4f980 .cfa: $rsp 336 +
STACK CFI INIT 4fc40 237 .cfa: $rsp .ra: .cfa 8 - ^
STACK CFI 4fc40 .cfa: $rsp 304 +
STACK CFI INIT 4fe80 724 .cfa: $rsp .ra: .cfa 8 - ^
STACK CFI 4fe80 .cfa: $rsp 352 +
STACK CFI INIT 505b0 237 .cfa: $rsp .ra: .cfa 8 - ^
STACK CFI 505b0 .cfa: $rsp 304 +
STACK CFI INIT 507f0 417 .cfa: $rsp .ra: .cfa 8 - ^
STACK CFI 507f0 .cfa: $rsp 304 +
STACK CFI INIT 50c10 1da .cfa: $rsp .ra: .cfa 8 - ^
STACK CFI 50c10 .cfa: $rsp 96 +
STACK CFI INIT 50df0 9ff .cfa: $rsp .ra: .cfa 8 - ^
STACK CFI 50df0 .cfa: $rsp 368 +
STACK CFI INIT 517f0 176 .cfa: $rsp .ra: .cfa 8 - ^
STACK CFI 517f0 .cfa: $rsp 160 +
STACK CFI INIT 51970 177 .cfa: $rsp .ra: .cfa 8 - ^
STACK CFI 51970 .cfa: $rsp 96 +
STACK CFI INIT 51af0 167 .cfa: $rsp .ra: .cfa 8 - ^
STACK CFI 51af0 .cfa: $rsp 96 +
STACK CFI INIT 51c60 54 .cfa: $rsp .ra: .cfa 8 - ^
STACK CFI 51c60 .cfa: $rsp 64 +
STACK CFI INIT 51cc0 428 .cfa: $rsp .ra: .cfa 8 - ^
STACK CFI 51cc0 .cfa: $rsp 352 +
STACK CFI INIT 520f0 727 .cfa: $rsp .ra: .cfa 8 - ^
STACK CFI 520f0 .cfa: $rsp 400 +
STACK CFI INIT 52820 195 .cfa: $rsp .ra: .cfa 8 - ^
STACK CFI 52820 .cfa: $rsp 96 +
STACK CFI INIT 529c0 9ae .cfa: $rsp .ra: .cfa 8 - ^
STACK CFI 529c0 .cfa: $rsp 368 +
STACK CFI INIT 53370 3ec .cfa: $rsp .ra: .cfa 8 - ^
STACK CFI 53370 .cfa: $rsp 112 +
STACK CFI INIT 53760 8d5 .cfa: $rsp .ra: .cfa 8 - ^
STACK CFI 53760 .cfa: $rsp 176 +
STACK CFI INIT 54040 47 .cfa: $rsp .ra: .cfa 8 - ^
STACK CFI 54040 .cfa: $rsp 64 +
STACK CFI INIT 54090 7a .cfa: $rsp .ra: .cfa 8 - ^
STACK CFI 54090 .cfa: $rsp 80 +
STACK CFI INIT 54110 83 .cfa: $rsp .ra: .cfa 8 - ^
STACK CFI 54110 .cfa: $rsp 80 +
STACK CFI INIT 541a0 f4 .cfa: $rsp .ra: .cfa 8 - ^
STACK CFI 541a0 .cfa: $rsp 96 +
STACK CFI INIT 542a0 29 .cfa: $rsp .ra: .cfa 8 - ^
STACK CFI 542a0 .cfa: $rsp 48 +
STACK CFI INIT 542d0 14e .cfa: $rsp .ra: .cfa 8 - ^
STACK CFI 542d0 .cfa: $rsp 96 +
STACK CFI INIT 54420 f4 .cfa: $rsp .ra: .cfa 8 - ^
STACK CFI 54420 .cfa: $rsp 112 +
STACK CFI INIT 54520 f .cfa: $rsp .ra: .cfa 8 - ^
STACK CFI 54520 .cfa: $rsp 8 +
STACK CFI INIT 54530 499 .cfa: $rsp .ra: .cfa 8 - ^
STACK CFI 54530 .cfa: $rsp 144 +
STACK CFI INIT 549d0 bb .cfa: $rsp .ra: .cfa 8 - ^
STACK CFI 549d0 .cfa: $rsp 80 +
STACK CFI INIT 54a90 e7 .cfa: $rsp .ra: .cfa 8 - ^
STACK CFI 54a90 .cfa: $rsp 96 +
STACK CFI INIT 54b80 e6 .cfa: $rsp .ra: .cfa 8 - ^
STACK CFI 54b80 .cfa: $rsp 80 +
STACK CFI INIT 54c70 83 .cfa: $rsp .ra: .cfa 8 - ^
STACK CFI 54c70 .cfa: $rsp 80 +
STACK CFI INIT 54d00 f4 .cfa: $rsp .ra: .cfa 8 - ^
STACK CFI 54d00 .cfa: $rsp 96 +
STACK CFI INIT 54e00 1f .cfa: $rsp .ra: .cfa 8 - ^
STACK CFI 54e00 .cfa: $rsp 48 +
STACK CFI INIT 54e30 f .cfa: $rsp .ra: .cfa 8 - ^
STACK CFI 54e30 .cfa: $rsp 8 +
STACK CFI INIT 54e50 22 .cfa: $rsp .ra: .cfa 8 - ^
STACK CFI 54e50 .cfa: $rsp 48 +
STACK CFI INIT 54e80 12 .cfa: $rsp .ra: .cfa 8 - ^
STACK CFI 54e80 .cfa: $rsp 8 +
STACK CFI INIT 54ea0 19 .cfa: $rsp .ra: .cfa 8 - ^
STACK CFI 54ea0 .cfa: $rsp 8 +
STACK CFI INIT 54ec0 d .cfa: $rsp .ra: .cfa 8 - ^
STACK CFI 54ec0 .cfa: $rsp 8 +
STACK CFI INIT 54ee0 d .cfa: $rsp .ra: .cfa 8 - ^
STACK CFI 54ee0 .cfa: $rsp 8 +
STACK CFI INIT 54f00 d6 .cfa: $rsp .ra: .cfa 8 - ^
STACK CFI 54f00 .cfa: $rsp 80 +
STACK CFI INIT 54ff0 1e .cfa: $rsp .ra: .cfa 8 - ^
STACK CFI 54ff0 .cfa: $rsp 48 +
STACK CFI INIT 55020 d .cfa: $rsp .ra: .cfa 8 - ^
STACK CFI 55020 .cfa: $rsp 8 +
STACK CFI INIT 55040 21 .cfa: $rsp .ra: .cfa 8 - ^
STACK CFI 55040 .cfa: $rsp 48 +
STACK CFI INIT 55070 2e .cfa: $rsp .ra: .cfa 8 - ^
STACK CFI 55070 .cfa: $rsp 64 +
STACK CFI INIT 550a0 b .cfa: $rsp .ra: .cfa 8 - ^
STACK CFI 550a0 .cfa: $rsp 8 +
STACK CFI INIT 550b0 b .cfa: $rsp .ra: .cfa 8 - ^
STACK CFI 550b0 .cfa: $rsp 8 +
STACK CFI INIT 550c0 26 .cfa: $rsp .ra: .cfa 8 - ^
STACK CFI 550c0 .cfa: $rsp 8 +
STACK CFI INIT 550f0 26 .cfa: $rsp .ra: .cfa 8 - ^
STACK CFI 550f0 .cfa: $rsp 8 +
STACK CFI INIT 55120 12 .cfa: $rsp .ra: .cfa 8 - ^
STACK CFI 55120 .cfa: $rsp 8 +
STACK CFI INIT 55140 b .cfa: $rsp .ra: .cfa 8 - ^
STACK CFI 55140 .cfa: $rsp 8 +
STACK CFI INIT 55160 b .cfa: $rsp .ra: .cfa 8 - ^
STACK CFI 55160 .cfa: $rsp 8 +
STACK CFI INIT 55180 4a .cfa: $rsp .ra: .cfa 8 - ^
STACK CFI 55180 .cfa: $rsp 8 +
STACK CFI INIT 551d0 4a .cfa: $rsp .ra: .cfa 8 - ^
STACK CFI 551d0 .cfa: $rsp 8 +
STACK CFI INIT 55220 17 .cfa: $rsp .ra: .cfa 8 - ^
STACK CFI 55220 .cfa: $rsp 8 +
STACK CFI INIT 55240 27 .cfa: $rsp .ra: .cfa 8 - ^
STACK CFI 55240 .cfa: $rsp 8 +
STACK CFI INIT 55270 3b .cfa: $rsp .ra: .cfa 8 - ^
STACK CFI 55270 .cfa: $rsp 8 +
STACK CFI INIT 552b0 c .cfa: $rsp .ra: .cfa 8 - ^
STACK CFI 552b0 .cfa: $rsp 8 +
STACK CFI INIT 552c0 33 .cfa: $rsp .ra: .cfa 8 - ^
STACK CFI 552c0 .cfa: $rsp 8 +
STACK CFI INIT 55300 34 .cfa: $rsp .ra: .cfa 8 - ^
STACK CFI 55300 .cfa: $rsp 8 +
STACK CFI INIT 55340 c .cfa: $rsp .ra: .cfa 8 - ^
STACK CFI 55340 .cfa: $rsp 8 +
STACK CFI INIT 55350 f .cfa: $rsp .ra: .cfa 8 - ^
STACK CFI 55350 .cfa: $rsp 8 +
STACK CFI INIT 55360 f .cfa: $rsp .ra: .cfa 8 - ^
STACK CFI 55360 .cfa: $rsp 8 +
STACK CFI INIT 55370 f .cfa: $rsp .ra: .cfa 8 - ^
STACK CFI 55370 .cfa: $rsp 8 +
STACK CFI INIT 55380 c .cfa: $rsp .ra: .cfa 8 - ^
STACK CFI 55380 .cfa: $rsp 8 +
STACK CFI INIT 55390 c .cfa: $rsp .ra: .cfa 8 - ^
STACK CFI 55390 .cfa: $rsp 8 +
STACK CFI INIT 553a0 b .cfa: $rsp .ra: .cfa 8 - ^
STACK CFI 553a0 .cfa: $rsp 8 +
STACK CFI INIT 553b0 c .cfa: $rsp .ra: .cfa 8 - ^
STACK CFI 553b0 .cfa: $rsp 8 +
STACK CFI INIT 553c0 23 .cfa: $rsp .ra: .cfa 8 - ^
STACK CFI 553c0 .cfa: $rsp 8 +
STACK CFI INIT 553f0 253 .cfa: $rsp .ra: .cfa 8 - ^
STACK CFI 553f0 .cfa: $rsp 112 +
STACK CFI INIT 55650 59 .cfa: $rsp .ra: .cfa 8 - ^
STACK CFI 55650 .cfa: $rsp 80 +
STACK CFI INIT 556b0 1c .cfa: $rsp .ra: .cfa 8 - ^
STACK CFI 556b0 .cfa: $rsp 8 +
STACK CFI INIT 556d0 12c .cfa: $rsp .ra: .cfa 8 - ^
STACK CFI 556d0 .cfa: $rsp 96 +
STACK CFI INIT 55800 9f .cfa: $rsp .ra: .cfa 8 - ^
STACK CFI 55800 .cfa: $rsp 64 +
STACK CFI INIT 558b0 1f .cfa: $rsp .ra: .cfa 8 - ^
STACK CFI 558b0 .cfa: $rsp 48 +
STACK CFI INIT 558e0 173 .cfa: $rsp .ra: .cfa 8 - ^
STACK CFI 558e0 .cfa: $rsp 112 +
STACK CFI INIT 55a60 1c2 .cfa: $rsp .ra: .cfa 8 - ^
STACK CFI 55a60 .cfa: $rsp 128 +
STACK CFI INIT 55c30 8 .cfa: $rsp .ra: .cfa 8 - ^
STACK CFI 55c30 .cfa: $rsp 8 +
STACK CFI INIT 55c40 13 .cfa: $rsp .ra: .cfa 8 - ^
STACK CFI 55c40 .cfa: $rsp 8 +
STACK CFI INIT 55c60 52 .cfa: $rsp .ra: .cfa 8 - ^
STACK CFI 55c60 .cfa: $rsp 48 +
STACK CFI INIT 55cc0 44 .cfa: $rsp .ra: .cfa 8 - ^
STACK CFI 55cc0 .cfa: $rsp 8 +
STACK CFI INIT 55d10 252 .cfa: $rsp .ra: .cfa 8 - ^
STACK CFI 55d10 .cfa: $rsp 160 +
STACK CFI INIT 55f70 2a .cfa: $rsp .ra: .cfa 8 - ^
STACK CFI 55f70 .cfa: $rsp 8 +
STACK CFI INIT 55fa0 6 .cfa: $rsp .ra: .cfa 8 - ^
STACK CFI 55fa0 .cfa: $rsp 8 +
STACK CFI INIT 55fb0 1b .cfa: $rsp .ra: .cfa 8 - ^
STACK CFI 55fb0 .cfa: $rsp 8 +
STACK CFI INIT 55fd0 6c .cfa: $rsp .ra: .cfa 8 - ^
STACK CFI 55fd0 .cfa: $rsp 48 +
STACK CFI INIT 56040 76 .cfa: $rsp .ra: .cfa 8 - ^
STACK CFI 56040 .cfa: $rsp 48 +
STACK CFI INIT 560c0 41 .cfa: $rsp .ra: .cfa 8 - ^
STACK CFI 560c0 .cfa: $rsp 8 +
STACK CFI INIT 56110 41 .cfa: $rsp .ra: .cfa 8 - ^
STACK CFI 56110 .cfa: $rsp 8 +
STACK CFI INIT 56160 41 .cfa: $rsp .ra: .cfa 8 - ^
STACK CFI 56160 .cfa: $rsp 8 +
STACK CFI INIT 561b0 b5 .cfa: $rsp .ra: .cfa 8 - ^
STACK CFI 561b0 .cfa: $rsp 64 +
STACK CFI INIT 56270 78 .cfa: $rsp .ra: .cfa 8 - ^
STACK CFI 56270 .cfa: $rsp 48 +
STACK CFI INIT 562f0 1e7 .cfa: $rsp .ra: .cfa 8 - ^
STACK CFI 562f0 .cfa: $rsp 160 +
STACK CFI INIT 564e0 233 .cfa: $rsp .ra: .cfa 8 - ^
STACK CFI 564e0 .cfa: $rsp 160 +
STACK CFI INIT 56720 3d .cfa: $rsp .ra: .cfa 8 - ^
STACK CFI 56720 .cfa: $rsp 48 +
STACK CFI INIT 56760 209 .cfa: $rsp .ra: .cfa 8 - ^
STACK CFI 56760 .cfa: $rsp 112 +
STACK CFI INIT 56970 276 .cfa: $rsp .ra: .cfa 8 - ^
STACK CFI 56970 .cfa: $rsp 112 +
STACK CFI INIT 56bf0 266 .cfa: $rsp .ra: .cfa 8 - ^
STACK CFI 56bf0 .cfa: $rsp 112 +
STACK CFI INIT 56e60 2ab .cfa: $rsp .ra: .cfa 8 - ^
STACK CFI 56e60 .cfa: $rsp 96 +
STACK CFI INIT 57110 195 .cfa: $rsp .ra: .cfa 8 - ^
STACK CFI 57110 .cfa: $rsp 112 +
STACK CFI INIT 572b0 207 .cfa: $rsp .ra: .cfa 8 - ^
STACK CFI 572b0 .cfa: $rsp 144 +
STACK CFI INIT 574c0 1b4 .cfa: $rsp .ra: .cfa 8 - ^
STACK CFI 574c0 .cfa: $rsp 112 +
STACK CFI INIT 57680 529 .cfa: $rsp .ra: .cfa 8 - ^
STACK CFI 57680 .cfa: $rsp 160 +
STACK CFI INIT 57bb0 16c .cfa: $rsp .ra: .cfa 8 - ^
STACK CFI 57bb0 .cfa: $rsp 80 +
STACK CFI INIT 57d20 413 .cfa: $rsp .ra: .cfa 8 - ^
STACK CFI 57d20 .cfa: $rsp 160 +
STACK CFI INIT 58140 9 .cfa: $rsp .ra: .cfa 8 - ^
STACK CFI 58140 .cfa: $rsp 8 +
STACK CFI INIT 58150 82a .cfa: $rsp .ra: .cfa 8 - ^
STACK CFI 58150 .cfa: $rsp 240 +
STACK CFI INIT 58980 23c .cfa: $rsp .ra: .cfa 8 - ^
STACK CFI 58980 .cfa: $rsp 64 +
STACK CFI INIT 58bc0 1f .cfa: $rsp .ra: .cfa 8 - ^
STACK CFI 58bc0 .cfa: $rsp 48 +
STACK CFI INIT 58be0 6 .cfa: $rsp .ra: .cfa 8 - ^
STACK CFI 58be0 .cfa: $rsp 8 +
STACK CFI INIT 58bf0 1f .cfa: $rsp .ra: .cfa 8 - ^
STACK CFI 58bf0 .cfa: $rsp 48 +
STACK CFI INIT 58c10 9 .cfa: $rsp .ra: .cfa 8 - ^
STACK CFI 58c10 .cfa: $rsp 8 +
STACK CFI INIT 58c20 1a .cfa: $rsp .ra: .cfa 8 - ^
STACK CFI 58c20 .cfa: $rsp 48 +
STACK CFI INIT 58c40 c6 .cfa: $rsp .ra: .cfa 8 - ^
STACK CFI 58c40 .cfa: $rsp 80 +
STACK CFI INIT 58d10 4f .cfa: $rsp .ra: .cfa 8 - ^
STACK CFI 58d10 .cfa: $rsp 64 +
STACK CFI INIT 58d60 86 .cfa: $rsp .ra: .cfa 8 - ^
STACK CFI 58d60 .cfa: $rsp 64 +
STACK CFI INIT 58df0 91 .cfa: $rsp .ra: .cfa 8 - ^
STACK CFI 58df0 .cfa: $rsp 64 +
STACK CFI INIT 58e90 15f .cfa: $rsp .ra: .cfa 8 - ^
STACK CFI 58e90 .cfa: $rsp 48 +
STACK CFI INIT 58ff0 116 .cfa: $rsp .ra: .cfa 8 - ^
STACK CFI 58ff0 .cfa: $rsp 96 +
STACK CFI INIT 59110 7b .cfa: $rsp .ra: .cfa 8 - ^
STACK CFI 59110 .cfa: $rsp 80 +
STACK CFI INIT 59190 1c .cfa: $rsp .ra: .cfa 8 - ^
STACK CFI 59190 .cfa: $rsp 8 +
STACK CFI INIT 591b0 9 .cfa: $rsp .ra: .cfa 8 - ^
STACK CFI 591b0 .cfa: $rsp 8 +
STACK CFI INIT 591c0 9 .cfa: $rsp .ra: .cfa 8 - ^
STACK CFI 591c0 .cfa: $rsp 8 +
STACK CFI INIT 591d0 d .cfa: $rsp .ra: .cfa 8 - ^
STACK CFI 591d0 .cfa: $rsp 8 +
STACK CFI INIT 591e0 8 .cfa: $rsp .ra: .cfa 8 - ^
STACK CFI 591e0 .cfa: $rsp 8 +
STACK CFI INIT 591f0 8 .cfa: $rsp .ra: .cfa 8 - ^
STACK CFI 591f0 .cfa: $rsp 8 +
STACK CFI INIT 59200 d .cfa: $rsp .ra: .cfa 8 - ^
STACK CFI 59200 .cfa: $rsp 8 +
STACK CFI INIT 59210 8 .cfa: $rsp .ra: .cfa 8 - ^
STACK CFI 59210 .cfa: $rsp 8 +
STACK CFI INIT 59220 26 .cfa: $rsp .ra: .cfa 8 - ^
STACK CFI 59220 .cfa: $rsp 8 +
STACK CFI INIT 59250 8 .cfa: $rsp .ra: .cfa 8 - ^
STACK CFI 59250 .cfa: $rsp 8 +
STACK CFI INIT 59260 9 .cfa: $rsp .ra: .cfa 8 - ^
STACK CFI 59260 .cfa: $rsp 8 +
STACK CFI INIT 59270 9 .cfa: $rsp .ra: .cfa 8 - ^
STACK CFI 59270 .cfa: $rsp 8 +
STACK CFI INIT 59280 9 .cfa: $rsp .ra: .cfa 8 - ^
STACK CFI 59280 .cfa: $rsp 8 +
STACK CFI INIT 59290 9 .cfa: $rsp .ra: .cfa 8 - ^
STACK CFI 59290 .cfa: $rsp 8 +
STACK CFI INIT 592a0 9 .cfa: $rsp .ra: .cfa 8 - ^
STACK CFI 592a0 .cfa: $rsp 8 +
STACK CFI INIT 592b0 57 .cfa: $rsp .ra: .cfa 8 - ^
STACK CFI 592b0 .cfa: $rsp 48 +
STACK CFI INIT 59310 53 .cfa: $rsp .ra: .cfa 8 - ^
STACK CFI 59310 .cfa: $rsp 64 +
STACK CFI INIT 59370 65 .cfa: $rsp .ra: .cfa 8 - ^
STACK CFI 59370 .cfa: $rsp 48 +
STACK CFI INIT 593e0 47 .cfa: $rsp .ra: .cfa 8 - ^
STACK CFI 593e0 .cfa: $rsp 48 +
STACK CFI INIT 59430 625 .cfa: $rsp .ra: .cfa 8 - ^
STACK CFI 59430 .cfa: $rsp 192 +
STACK CFI INIT 59a60 4d .cfa: $rsp .ra: .cfa 8 - ^
STACK CFI 59a60 .cfa: $rsp 64 +
STACK CFI INIT 59ab0 3c .cfa: $rsp .ra: .cfa 8 - ^
STACK CFI 59ab0 .cfa: $rsp 64 +
STACK CFI INIT 59af0 3c .cfa: $rsp .ra: .cfa 8 - ^
STACK CFI 59af0 .cfa: $rsp 64 +
STACK CFI INIT 59b30 48 .cfa: $rsp .ra: .cfa 8 - ^
STACK CFI 59b30 .cfa: $rsp 64 +
STACK CFI INIT 59b80 48 .cfa: $rsp .ra: .cfa 8 - ^
STACK CFI 59b80 .cfa: $rsp 64 +
STACK CFI INIT 59bd0 3c .cfa: $rsp .ra: .cfa 8 - ^
STACK CFI 59bd0 .cfa: $rsp 64 +
STACK CFI INIT 59c10 48 .cfa: $rsp .ra: .cfa 8 - ^
STACK CFI 59c10 .cfa: $rsp 64 +
STACK CFI INIT 59c60 48 .cfa: $rsp .ra: .cfa 8 - ^
STACK CFI 59c60 .cfa: $rsp 64 +
STACK CFI INIT 59cb0 48 .cfa: $rsp .ra: .cfa 8 - ^
STACK CFI 59cb0 .cfa: $rsp 64 +
STACK CFI INIT 59d00 48 .cfa: $rsp .ra: .cfa 8 - ^
STACK CFI 59d00 .cfa: $rsp 64 +
STACK CFI INIT 59d50 48 .cfa: $rsp .ra: .cfa 8 - ^
STACK CFI 59d50 .cfa: $rsp 64 +
STACK CFI INIT 59da0 3c .cfa: $rsp .ra: .cfa 8 - ^
STACK CFI 59da0 .cfa: $rsp 64 +
STACK CFI INIT 59de0 43 .cfa: $rsp .ra: .cfa 8 - ^
STACK CFI 59de0 .cfa: $rsp 64 +
STACK CFI INIT 59e30 57 .cfa: $rsp .ra: .cfa 8 - ^
STACK CFI 59e30 .cfa: $rsp 64 +
STACK CFI INIT 59e90 57 .cfa: $rsp .ra: .cfa 8 - ^
STACK CFI 59e90 .cfa: $rsp 64 +
STACK CFI INIT 59ef0 be .cfa: $rsp .ra: .cfa 8 - ^
STACK CFI 59ef0 .cfa: $rsp 80 +
STACK CFI INIT 59fb0 587 .cfa: $rsp .ra: .cfa 8 - ^
STACK CFI 59fb0 .cfa: $rsp 144 +
STACK CFI INIT 5a540 1d .cfa: $rsp .ra: .cfa 8 - ^
STACK CFI 5a540 .cfa: $rsp 48 +
STACK CFI INIT 5a560 e86 .cfa: $rsp .ra: .cfa 8 - ^
STACK CFI 5a560 .cfa: $rsp 496 +
STACK CFI INIT 5b3f0 11 .cfa: $rsp .ra: .cfa 8 - ^
STACK CFI 5b3f0 .cfa: $rsp 8 +
STACK CFI INIT 5b410 e .cfa: $rsp .ra: .cfa 8 - ^
STACK CFI 5b410 .cfa: $rsp 8 +
STACK CFI INIT 5b420 83 .cfa: $rsp .ra: .cfa 8 - ^
STACK CFI 5b420 .cfa: $rsp 80 +
STACK CFI INIT 5b4b0 1e1 .cfa: $rsp .ra: .cfa 8 - ^
STACK CFI 5b4b0 .cfa: $rsp 96 +
STACK CFI INIT 5b6a0 5f0 .cfa: $rsp .ra: .cfa 8 - ^
STACK CFI 5b6a0 .cfa: $rsp 192 +
STACK CFI INIT 5bc90 174 .cfa: $rsp .ra: .cfa 8 - ^
STACK CFI 5bc90 .cfa: $rsp 80 +
STACK CFI INIT 5be10 212 .cfa: $rsp .ra: .cfa 8 - ^
STACK CFI 5be10 .cfa: $rsp 304 +
STACK CFI INIT 5c030 3f .cfa: $rsp .ra: .cfa 8 - ^
STACK CFI 5c030 .cfa: $rsp 64 +
STACK CFI INIT 5c070 1c9 .cfa: $rsp .ra: .cfa 8 - ^
STACK CFI 5c070 .cfa: $rsp 304 +
STACK CFI INIT 5c240 1f3 .cfa: $rsp .ra: .cfa 8 - ^
STACK CFI 5c240 .cfa: $rsp 96 +
STACK CFI INIT 5c440 3e8 .cfa: $rsp .ra: .cfa 8 - ^
STACK CFI 5c440 .cfa: $rsp 432 +
STACK CFI INIT 5c830 40e .cfa: $rsp .ra: .cfa 8 - ^
STACK CFI 5c830 .cfa: $rsp 432 +
STACK CFI INIT 5cc40 21 .cfa: $rsp .ra: .cfa 8 - ^
STACK CFI 5cc40 .cfa: $rsp 8 +
STACK CFI INIT 5cc70 3c .cfa: $rsp .ra: .cfa 8 - ^
STACK CFI 5cc70 .cfa: $rsp 80 +
STACK CFI INIT 5ccb0 45 .cfa: $rsp .ra: .cfa 8 - ^
STACK CFI 5ccb0 .cfa: $rsp 80 +
STACK CFI INIT 5cd00 115 .cfa: $rsp .ra: .cfa 8 - ^
STACK CFI 5cd00 .cfa: $rsp 80 +
STACK CFI INIT 5ce20 11 .cfa: $rsp .ra: .cfa 8 - ^
STACK CFI 5ce20 .cfa: $rsp 8 +
STACK CFI INIT 5ce40 140 .cfa: $rsp .ra: .cfa 8 - ^
STACK CFI 5ce40 .cfa: $rsp 96 +
STACK CFI INIT 5cf80 109 .cfa: $rsp .ra: .cfa 8 - ^
STACK CFI 5cf80 .cfa: $rsp 80 +
STACK CFI INIT 5d090 2fd .cfa: $rsp .ra: .cfa 8 - ^
STACK CFI 5d090 .cfa: $rsp 160 +
STACK CFI INIT 5d390 304 .cfa: $rsp .ra: .cfa 8 - ^
STACK CFI 5d390 .cfa: $rsp 64 +
STACK CFI INIT 5d6a0 1f .cfa: $rsp .ra: .cfa 8 - ^
STACK CFI 5d6a0 .cfa: $rsp 48 +
STACK CFI INIT 5d6c0 24d .cfa: $rsp .ra: .cfa 8 - ^
STACK CFI 5d6c0 .cfa: $rsp 336 +
STACK CFI INIT 5d910 bd4 .cfa: $rsp .ra: .cfa 8 - ^
STACK CFI 5d910 .cfa: $rsp 256 +
STACK CFI INIT 5e4f0 716 .cfa: $rsp .ra: .cfa 8 - ^
STACK CFI 5e4f0 .cfa: $rsp 480 +
STACK CFI INIT 5ec10 606 .cfa: $rsp .ra: .cfa 8 - ^
STACK CFI 5ec10 .cfa: $rsp 480 +
STACK CFI INIT 5f220 170 .cfa: $rsp .ra: .cfa 8 - ^
STACK CFI 5f220 .cfa: $rsp 128 +
STACK CFI INIT 5f390 2d .cfa: $rsp .ra: .cfa 8 - ^
STACK CFI 5f390 .cfa: $rsp 48 +
STACK CFI INIT 5f3c0 3f .cfa: $rsp .ra: .cfa 8 - ^
STACK CFI 5f3c0 .cfa: $rsp 8 +
STACK CFI INIT 5f400 83 .cfa: $rsp .ra: .cfa 8 - ^
STACK CFI 5f400 .cfa: $rsp 80 +
STACK CFI INIT 5f490 1b6 .cfa: $rsp .ra: .cfa 8 - ^
STACK CFI 5f490 .cfa: $rsp 128 +
STACK CFI INIT 5f650 28 .cfa: $rsp .ra: .cfa 8 - ^
STACK CFI 5f650 .cfa: $rsp 48 +
STACK CFI INIT 5f680 35 .cfa: $rsp .ra: .cfa 8 - ^
STACK CFI 5f680 .cfa: $rsp 48 +
STACK CFI INIT 5f6c0 6 .cfa: $rsp .ra: .cfa 8 - ^
STACK CFI 5f6c0 .cfa: $rsp 8 +
STACK CFI INIT 5f6d0 c8 .cfa: $rsp .ra: .cfa 8 - ^
STACK CFI 5f6d0 .cfa: $rsp 80 +
STACK CFI INIT 5f7a0 6d .cfa: $rsp .ra: .cfa 8 - ^
STACK CFI 5f7a0 .cfa: $rsp 80 +
STACK CFI INIT 5f810 1 .cfa: $rsp .ra: .cfa 8 - ^
STACK CFI 5f810 .cfa: $rsp 8 +
STACK CFI INIT 5f820 16 .cfa: $rsp .ra: .cfa 8 - ^
STACK CFI 5f820 .cfa: $rsp 8 +
STACK CFI INIT 5f840 24a .cfa: $rsp .ra: .cfa 8 - ^
STACK CFI 5f840 .cfa: $rsp 112 +
STACK CFI INIT 5fa90 15 .cfa: $rsp .ra: .cfa 8 - ^
STACK CFI 5fa90 .cfa: $rsp 8 +
STACK CFI INIT 5fab0 1c .cfa: $rsp .ra: .cfa 8 - ^
STACK CFI 5fab0 .cfa: $rsp 8 +
STACK CFI INIT 5fad0 30 .cfa: $rsp .ra: .cfa 8 - ^
STACK CFI 5fad0 .cfa: $rsp 48 +
STACK CFI INIT 5fb00 35 .cfa: $rsp .ra: .cfa 8 - ^
STACK CFI 5fb00 .cfa: $rsp 64 +
STACK CFI INIT 5fb40 2c6 .cfa: $rsp .ra: .cfa 8 - ^
STACK CFI 5fb40 .cfa: $rsp 128 +
STACK CFI INIT 5fe10 5b .cfa: $rsp .ra: .cfa 8 - ^
STACK CFI 5fe10 .cfa: $rsp 96 +
STACK CFI INIT 5fe70 71 .cfa: $rsp .ra: .cfa 8 - ^
STACK CFI 5fe70 .cfa: $rsp 128 +
STACK CFI INIT 5fef0 9 .cfa: $rsp .ra: .cfa 8 - ^
STACK CFI 5fef0 .cfa: $rsp 8 +
STACK CFI INIT 5ff00 c .cfa: $rsp .ra: .cfa 8 - ^
STACK CFI 5ff00 .cfa: $rsp 8 +
STACK CFI INIT 5ff10 9 .cfa: $rsp .ra: .cfa 8 - ^
STACK CFI 5ff10 .cfa: $rsp 8 +
STACK CFI INIT 5ff20 9d .cfa: $rsp .ra: .cfa 8 - ^
STACK CFI 5ff20 .cfa: $rsp 80 +
STACK CFI INIT 5ffc0 184 .cfa: $rsp .ra: .cfa 8 - ^
STACK CFI 5ffc0 .cfa: $rsp 112 +
STACK CFI INIT 60150 21 .cfa: $rsp .ra: .cfa 8 - ^
STACK CFI 60150 .cfa: $rsp 8 +
STACK CFI INIT 60180 257 .cfa: $rsp .ra: .cfa 8 - ^
STACK CFI 60180 .cfa: $rsp 128 +
STACK CFI INIT 603e0 8 .cfa: $rsp .ra: .cfa 8 - ^
STACK CFI 603e0 .cfa: $rsp 8 +
STACK CFI INIT 603f0 583 .cfa: $rsp .ra: .cfa 8 - ^
STACK CFI 603f0 .cfa: $rsp 480 +
STACK CFI INIT 60980 20b .cfa: $rsp .ra: .cfa 8 - ^
STACK CFI 60980 .cfa: $rsp 320 +
STACK CFI INIT 60b90 c .cfa: $rsp .ra: .cfa 8 - ^
STACK CFI 60b90 .cfa: $rsp 8 +
STACK CFI INIT 60ba0 1bf .cfa: $rsp .ra: .cfa 8 - ^
STACK CFI 60ba0 .cfa: $rsp 128 +
STACK CFI INIT 60d60 8b .cfa: $rsp .ra: .cfa 8 - ^
STACK CFI 60d60 .cfa: $rsp 80 +
STACK CFI INIT 60df0 20d .cfa: $rsp .ra: .cfa 8 - ^
STACK CFI 60df0 .cfa: $rsp 128 +
STACK CFI INIT 61000 81 .cfa: $rsp .ra: .cfa 8 - ^
STACK CFI 61000 .cfa: $rsp 96 +
STACK CFI INIT 61090 5 .cfa: $rsp .ra: .cfa 8 - ^
STACK CFI 61090 .cfa: $rsp 8 +
STACK CFI INIT 610a0 e2 .cfa: $rsp .ra: .cfa 8 - ^
STACK CFI 610a0 .cfa: $rsp 80 +
STACK CFI INIT 61190 5 .cfa: $rsp .ra: .cfa 8 - ^
STACK CFI 61190 .cfa: $rsp 8 +
STACK CFI INIT 611a0 7a .cfa: $rsp .ra: .cfa 8 - ^
STACK CFI 611a0 .cfa: $rsp 112 +
STACK CFI INIT 61220 1b .cfa: $rsp .ra: .cfa 8 - ^
STACK CFI 61220 .cfa: $rsp 8 +
STACK CFI INIT 61240 285 .cfa: $rsp .ra: .cfa 8 - ^
STACK CFI 61240 .cfa: $rsp 144 +
STACK CFI INIT 614d0 10 .cfa: $rsp .ra: .cfa 8 - ^
STACK CFI 614d0 .cfa: $rsp 8 +
STACK CFI INIT 614e0 6d .cfa: $rsp .ra: .cfa 8 - ^
STACK CFI 614e0 .cfa: $rsp 48 +
STACK CFI INIT 61550 33e .cfa: $rsp .ra: .cfa 8 - ^
STACK CFI 61550 .cfa: $rsp 336 +
STACK CFI INIT 61890 2b7 .cfa: $rsp .ra: .cfa 8 - ^
STACK CFI 61890 .cfa: $rsp 336 +
STACK CFI INIT 61b50 254 .cfa: $rsp .ra: .cfa 8 - ^
STACK CFI 61b50 .cfa: $rsp 336 +
STACK CFI INIT 61db0 6c0 .cfa: $rsp .ra: .cfa 8 - ^
STACK CFI 61db0 .cfa: $rsp 176 +
STACK CFI INIT 62470 ab .cfa: $rsp .ra: .cfa 8 - ^
STACK CFI 62470 .cfa: $rsp 96 +
STACK CFI INIT 62520 6e .cfa: $rsp .ra: .cfa 8 - ^
STACK CFI 62520 .cfa: $rsp 80 +
STACK CFI INIT 62590 9b9 .cfa: $rsp .ra: .cfa 8 - ^
STACK CFI 62590 .cfa: $rsp 512 +
STACK CFI INIT 62f50 eed .cfa: $rsp .ra: .cfa 8 - ^
STACK CFI 62f50 .cfa: $rsp 272 +
STACK CFI INIT 63e40 3cf .cfa: $rsp .ra: .cfa 8 - ^
STACK CFI 63e40 .cfa: $rsp 208 +
STACK CFI INIT 64210 11b .cfa: $rsp .ra: .cfa 8 - ^
STACK CFI 64210 .cfa: $rsp 80 +
STACK CFI INIT 64330 441 .cfa: $rsp .ra: .cfa 8 - ^
STACK CFI 64330 .cfa: $rsp 384 +
STACK CFI INIT 64780 3e2 .cfa: $rsp .ra: .cfa 8 - ^
STACK CFI 64780 .cfa: $rsp 192 +
STACK CFI INIT 64b70 15 .cfa: $rsp .ra: .cfa 8 - ^
STACK CFI 64b70 .cfa: $rsp 8 +
STACK CFI INIT 64b90 94 .cfa: $rsp .ra: .cfa 8 - ^
STACK CFI 64b90 .cfa: $rsp 96 +
STACK CFI INIT 64c30 14c .cfa: $rsp .ra: .cfa 8 - ^
STACK CFI 64c30 .cfa: $rsp 96 +
STACK CFI INIT 64d80 105 .cfa: $rsp .ra: .cfa 8 - ^
STACK CFI 64d80 .cfa: $rsp 144 +
STACK CFI INIT 64e90 5 .cfa: $rsp .ra: .cfa 8 - ^
STACK CFI 64e90 .cfa: $rsp 8 +
STACK CFI INIT 64ea0 5a4 .cfa: $rsp .ra: .cfa 8 - ^
STACK CFI 64ea0 .cfa: $rsp 192 +
STACK CFI INIT 65450 3c8 .cfa: $rsp .ra: .cfa 8 - ^
STACK CFI 65450 .cfa: $rsp 192 +
STACK CFI INIT 65820 2bc .cfa: $rsp .ra: .cfa 8 - ^
STACK CFI 65820 .cfa: $rsp 128 +
STACK CFI INIT 65ae0 157 .cfa: $rsp .ra: .cfa 8 - ^
STACK CFI 65ae0 .cfa: $rsp 144 +
STACK CFI INIT 65c40 aff .cfa: $rsp .ra: .cfa 8 - ^
STACK CFI 65c40 .cfa: $rsp 304 +
STACK CFI INIT 66740 90 .cfa: $rsp .ra: .cfa 8 - ^
STACK CFI 66740 .cfa: $rsp 96 +
STACK CFI INIT 667d0 d3 .cfa: $rsp .ra: .cfa 8 - ^
STACK CFI 667d0 .cfa: $rsp 96 +
STACK CFI INIT 668b0 72 .cfa: $rsp .ra: .cfa 8 - ^
STACK CFI 668b0 .cfa: $rsp 64 +
STACK CFI INIT 66930 7 .cfa: $rsp .ra: .cfa 8 - ^
STACK CFI 66930 .cfa: $rsp 8 +
STACK CFI INIT 66940 22 .cfa: $rsp .ra: .cfa 8 - ^
STACK CFI 66940 .cfa: $rsp 64 +
STACK CFI INIT 66970 67 .cfa: $rsp .ra: .cfa 8 - ^
STACK CFI 66970 .cfa: $rsp 48 +
STACK CFI INIT 669e0 31b .cfa: $rsp .ra: .cfa 8 - ^
STACK CFI 669e0 .cfa: $rsp 64 +
STACK CFI INIT 66d00 1f .cfa: $rsp .ra: .cfa 8 - ^
STACK CFI 66d00 .cfa: $rsp 48 +
STACK CFI INIT 66d20 4c .cfa: $rsp .ra: .cfa 8 - ^
STACK CFI 66d20 .cfa: $rsp 80 +
STACK CFI INIT 66d70 aee .cfa: $rsp .ra: .cfa 8 - ^
STACK CFI 66d70 .cfa: $rsp 272 +
STACK CFI INIT 67860 1e2c .cfa: $rsp .ra: .cfa 8 - ^
STACK CFI 67860 .cfa: $rsp 608 +
STACK CFI INIT 69690 123 .cfa: $rsp .ra: .cfa 8 - ^
STACK CFI 69690 .cfa: $rsp 128 +
STACK CFI INIT 697c0 6f8 .cfa: $rsp .ra: .cfa 8 - ^
STACK CFI 697c0 .cfa: $rsp 512 +
STACK CFI INIT 69ec0 67d .cfa: $rsp .ra: .cfa 8 - ^
STACK CFI 69ec0 .cfa: $rsp 416 +
STACK CFI INIT 6a540 77 .cfa: $rsp .ra: .cfa 8 - ^
STACK CFI 6a540 .cfa: $rsp 80 +
STACK CFI INIT 6a5c0 83 .cfa: $rsp .ra: .cfa 8 - ^
STACK CFI 6a5c0 .cfa: $rsp 80 +
STACK CFI INIT 6a650 f6 .cfa: $rsp .ra: .cfa 8 - ^
STACK CFI 6a650 .cfa: $rsp 80 +
STACK CFI INIT 6a750 160 .cfa: $rsp .ra: .cfa 8 - ^
STACK CFI 6a750 .cfa: $rsp 112 +
STACK CFI INIT 6a8b0 ea .cfa: $rsp .ra: .cfa 8 - ^
STACK CFI 6a8b0 .cfa: $rsp 64 +
STACK CFI INIT 6a9a0 7 .cfa: $rsp .ra: .cfa 8 - ^
STACK CFI 6a9a0 .cfa: $rsp 8 +
STACK CFI INIT 6a9c0 156 .cfa: $rsp .ra: .cfa 8 - ^
STACK CFI 6a9c0 .cfa: $rsp 1152 +
STACK CFI INIT 6ab20 1f .cfa: $rsp .ra: .cfa 8 - ^
STACK CFI 6ab20 .cfa: $rsp 48 +
STACK CFI INIT 6ab40 ed .cfa: $rsp .ra: .cfa 8 - ^
STACK CFI 6ab40 .cfa: $rsp 128 +
STACK CFI INIT 6ac30 32 .cfa: $rsp .ra: .cfa 8 - ^
STACK CFI 6ac30 .cfa: $rsp 80 +
STACK CFI INIT 6ac70 2a .cfa: $rsp .ra: .cfa 8 - ^
STACK CFI 6ac70 .cfa: $rsp 80 +
STACK CFI INIT 6aca0 32 .cfa: $rsp .ra: .cfa 8 - ^
STACK CFI 6aca0 .cfa: $rsp 80 +
STACK CFI INIT 6ace0 1e0 .cfa: $rsp .ra: .cfa 8 - ^
STACK CFI 6ace0 .cfa: $rsp 144 +
STACK CFI INIT 6aec0 3c .cfa: $rsp .ra: .cfa 8 - ^
STACK CFI 6aec0 .cfa: $rsp 80 +
STACK CFI INIT 6af00 e6 .cfa: $rsp .ra: .cfa 8 - ^
STACK CFI 6af00 .cfa: $rsp 128 +
STACK CFI INIT 6aff0 44 .cfa: $rsp .ra: .cfa 8 - ^
STACK CFI 6aff0 .cfa: $rsp 80 +
STACK CFI INIT 6b040 a .cfa: $rsp .ra: .cfa 8 - ^
STACK CFI 6b040 .cfa: $rsp 8 +
STACK CFI INIT 6b050 a3 .cfa: $rsp .ra: .cfa 8 - ^
STACK CFI 6b050 .cfa: $rsp 64 +
STACK CFI INIT 6b110 1f .cfa: $rsp .ra: .cfa 8 - ^
STACK CFI 6b110 .cfa: $rsp 48 +
STACK CFI INIT 6b140 289 .cfa: $rsp .ra: .cfa 8 - ^
STACK CFI 6b140 .cfa: $rsp 144 +
STACK CFI INIT 6b3d0 ac7 .cfa: $rsp .ra: .cfa 8 - ^
STACK CFI 6b3d0 .cfa: $rsp 208 +
STACK CFI INIT 6bea0 83 .cfa: $rsp .ra: .cfa 8 - ^
STACK CFI 6bea0 .cfa: $rsp 96 +
STACK CFI INIT 6bf30 54 .cfa: $rsp .ra: .cfa 8 - ^
STACK CFI 6bf30 .cfa: $rsp 64 +
STACK CFI INIT 6bf90 191 .cfa: $rsp .ra: .cfa 8 - ^
STACK CFI 6bf90 .cfa: $rsp 176 +
STACK CFI INIT 6c130 ae .cfa: $rsp .ra: .cfa 8 - ^
STACK CFI 6c130 .cfa: $rsp 112 +
STACK CFI INIT 6c1e0 8c4 .cfa: $rsp .ra: .cfa 8 - ^
STACK CFI 6c1e0 .cfa: $rsp 272 +
STACK CFI INIT 6cab0 b .cfa: $rsp .ra: .cfa 8 - ^
STACK CFI 6cab0 .cfa: $rsp 8 +
STACK CFI INIT 6cac0 b .cfa: $rsp .ra: .cfa 8 - ^
STACK CFI 6cac0 .cfa: $rsp 8 +
STACK CFI INIT 6cad0 8bb .cfa: $rsp .ra: .cfa 8 - ^
STACK CFI 6cad0 .cfa: $rsp 496 +
STACK CFI INIT 6d390 121 .cfa: $rsp .ra: .cfa 8 - ^
STACK CFI 6d390 .cfa: $rsp 128 +
STACK CFI INIT 6d4c0 316 .cfa: $rsp .ra: .cfa 8 - ^
STACK CFI 6d4c0 .cfa: $rsp 160 +
STACK CFI INIT 6d7e0 365 .cfa: $rsp .ra: .cfa 8 - ^
STACK CFI 6d7e0 .cfa: $rsp 224 +
STACK CFI INIT 6db50 3b4 .cfa: $rsp .ra: .cfa 8 - ^
STACK CFI 6db50 .cfa: $rsp 224 +
STACK CFI INIT 6df10 3d1 .cfa: $rsp .ra: .cfa 8 - ^
STACK CFI 6df10 .cfa: $rsp 256 +
STACK CFI INIT 6e300 61 .cfa: $rsp .ra: .cfa 8 - ^
STACK CFI 6e300 .cfa: $rsp 80 +
STACK CFI INIT 6e370 ab .cfa: $rsp .ra: .cfa 8 - ^
STACK CFI 6e370 .cfa: $rsp 112 +
STACK CFI INIT 6e420 399 .cfa: $rsp .ra: .cfa 8 - ^
STACK CFI 6e420 .cfa: $rsp 144 +
STACK CFI INIT 6e7c0 29e .cfa: $rsp .ra: .cfa 8 - ^
STACK CFI 6e7c0 .cfa: $rsp 336 +
STACK CFI INIT 6ea70 30 .cfa: $rsp .ra: .cfa 8 - ^
STACK CFI 6ea70 .cfa: $rsp 48 +
STACK CFI INIT 6eaa0 1f .cfa: $rsp .ra: .cfa 8 - ^
STACK CFI 6eaa0 .cfa: $rsp 48 +
STACK CFI INIT 6eac0 1a .cfa: $rsp .ra: .cfa 8 - ^
STACK CFI 6eac0 .cfa: $rsp 8 +
STACK CFI INIT 6eae0 36 .cfa: $rsp .ra: .cfa 8 - ^
STACK CFI 6eae0 .cfa: $rsp 64 +
STACK CFI INIT 6eb20 17 .cfa: $rsp .ra: .cfa 8 - ^
STACK CFI 6eb20 .cfa: $rsp 8 +
STACK CFI INIT 6eb40 17 .cfa: $rsp .ra: .cfa 8 - ^
STACK CFI 6eb40 .cfa: $rsp 8 +
STACK CFI INIT 6eb60 39 .cfa: $rsp .ra: .cfa 8 - ^
STACK CFI 6eb60 .cfa: $rsp 64 +
STACK CFI INIT 6eba0 3f .cfa: $rsp .ra: .cfa 8 - ^
STACK CFI 6eba0 .cfa: $rsp 80 +
STACK CFI INIT 6ebe0 17 .cfa: $rsp .ra: .cfa 8 - ^
STACK CFI 6ebe0 .cfa: $rsp 8 +
STACK CFI INIT 6ec00 39 .cfa: $rsp .ra: .cfa 8 - ^
STACK CFI 6ec00 .cfa: $rsp 64 +
STACK CFI INIT 6ec40 49a .cfa: $rsp .ra: .cfa 8 - ^
STACK CFI 6ec40 .cfa: $rsp 144 +
STACK CFI INIT 6f0e0 59 .cfa: $rsp .ra: .cfa 8 - ^
STACK CFI 6f0e0 .cfa: $rsp 80 +
STACK CFI INIT 6f140 68c .cfa: $rsp .ra: .cfa 8 - ^
STACK CFI 6f140 .cfa: $rsp 144 +
STACK CFI INIT 6f7d0 14 .cfa: $rsp .ra: .cfa 8 - ^
STACK CFI 6f7d0 .cfa: $rsp 8 +
STACK CFI INIT 6f7f0 14 .cfa: $rsp .ra: .cfa 8 - ^
STACK CFI 6f7f0 .cfa: $rsp 8 +
STACK CFI INIT 6f810 31 .cfa: $rsp .ra: .cfa 8 - ^
STACK CFI 6f810 .cfa: $rsp 48 +
STACK CFI INIT 6f850 2e .cfa: $rsp .ra: .cfa 8 - ^
STACK CFI 6f850 .cfa: $rsp 48 +
STACK CFI INIT 6f880 10 .cfa: $rsp .ra: .cfa 8 - ^
STACK CFI 6f880 .cfa: $rsp 8 +
STACK CFI INIT 6f890 f .cfa: $rsp .ra: .cfa 8 - ^
STACK CFI 6f890 .cfa: $rsp 8 +
STACK CFI INIT 6f8a0 19 .cfa: $rsp .ra: .cfa 8 - ^
STACK CFI 6f8a0 .cfa: $rsp 8 +
STACK CFI INIT 6f8c0 4b .cfa: $rsp .ra: .cfa 8 - ^
STACK CFI 6f8c0 .cfa: $rsp 64 +
STACK CFI INIT 6f910 193 .cfa: $rsp .ra: .cfa 8 - ^
STACK CFI 6f910 .cfa: $rsp 112 +
STACK CFI INIT 6fab0 91 .cfa: $rsp .ra: .cfa 8 - ^
STACK CFI 6fab0 .cfa: $rsp 96 +
STACK CFI INIT 6fb50 14 .cfa: $rsp .ra: .cfa 8 - ^
STACK CFI 6fb50 .cfa: $rsp 8 +
STACK CFI INIT 6fb70 14 .cfa: $rsp .ra: .cfa 8 - ^
STACK CFI 6fb70 .cfa: $rsp 8 +
STACK CFI INIT 6fb90 14 .cfa: $rsp .ra: .cfa 8 - ^
STACK CFI 6fb90 .cfa: $rsp 8 +
STACK CFI INIT 6fbb0 14 .cfa: $rsp .ra: .cfa 8 - ^
STACK CFI 6fbb0 .cfa: $rsp 8 +
STACK CFI INIT 6fbd0 16 .cfa: $rsp .ra: .cfa 8 - ^
STACK CFI 6fbd0 .cfa: $rsp 8 +
STACK CFI INIT 6fbf0 16 .cfa: $rsp .ra: .cfa 8 - ^
STACK CFI 6fbf0 .cfa: $rsp 8 +
STACK CFI INIT 6fc10 16 .cfa: $rsp .ra: .cfa 8 - ^
STACK CFI 6fc10 .cfa: $rsp 8 +
STACK CFI INIT 6fc30 16 .cfa: $rsp .ra: .cfa 8 - ^
STACK CFI 6fc30 .cfa: $rsp 8 +
STACK CFI INIT 6fc50 14 .cfa: $rsp .ra: .cfa 8 - ^
STACK CFI 6fc50 .cfa: $rsp 8 +
STACK CFI INIT 6fc70 115 .cfa: $rsp .ra: .cfa 8 - ^
STACK CFI 6fc70 .cfa: $rsp 160 +
STACK CFI INIT 6fd90 c5 .cfa: $rsp .ra: .cfa 8 - ^
STACK CFI 6fd90 .cfa: $rsp 80 +
STACK CFI INIT 6fe60 c2 .cfa: $rsp .ra: .cfa 8 - ^
STACK CFI 6fe60 .cfa: $rsp 80 +
STACK CFI INIT 6ff30 47 .cfa: $rsp .ra: .cfa 8 - ^
STACK CFI 6ff30 .cfa: $rsp 64 +
STACK CFI INIT 6ff80 7a .cfa: $rsp .ra: .cfa 8 - ^
STACK CFI 6ff80 .cfa: $rsp 80 +
STACK CFI INIT 70000 9 .cfa: $rsp .ra: .cfa 8 - ^
STACK CFI 70000 .cfa: $rsp 8 +
STACK CFI INIT 70010 25 .cfa: $rsp .ra: .cfa 8 - ^
STACK CFI 70010 .cfa: $rsp 8 +
STACK CFI INIT 70040 1a .cfa: $rsp .ra: .cfa 8 - ^
STACK CFI 70040 .cfa: $rsp 8 +
STACK CFI INIT 70060 2d .cfa: $rsp .ra: .cfa 8 - ^
STACK CFI 70060 .cfa: $rsp 64 +
STACK CFI INIT 70090 30 .cfa: $rsp .ra: .cfa 8 - ^
STACK CFI 70090 .cfa: $rsp 64 +
STACK CFI INIT 700c0 30 .cfa: $rsp .ra: .cfa 8 - ^
STACK CFI 700c0 .cfa: $rsp 64 +
STACK CFI INIT 700f0 39 .cfa: $rsp .ra: .cfa 8 - ^
STACK CFI 700f0 .cfa: $rsp 64 +
STACK CFI INIT 70130 17 .cfa: $rsp .ra: .cfa 8 - ^
STACK CFI 70130 .cfa: $rsp 8 +
STACK CFI INIT 70150 23 .cfa: $rsp .ra: .cfa 8 - ^
STACK CFI 70150 .cfa: $rsp 48 +
STACK CFI INIT 70180 164 .cfa: $rsp .ra: .cfa 8 - ^
STACK CFI 70180 .cfa: $rsp 112 +
STACK CFI INIT 702f0 33 .cfa: $rsp .ra: .cfa 8 - ^
STACK CFI 702f0 .cfa: $rsp 48 +
STACK CFI INIT 70330 1f .cfa: $rsp .ra: .cfa 8 - ^
STACK CFI 70330 .cfa: $rsp 48 +
STACK CFI INIT 70350 39b .cfa: $rsp .ra: .cfa 8 - ^
STACK CFI 70350 .cfa: $rsp 128 +
STACK CFI INIT 706f0 10c .cfa: $rsp .ra: .cfa 8 - ^
STACK CFI 706f0 .cfa: $rsp 112 +
STACK CFI INIT 70800 41 .cfa: $rsp .ra: .cfa 8 - ^
STACK CFI 70800 .cfa: $rsp 48 +
STACK CFI INIT 70850 44 .cfa: $rsp .ra: .cfa 8 - ^
STACK CFI 70850 .cfa: $rsp 64 +
STACK CFI INIT 708a0 42 .cfa: $rsp .ra: .cfa 8 - ^
STACK CFI 708a0 .cfa: $rsp 64 +
STACK CFI INIT 708f0 27 .cfa: $rsp .ra: .cfa 8 - ^
STACK CFI 708f0 .cfa: $rsp 48 +
STACK CFI INIT 70920 27 .cfa: $rsp .ra: .cfa 8 - ^
STACK CFI 70920 .cfa: $rsp 48 +
STACK CFI INIT 70950 25 .cfa: $rsp .ra: .cfa 8 - ^
STACK CFI 70950 .cfa: $rsp 48 +
STACK CFI INIT 70980 47 .cfa: $rsp .ra: .cfa 8 - ^
STACK CFI 70980 .cfa: $rsp 64 +
STACK CFI INIT 709d0 7a .cfa: $rsp .ra: .cfa 8 - ^
STACK CFI 709d0 .cfa: $rsp 80 +
STACK CFI INIT 70a50 8 .cfa: $rsp .ra: .cfa 8 - ^
STACK CFI 70a50 .cfa: $rsp 8 +
STACK CFI INIT 70a60 11 .cfa: $rsp .ra: .cfa 8 - ^
STACK CFI 70a60 .cfa: $rsp 8 +
STACK CFI INIT 70a80 a .cfa: $rsp .ra: .cfa 8 - ^
STACK CFI 70a80 .cfa: $rsp 8 +
STACK CFI INIT 70a90 6b .cfa: $rsp .ra: .cfa 8 - ^
STACK CFI 70a90 .cfa: $rsp 64 +
STACK CFI INIT 70b00 6b .cfa: $rsp .ra: .cfa 8 - ^
STACK CFI 70b00 .cfa: $rsp 64 +
STACK CFI INIT 70b70 4e .cfa: $rsp .ra: .cfa 8 - ^
STACK CFI 70b70 .cfa: $rsp 64 +
STACK CFI INIT 70bc0 3f .cfa: $rsp .ra: .cfa 8 - ^
STACK CFI 70bc0 .cfa: $rsp 64 +
STACK CFI INIT 70c00 4e .cfa: $rsp .ra: .cfa 8 - ^
STACK CFI 70c00 .cfa: $rsp 64 +
STACK CFI INIT 70c50 43 .cfa: $rsp .ra: .cfa 8 - ^
STACK CFI 70c50 .cfa: $rsp 64 +
STACK CFI INIT 70ca0 4e .cfa: $rsp .ra: .cfa 8 - ^
STACK CFI 70ca0 .cfa: $rsp 64 +
STACK CFI INIT 70cf0 3e .cfa: $rsp .ra: .cfa 8 - ^
STACK CFI 70cf0 .cfa: $rsp 64 +
STACK CFI INIT 70d30 3f .cfa: $rsp .ra: .cfa 8 - ^
STACK CFI 70d30 .cfa: $rsp 64 +
STACK CFI INIT 70d70 55 .cfa: $rsp .ra: .cfa 8 - ^
STACK CFI 70d70 .cfa: $rsp 64 +
STACK CFI INIT 70dd0 150 .cfa: $rsp .ra: .cfa 8 - ^
STACK CFI 70dd0 .cfa: $rsp 128 +
STACK CFI INIT 70f20 17f .cfa: $rsp .ra: .cfa 8 - ^
STACK CFI 70f20 .cfa: $rsp 64 +
STACK CFI INIT 710a0 18c .cfa: $rsp .ra: .cfa 8 - ^
STACK CFI 710a0 .cfa: $rsp 64 +
STACK CFI INIT 71230 19a .cfa: $rsp .ra: .cfa 8 - ^
STACK CFI 71230 .cfa: $rsp 64 +
STACK CFI INIT 713d0 5e5 .cfa: $rsp .ra: .cfa 8 - ^
STACK CFI 713d0 .cfa: $rsp 144 +
STACK CFI INIT 719c0 45 .cfa: $rsp .ra: .cfa 8 - ^
STACK CFI 719c0 .cfa: $rsp 64 +
STACK CFI INIT 71a10 83 .cfa: $rsp .ra: .cfa 8 - ^
STACK CFI 71a10 .cfa: $rsp 80 +
STACK CFI INIT 71aa0 77 .cfa: $rsp .ra: .cfa 8 - ^
STACK CFI 71aa0 .cfa: $rsp 80 +
STACK CFI INIT 71b20 77 .cfa: $rsp .ra: .cfa 8 - ^
STACK CFI 71b20 .cfa: $rsp 80 +
STACK CFI INIT 71ba0 1fc .cfa: $rsp .ra: .cfa 8 - ^
STACK CFI 71ba0 .cfa: $rsp 96 +
STACK CFI INIT 71da0 46 .cfa: $rsp .ra: .cfa 8 - ^
STACK CFI 71da0 .cfa: $rsp 48 +
STACK CFI INIT 71df0 6c .cfa: $rsp .ra: .cfa 8 - ^
STACK CFI 71df0 .cfa: $rsp 80 +
STACK CFI INIT 71e60 1e1 .cfa: $rsp .ra: .cfa 8 - ^
STACK CFI 71e60 .cfa: $rsp 320 +
STACK CFI INIT 72050 2e .cfa: $rsp .ra: .cfa 8 - ^
STACK CFI 72050 .cfa: $rsp 64 +
STACK CFI INIT 72080 3e .cfa: $rsp .ra: .cfa 8 - ^
STACK CFI 72080 .cfa: $rsp 64 +
STACK CFI INIT 720c0 2ac .cfa: $rsp .ra: .cfa 8 - ^
STACK CFI 720c0 .cfa: $rsp 144 +
STACK CFI INIT 72370 e24 .cfa: $rsp .ra: .cfa 8 - ^
STACK CFI 72370 .cfa: $rsp 224 +
STACK CFI INIT 731a0 6a5 .cfa: $rsp .ra: .cfa 8 - ^
STACK CFI 731a0 .cfa: $rsp 224 +
STACK CFI INIT 73850 6c .cfa: $rsp .ra: .cfa 8 - ^
STACK CFI 73850 .cfa: $rsp 80 +
STACK CFI INIT 738c0 216 .cfa: $rsp .ra: .cfa 8 - ^
STACK CFI 738c0 .cfa: $rsp 144 +
STACK CFI INIT 73ae0 316 .cfa: $rsp .ra: .cfa 8 - ^
STACK CFI 73ae0 .cfa: $rsp 160 +
STACK CFI INIT 73e00 2e6 .cfa: $rsp .ra: .cfa 8 - ^
STACK CFI 73e00 .cfa: $rsp 144 +
STACK CFI INIT 740f0 340 .cfa: $rsp .ra: .cfa 8 - ^
STACK CFI 740f0 .cfa: $rsp 384 +
STACK CFI INIT 74430 3fd .cfa: $rsp .ra: .cfa 8 - ^
STACK CFI 74430 .cfa: $rsp 480 +
STACK CFI INIT 74830 13e .cfa: $rsp .ra: .cfa 8 - ^
STACK CFI 74830 .cfa: $rsp 112 +
STACK CFI INIT 74970 1c36 .cfa: $rsp .ra: .cfa 8 - ^
STACK CFI 74970 .cfa: $rsp 480 +
STACK CFI INIT 765b0 b3 .cfa: $rsp .ra: .cfa 8 - ^
STACK CFI 765b0 .cfa: $rsp 80 +
STACK CFI INIT 76670 1b6 .cfa: $rsp .ra: .cfa 8 - ^
STACK CFI 76670 .cfa: $rsp 96 +
STACK CFI INIT 76830 1f .cfa: $rsp .ra: .cfa 8 - ^
STACK CFI 76830 .cfa: $rsp 48 +
STACK CFI INIT 76850 3 .cfa: $rsp .ra: .cfa 8 - ^
STACK CFI 76850 .cfa: $rsp 8 +
STACK CFI INIT 76860 1a .cfa: $rsp .ra: .cfa 8 - ^
STACK CFI 76860 .cfa: $rsp 8 +
STACK CFI INIT 76880 2d .cfa: $rsp .ra: .cfa 8 - ^
STACK CFI 76880 .cfa: $rsp 64 +
STACK CFI INIT 768b0 30 .cfa: $rsp .ra: .cfa 8 - ^
STACK CFI 768b0 .cfa: $rsp 64 +
STACK CFI INIT 768e0 30 .cfa: $rsp .ra: .cfa 8 - ^
STACK CFI 768e0 .cfa: $rsp 64 +
STACK CFI INIT 76910 17 .cfa: $rsp .ra: .cfa 8 - ^
STACK CFI 76910 .cfa: $rsp 8 +
STACK CFI INIT 76930 83 .cfa: $rsp .ra: .cfa 8 - ^
STACK CFI 76930 .cfa: $rsp 64 +
STACK CFI INIT 769c0 144 .cfa: $rsp .ra: .cfa 8 - ^
STACK CFI 769c0 .cfa: $rsp 112 +
STACK CFI INIT 76b10 40 .cfa: $rsp .ra: .cfa 8 - ^
STACK CFI 76b10 .cfa: $rsp 48 +
STACK CFI INIT 76b50 116 .cfa: $rsp .ra: .cfa 8 - ^
STACK CFI 76b50 .cfa: $rsp 48 +
STACK CFI INIT 76c70 1f .cfa: $rsp .ra: .cfa 8 - ^
STACK CFI 76c70 .cfa: $rsp 48 +
STACK CFI INIT 76c90 5a .cfa: $rsp .ra: .cfa 8 - ^
STACK CFI 76c90 .cfa: $rsp 64 +
STACK CFI INIT 76cf0 487 .cfa: $rsp .ra: .cfa 8 - ^
STACK CFI 76cf0 .cfa: $rsp 128 +
STACK CFI INIT 77180 47 .cfa: $rsp .ra: .cfa 8 - ^
STACK CFI 77180 .cfa: $rsp 64 +
STACK CFI INIT 771d0 7a .cfa: $rsp .ra: .cfa 8 - ^
STACK CFI 771d0 .cfa: $rsp 80 +
STACK CFI INIT 77250 22 .cfa: $rsp .ra: .cfa 8 - ^
STACK CFI 77250 .cfa: $rsp 48 +
STACK CFI INIT 77280 15 .cfa: $rsp .ra: .cfa 8 - ^
STACK CFI 77280 .cfa: $rsp 8 +
STACK CFI INIT 772a0 2e .cfa: $rsp .ra: .cfa 8 - ^
STACK CFI 772a0 .cfa: $rsp 48 +
STACK CFI INIT 772d0 7 .cfa: $rsp .ra: .cfa 8 - ^
STACK CFI 772d0 .cfa: $rsp 8 +
STACK CFI INIT 772e0 e .cfa: $rsp .ra: .cfa 8 - ^
STACK CFI 772e0 .cfa: $rsp 8 +
STACK CFI INIT 772f0 37 .cfa: $rsp .ra: .cfa 8 - ^
STACK CFI 772f0 .cfa: $rsp 64 +
STACK CFI INIT 77330 33d .cfa: $rsp .ra: .cfa 8 - ^
STACK CFI 77330 .cfa: $rsp 144 +
STACK CFI INIT 77670 206 .cfa: $rsp .ra: .cfa 8 - ^
STACK CFI 77670 .cfa: $rsp 128 +
STACK CFI INIT 77880 39 .cfa: $rsp .ra: .cfa 8 - ^
STACK CFI 77880 .cfa: $rsp 64 +
STACK CFI INIT 778c0 37 .cfa: $rsp .ra: .cfa 8 - ^
STACK CFI 778c0 .cfa: $rsp 64 +
STACK CFI INIT 77900 77 .cfa: $rsp .ra: .cfa 8 - ^
STACK CFI 77900 .cfa: $rsp 80 +
STACK CFI INIT 77980 9f .cfa: $rsp .ra: .cfa 8 - ^
STACK CFI 77980 .cfa: $rsp 64 +
STACK CFI INIT 77a20 8d .cfa: $rsp .ra: .cfa 8 - ^
STACK CFI 77a20 .cfa: $rsp 96 +
STACK CFI INIT 77ab0 bc .cfa: $rsp .ra: .cfa 8 - ^
STACK CFI 77ab0 .cfa: $rsp 96 +
STACK CFI INIT 77b70 8 .cfa: $rsp .ra: .cfa 8 - ^
STACK CFI 77b70 .cfa: $rsp 8 +
STACK CFI INIT 77b80 35 .cfa: $rsp .ra: .cfa 8 - ^
STACK CFI 77b80 .cfa: $rsp 8 +
STACK CFI INIT 77bc0 35 .cfa: $rsp .ra: .cfa 8 - ^
STACK CFI 77bc0 .cfa: $rsp 8 +
STACK CFI INIT 77c00 35 .cfa: $rsp .ra: .cfa 8 - ^
STACK CFI 77c00 .cfa: $rsp 8 +
STACK CFI INIT 77c40 6f .cfa: $rsp .ra: .cfa 8 - ^
STACK CFI 77c40 .cfa: $rsp 48 +
STACK CFI INIT 77cb0 8 .cfa: $rsp .ra: .cfa 8 - ^
STACK CFI 77cb0 .cfa: $rsp 8 +
STACK CFI INIT 77cc0 259 .cfa: $rsp .ra: .cfa 8 - ^
STACK CFI 77cc0 .cfa: $rsp 128 +
STACK CFI INIT 77f20 28 .cfa: $rsp .ra: .cfa 8 - ^
STACK CFI 77f20 .cfa: $rsp 64 +
STACK CFI INIT 77f50 22 .cfa: $rsp .ra: .cfa 8 - ^
STACK CFI 77f50 .cfa: $rsp 8 +
STACK CFI INIT 77f80 47 .cfa: $rsp .ra: .cfa 8 - ^
STACK CFI 77f80 .cfa: $rsp 64 +
STACK CFI INIT 77fd0 47 .cfa: $rsp .ra: .cfa 8 - ^
STACK CFI 77fd0 .cfa: $rsp 64 +
STACK CFI INIT 78020 296 .cfa: $rsp .ra: .cfa 8 - ^
STACK CFI 78020 .cfa: $rsp 48 +
STACK CFI INIT 782c0 36 .cfa: $rsp .ra: .cfa 8 - ^
STACK CFI 782c0 .cfa: $rsp 48 +
STACK CFI INIT 78300 170 .cfa: $rsp .ra: .cfa 8 - ^
STACK CFI 78300 .cfa: $rsp 64 +
STACK CFI INIT 78470 13 .cfa: $rsp .ra: .cfa 8 - ^
STACK CFI 78470 .cfa: $rsp 8 +
STACK CFI INIT 78490 1ee .cfa: $rsp .ra: .cfa 8 - ^
STACK CFI 78490 .cfa: $rsp 96 +
STACK CFI INIT 78680 47 .cfa: $rsp .ra: .cfa 8 - ^
STACK CFI 78680 .cfa: $rsp 64 +
STACK CFI INIT 786d0 4c6 .cfa: $rsp .ra: .cfa 8 - ^
STACK CFI 786d0 .cfa: $rsp 208 +
STACK CFI INIT 78ba0 369 .cfa: $rsp .ra: .cfa 8 - ^
STACK CFI 78ba0 .cfa: $rsp 160 +
STACK CFI INIT 78f10 64 .cfa: $rsp .ra: .cfa 8 - ^
STACK CFI 78f10 .cfa: $rsp 64 +
STACK CFI INIT 78f80 12d .cfa: $rsp .ra: .cfa 8 - ^
STACK CFI 78f80 .cfa: $rsp 112 +
STACK CFI INIT 790b0 9d .cfa: $rsp .ra: .cfa 8 - ^
STACK CFI 790b0 .cfa: $rsp 64 +
STACK CFI INIT 79150 8dc .cfa: $rsp .ra: .cfa 8 - ^
STACK CFI 79150 .cfa: $rsp 192 +
STACK CFI INIT 79a30 cb7 .cfa: $rsp .ra: .cfa 8 - ^
STACK CFI 79a30 .cfa: $rsp 208 +
STACK CFI INIT 7a6f0 1c8d .cfa: $rsp .ra: .cfa 8 - ^
STACK CFI 7a6f0 .cfa: $rsp 368 +
STACK CFI INIT 7c380 27b1 .cfa: $rsp .ra: .cfa 8 - ^
STACK CFI 7c380 .cfa: $rsp 688 +
STACK CFI INIT 7eb40 12 .cfa: $rsp .ra: .cfa 8 - ^
STACK CFI 7eb40 .cfa: $rsp 8 +
STACK CFI INIT 7eb60 30 .cfa: $rsp .ra: .cfa 8 - ^
STACK CFI 7eb60 .cfa: $rsp 8 +
STACK CFI INIT 7eb90 11 .cfa: $rsp .ra: .cfa 8 - ^
STACK CFI 7eb90 .cfa: $rsp 8 +
STACK CFI INIT 7ebb0 2a .cfa: $rsp .ra: .cfa 8 - ^
STACK CFI 7ebb0 .cfa: $rsp 48 +
STACK CFI INIT 7ebe0 1a .cfa: $rsp .ra: .cfa 8 - ^
STACK CFI 7ebe0 .cfa: $rsp 8 +
STACK CFI INIT 7ec00 14 .cfa: $rsp .ra: .cfa 8 - ^
STACK CFI 7ec00 .cfa: $rsp 8 +
STACK CFI INIT 7ec20 30 .cfa: $rsp .ra: .cfa 8 - ^
STACK CFI 7ec20 .cfa: $rsp 64 +
STACK CFI INIT 7ec50 39 .cfa: $rsp .ra: .cfa 8 - ^
STACK CFI 7ec50 .cfa: $rsp 64 +
STACK CFI INIT 7ec90 30 .cfa: $rsp .ra: .cfa 8 - ^
STACK CFI 7ec90 .cfa: $rsp 64 +
STACK CFI INIT 7ecc0 30 .cfa: $rsp .ra: .cfa 8 - ^
STACK CFI 7ecc0 .cfa: $rsp 48 +
STACK CFI INIT 7ecf0 4f .cfa: $rsp .ra: .cfa 8 - ^
STACK CFI 7ecf0 .cfa: $rsp 48 +
STACK CFI INIT 7ed40 102 .cfa: $rsp .ra: .cfa 8 - ^
STACK CFI 7ed40 .cfa: $rsp 96 +
STACK CFI INIT 7ee50 102 .cfa: $rsp .ra: .cfa 8 - ^
STACK CFI 7ee50 .cfa: $rsp 96 +
STACK CFI INIT 7ef60 169 .cfa: $rsp .ra: .cfa 8 - ^
STACK CFI 7ef60 .cfa: $rsp 112 +
STACK CFI INIT 7f0d0 18c .cfa: $rsp .ra: .cfa 8 - ^
STACK CFI 7f0d0 .cfa: $rsp 128 +
STACK CFI INIT 7f260 19c .cfa: $rsp .ra: .cfa 8 - ^
STACK CFI 7f260 .cfa: $rsp 128 +
STACK CFI INIT 7f400 b .cfa: $rsp .ra: .cfa 8 - ^
STACK CFI 7f400 .cfa: $rsp 8 +
STACK CFI INIT 7f410 26 .cfa: $rsp .ra: .cfa 8 - ^
STACK CFI 7f410 .cfa: $rsp 8 +
STACK CFI INIT 7f440 9 .cfa: $rsp .ra: .cfa 8 - ^
STACK CFI 7f440 .cfa: $rsp 8 +
STACK CFI INIT 7f450 26 .cfa: $rsp .ra: .cfa 8 - ^
STACK CFI 7f450 .cfa: $rsp 8 +
STACK CFI INIT 7f480 6e .cfa: $rsp .ra: .cfa 8 - ^
STACK CFI 7f480 .cfa: $rsp 80 +
STACK CFI INIT 7f4f0 b .cfa: $rsp .ra: .cfa 8 - ^
STACK CFI 7f4f0 .cfa: $rsp 8 +
STACK CFI INIT 7f500 4b .cfa: $rsp .ra: .cfa 8 - ^
STACK CFI 7f500 .cfa: $rsp 80 +
STACK CFI INIT 7f550 21 .cfa: $rsp .ra: .cfa 8 - ^
STACK CFI 7f550 .cfa: $rsp 48 +
STACK CFI INIT 7f580 6d .cfa: $rsp .ra: .cfa 8 - ^
STACK CFI 7f580 .cfa: $rsp 80 +
STACK CFI INIT 7f5f0 3b .cfa: $rsp .ra: .cfa 8 - ^
STACK CFI 7f5f0 .cfa: $rsp 48 +
STACK CFI INIT 7f630 10 .cfa: $rsp .ra: .cfa 8 - ^
STACK CFI 7f630 .cfa: $rsp 8 +
STACK CFI INIT 7f640 b7 .cfa: $rsp .ra: .cfa 8 - ^
STACK CFI 7f640 .cfa: $rsp 48 +
STACK CFI INIT 7f700 26 .cfa: $rsp .ra: .cfa 8 - ^
STACK CFI 7f700 .cfa: $rsp 8 +
STACK CFI INIT 7f730 7 .cfa: $rsp .ra: .cfa 8 - ^
STACK CFI 7f730 .cfa: $rsp 8 +
STACK CFI INIT 7f740 26 .cfa: $rsp .ra: .cfa 8 - ^
STACK CFI 7f740 .cfa: $rsp 8 +
STACK CFI INIT 7f770 e2 .cfa: $rsp .ra: .cfa 8 - ^
STACK CFI 7f770 .cfa: $rsp 48 +
STACK CFI INIT 7f860 45 .cfa: $rsp .ra: .cfa 8 - ^
STACK CFI 7f860 .cfa: $rsp 64 +
STACK CFI INIT 7f8b0 10 .cfa: $rsp .ra: .cfa 8 - ^
STACK CFI 7f8b0 .cfa: $rsp 8 +
STACK CFI INIT 7f8c0 87 .cfa: $rsp .ra: .cfa 8 - ^
STACK CFI 7f8c0 .cfa: $rsp 64 +
STACK CFI INIT 7f950 26 .cfa: $rsp .ra: .cfa 8 - ^
STACK CFI 7f950 .cfa: $rsp 8 +
STACK CFI INIT 7f980 7 .cfa: $rsp .ra: .cfa 8 - ^
STACK CFI 7f980 .cfa: $rsp 8 +
STACK CFI INIT 7f990 1d .cfa: $rsp .ra: .cfa 8 - ^
STACK CFI 7f990 .cfa: $rsp 48 +
STACK CFI INIT 7f9b0 a7 .cfa: $rsp .ra: .cfa 8 - ^
STACK CFI 7f9b0 .cfa: $rsp 64 +
STACK CFI INIT 7fa60 41 .cfa: $rsp .ra: .cfa 8 - ^
STACK CFI 7fa60 .cfa: $rsp 48 +
STACK CFI INIT 7fab0 10 .cfa: $rsp .ra: .cfa 8 - ^
STACK CFI 7fab0 .cfa: $rsp 8 +
STACK CFI INIT 7fac0 b7 .cfa: $rsp .ra: .cfa 8 - ^
STACK CFI 7fac0 .cfa: $rsp 48 +
STACK CFI INIT 7fb80 26 .cfa: $rsp .ra: .cfa 8 - ^
STACK CFI 7fb80 .cfa: $rsp 8 +
STACK CFI INIT 7fbb0 26 .cfa: $rsp .ra: .cfa 8 - ^
STACK CFI 7fbb0 .cfa: $rsp 8 +
STACK CFI INIT 7fbe0 8 .cfa: $rsp .ra: .cfa 8 - ^
STACK CFI 7fbe0 .cfa: $rsp 8 +
STACK CFI INIT 7fbf0 7 .cfa: $rsp .ra: .cfa 8 - ^
STACK CFI 7fbf0 .cfa: $rsp 8 +
STACK CFI INIT 7fc00 e2 .cfa: $rsp .ra: .cfa 8 - ^
STACK CFI 7fc00 .cfa: $rsp 48 +
STACK CFI INIT 7fcf0 48 .cfa: $rsp .ra: .cfa 8 - ^
STACK CFI 7fcf0 .cfa: $rsp 48 +
STACK CFI INIT 7fd40 10 .cfa: $rsp .ra: .cfa 8 - ^
STACK CFI 7fd40 .cfa: $rsp 8 +
STACK CFI INIT 7fd50 b7 .cfa: $rsp .ra: .cfa 8 - ^
STACK CFI 7fd50 .cfa: $rsp 48 +
STACK CFI INIT 7fe10 26 .cfa: $rsp .ra: .cfa 8 - ^
STACK CFI 7fe10 .cfa: $rsp 8 +
STACK CFI INIT 7fe40 8 .cfa: $rsp .ra: .cfa 8 - ^
STACK CFI 7fe40 .cfa: $rsp 8 +
STACK CFI INIT 7fe50 8 .cfa: $rsp .ra: .cfa 8 - ^
STACK CFI 7fe50 .cfa: $rsp 8 +
STACK CFI INIT 7fe60 26 .cfa: $rsp .ra: .cfa 8 - ^
STACK CFI 7fe60 .cfa: $rsp 8 +
STACK CFI INIT 7fe90 7 .cfa: $rsp .ra: .cfa 8 - ^
STACK CFI 7fe90 .cfa: $rsp 8 +
STACK CFI INIT 7fea0 8 .cfa: $rsp .ra: .cfa 8 - ^
STACK CFI 7fea0 .cfa: $rsp 8 +
STACK CFI INIT 7feb0 e2 .cfa: $rsp .ra: .cfa 8 - ^
STACK CFI 7feb0 .cfa: $rsp 48 +
STACK CFI INIT 7ffa0 42 .cfa: $rsp .ra: .cfa 8 - ^
STACK CFI 7ffa0 .cfa: $rsp 48 +
STACK CFI INIT 7fff0 10 .cfa: $rsp .ra: .cfa 8 - ^
STACK CFI 7fff0 .cfa: $rsp 8 +
STACK CFI INIT 80000 26 .cfa: $rsp .ra: .cfa 8 - ^
STACK CFI 80000 .cfa: $rsp 8 +
STACK CFI INIT 80030 7 .cfa: $rsp .ra: .cfa 8 - ^
STACK CFI 80030 .cfa: $rsp 8 +
STACK CFI INIT 80040 97 .cfa: $rsp .ra: .cfa 8 - ^
STACK CFI 80040 .cfa: $rsp 64 +
STACK CFI INIT 800e0 42 .cfa: $rsp .ra: .cfa 8 - ^
STACK CFI 800e0 .cfa: $rsp 48 +
STACK CFI INIT 80130 10c .cfa: $rsp .ra: .cfa 8 - ^
STACK CFI 80130 .cfa: $rsp 128 +
STACK CFI INIT 80240 1d .cfa: $rsp .ra: .cfa 8 - ^
STACK CFI 80240 .cfa: $rsp 48 +
STACK CFI INIT 80260 a7 .cfa: $rsp .ra: .cfa 8 - ^
STACK CFI 80260 .cfa: $rsp 64 +
STACK CFI INIT 80310 87 .cfa: $rsp .ra: .cfa 8 - ^
STACK CFI 80310 .cfa: $rsp 64 +
STACK CFI INIT 803a0 28c .cfa: $rsp .ra: .cfa 8 - ^
STACK CFI 803a0 .cfa: $rsp 192 +
STACK CFI INIT 80630 3a7 .cfa: $rsp .ra: .cfa 8 - ^
STACK CFI 80630 .cfa: $rsp 208 +
STACK CFI INIT 809e0 21 .cfa: $rsp .ra: .cfa 8 - ^
STACK CFI 809e0 .cfa: $rsp 48 +
STACK CFI INIT 80a10 21 .cfa: $rsp .ra: .cfa 8 - ^
STACK CFI 80a10 .cfa: $rsp 48 +
STACK CFI INIT 80a40 21 .cfa: $rsp .ra: .cfa 8 - ^
STACK CFI 80a40 .cfa: $rsp 48 +
STACK CFI INIT 80a70 21 .cfa: $rsp .ra: .cfa 8 - ^
STACK CFI 80a70 .cfa: $rsp 48 +
STACK CFI INIT 80aa0 21 .cfa: $rsp .ra: .cfa 8 - ^
STACK CFI 80aa0 .cfa: $rsp 48 +
STACK CFI INIT 80ad0 21 .cfa: $rsp .ra: .cfa 8 - ^
STACK CFI 80ad0 .cfa: $rsp 48 +
STACK CFI INIT 80b00 21 .cfa: $rsp .ra: .cfa 8 - ^
STACK CFI 80b00 .cfa: $rsp 48 +
STACK CFI INIT 80b30 22a .cfa: $rsp .ra: .cfa 8 - ^
STACK CFI 80b30 .cfa: $rsp 96 +
STACK CFI INIT 80d60 31c .cfa: $rsp .ra: .cfa 8 - ^
STACK CFI 80d60 .cfa: $rsp 96 +
STACK CFI INIT 81080 cdd .cfa: $rsp .ra: .cfa 8 - ^
STACK CFI 81080 .cfa: $rsp 256 +
STACK CFI INIT 81d70 47 .cfa: $rsp .ra: .cfa 8 - ^
STACK CFI 81d70 .cfa: $rsp 64 +
STACK CFI INIT 81dc0 ba .cfa: $rsp .ra: .cfa 8 - ^
STACK CFI 81dc0 .cfa: $rsp 80 +
STACK CFI INIT 81e80 8c .cfa: $rsp .ra: .cfa 8 - ^
STACK CFI 81e80 .cfa: $rsp 8 +
STACK CFI INIT 81f10 65 .cfa: $rsp .ra: .cfa 8 - ^
STACK CFI 81f10 .cfa: $rsp 8 +
STACK CFI INIT 81f80 2d .cfa: $rsp .ra: .cfa 8 - ^
STACK CFI 81f80 .cfa: $rsp 8 +
STACK CFI INIT 81fb0 29 .cfa: $rsp .ra: .cfa 8 - ^
STACK CFI 81fb0 .cfa: $rsp 8 +
STACK CFI INIT 81fe0 25 .cfa: $rsp .ra: .cfa 8 - ^
STACK CFI 81fe0 .cfa: $rsp 8 +
STACK CFI INIT 82010 25 .cfa: $rsp .ra: .cfa 8 - ^
STACK CFI 82010 .cfa: $rsp 8 +
STACK CFI INIT 82040 2b7 .cfa: $rsp .ra: .cfa 8 - ^
STACK CFI 82040 .cfa: $rsp 128 +
STACK CFI INIT 82300 1c .cfa: $rsp .ra: .cfa 8 - ^
STACK CFI 82300 .cfa: $rsp 8 +
STACK CFI INIT 82320 4 .cfa: $rsp .ra: .cfa 8 - ^
STACK CFI 82320 .cfa: $rsp 8 +
STACK CFI INIT 82330 4b .cfa: $rsp .ra: .cfa 8 - ^
STACK CFI 82330 .cfa: $rsp 48 +
STACK CFI INIT 82380 5a .cfa: $rsp .ra: .cfa 8 - ^
STACK CFI 82380 .cfa: $rsp 64 +
STACK CFI INIT 823e0 10 .cfa: $rsp .ra: .cfa 8 - ^
STACK CFI 823e0 .cfa: $rsp 8 +
STACK CFI INIT 823f0 87 .cfa: $rsp .ra: .cfa 8 - ^
STACK CFI 823f0 .cfa: $rsp 48 +
STACK CFI INIT 82480 a2 .cfa: $rsp .ra: .cfa 8 - ^
STACK CFI 82480 .cfa: $rsp 48 +
STACK CFI INIT 82530 7 .cfa: $rsp .ra: .cfa 8 - ^
STACK CFI 82530 .cfa: $rsp 8 +
STACK CFI INIT 82540 50 .cfa: $rsp .ra: .cfa 8 - ^
STACK CFI 82540 .cfa: $rsp 64 +
STACK CFI INIT 82590 8 .cfa: $rsp .ra: .cfa 8 - ^
STACK CFI 82590 .cfa: $rsp 8 +
STACK CFI INIT 825a0 f .cfa: $rsp .ra: .cfa 8 - ^
STACK CFI 825a0 .cfa: $rsp 8 +
STACK CFI INIT 825b0 de .cfa: $rsp .ra: .cfa 8 - ^
STACK CFI 825b0 .cfa: $rsp 80 +
STACK CFI INIT 82690 36 .cfa: $rsp .ra: .cfa 8 - ^
STACK CFI 82690 .cfa: $rsp 8 +
STACK CFI INIT 826d0 188 .cfa: $rsp .ra: .cfa 8 - ^
STACK CFI 826d0 .cfa: $rsp 64 +
STACK CFI INIT 82860 16 .cfa: $rsp .ra: .cfa 8 - ^
STACK CFI 82860 .cfa: $rsp 8 +
STACK CFI INIT 82880 84 .cfa: $rsp .ra: .cfa 8 - ^
STACK CFI 82880 .cfa: $rsp 8 +
STACK CFI INIT 82910 b .cfa: $rsp .ra: .cfa 8 - ^
STACK CFI 82910 .cfa: $rsp 8 +
STACK CFI INIT 82920 f5 .cfa: $rsp .ra: .cfa 8 - ^
STACK CFI 82920 .cfa: $rsp 80 +
STACK CFI INIT 82a20 9 .cfa: $rsp .ra: .cfa 8 - ^
STACK CFI 82a20 .cfa: $rsp 8 +
STACK CFI INIT 82a30 3c .cfa: $rsp .ra: .cfa 8 - ^
STACK CFI 82a30 .cfa: $rsp 8 +
STACK CFI INIT 82a70 2a .cfa: $rsp .ra: .cfa 8 - ^
STACK CFI 82a70 .cfa: $rsp 8 +
STACK CFI INIT 82aa0 230 .cfa: $rsp .ra: .cfa 8 - ^
STACK CFI 82aa0 .cfa: $rsp 112 +
STACK CFI INIT 82cd0 16 .cfa: $rsp .ra: .cfa 8 - ^
STACK CFI 82cd0 .cfa: $rsp 8 +
STACK CFI INIT 82cf0 110 .cfa: $rsp .ra: .cfa 8 - ^
STACK CFI 82cf0 .cfa: $rsp 112 +
STACK CFI INIT 82e00 4e .cfa: $rsp .ra: .cfa 8 - ^
STACK CFI 82e00 .cfa: $rsp 64 +
STACK CFI INIT 82e50 5f .cfa: $rsp .ra: .cfa 8 - ^
STACK CFI 82e50 .cfa: $rsp 64 +
STACK CFI INIT 82eb0 58 .cfa: $rsp .ra: .cfa 8 - ^
STACK CFI 82eb0 .cfa: $rsp 64 +
STACK CFI INIT 82f10 48 .cfa: $rsp .ra: .cfa 8 - ^
STACK CFI 82f10 .cfa: $rsp 48 +
STACK CFI INIT 82f60 40 .cfa: $rsp .ra: .cfa 8 - ^
STACK CFI 82f60 .cfa: $rsp 64 +
STACK CFI INIT 82fa0 4a .cfa: $rsp .ra: .cfa 8 - ^
STACK CFI 82fa0 .cfa: $rsp 48 +
STACK CFI INIT 82ff0 10f .cfa: $rsp .ra: .cfa 8 - ^
STACK CFI 82ff0 .cfa: $rsp 80 +
STACK CFI INIT 83100 58 .cfa: $rsp .ra: .cfa 8 - ^
STACK CFI 83100 .cfa: $rsp 64 +
STACK CFI INIT 83160 16 .cfa: $rsp .ra: .cfa 8 - ^
STACK CFI 83160 .cfa: $rsp 48 +
STACK CFI INIT 83180 5d .cfa: $rsp .ra: .cfa 8 - ^
STACK CFI 83180 .cfa: $rsp 64 +
STACK CFI INIT 831e0 5a .cfa: $rsp .ra: .cfa 8 - ^
STACK CFI 831e0 .cfa: $rsp 64 +
STACK CFI INIT 83240 15d .cfa: $rsp .ra: .cfa 8 - ^
STACK CFI 83240 .cfa: $rsp 128 +
STACK CFI INIT 833a0 5d .cfa: $rsp .ra: .cfa 8 - ^
STACK CFI 833a0 .cfa: $rsp 64 +
STACK CFI INIT 83400 5a .cfa: $rsp .ra: .cfa 8 - ^
STACK CFI 83400 .cfa: $rsp 64 +
STACK CFI INIT 83460 92 .cfa: $rsp .ra: .cfa 8 - ^
STACK CFI 83460 .cfa: $rsp 64 +
STACK CFI INIT 83500 5a .cfa: $rsp .ra: .cfa 8 - ^
STACK CFI 83500 .cfa: $rsp 64 +
STACK CFI INIT 83560 5 .cfa: $rsp .ra: .cfa 8 - ^
STACK CFI 83560 .cfa: $rsp 8 +
STACK CFI INIT 83570 82 .cfa: $rsp .ra: .cfa 8 - ^
STACK CFI 83570 .cfa: $rsp 64 +
STACK CFI INIT 83600 f9 .cfa: $rsp .ra: .cfa 8 - ^
STACK CFI 83600 .cfa: $rsp 80 +
STACK CFI INIT 83700 1b7 .cfa: $rsp .ra: .cfa 8 - ^
STACK CFI 83700 .cfa: $rsp 96 +
STACK CFI INIT 838c0 110 .cfa: $rsp .ra: .cfa 8 - ^
STACK CFI 838c0 .cfa: $rsp 96 +
STACK CFI INIT 839d0 7c5 .cfa: $rsp .ra: .cfa 8 - ^
STACK CFI 839d0 .cfa: $rsp 176 +
STACK CFI INIT 841a0 77 .cfa: $rsp .ra: .cfa 8 - ^
STACK CFI 841a0 .cfa: $rsp 64 +
STACK CFI INIT 84220 77 .cfa: $rsp .ra: .cfa 8 - ^
STACK CFI 84220 .cfa: $rsp 80 +
STACK CFI INIT 842a0 277 .cfa: $rsp .ra: .cfa 8 - ^
STACK CFI 842a0 .cfa: $rsp 208 +
STACK CFI INIT 84520 319 .cfa: $rsp .ra: .cfa 8 - ^
STACK CFI 84520 .cfa: $rsp 128 +
STACK CFI INIT 84840 16 .cfa: $rsp .ra: .cfa 8 - ^
STACK CFI 84840 .cfa: $rsp 48 +
STACK CFI INIT 84860 59 .cfa: $rsp .ra: .cfa 8 - ^
STACK CFI 84860 .cfa: $rsp 64 +
STACK CFI INIT 848c0 26 .cfa: $rsp .ra: .cfa 8 - ^
STACK CFI 848c0 .cfa: $rsp 8 +
STACK CFI INIT 848f0 e .cfa: $rsp .ra: .cfa 8 - ^
STACK CFI 848f0 .cfa: $rsp 8 +
STACK CFI INIT 84900 6 .cfa: $rsp .ra: .cfa 8 - ^
STACK CFI 84900 .cfa: $rsp 8 +
STACK CFI INIT 84910 6 .cfa: $rsp .ra: .cfa 8 - ^
STACK CFI 84910 .cfa: $rsp 8 +
STACK CFI INIT 84920 7 .cfa: $rsp .ra: .cfa 8 - ^
STACK CFI 84920 .cfa: $rsp 8 +
STACK CFI INIT 84930 7 .cfa: $rsp .ra: .cfa 8 - ^
STACK CFI 84930 .cfa: $rsp 8 +
STACK CFI INIT 84940 26 .cfa: $rsp .ra: .cfa 8 - ^
STACK CFI 84940 .cfa: $rsp 8 +
STACK CFI INIT 84970 e .cfa: $rsp .ra: .cfa 8 - ^
STACK CFI 84970 .cfa: $rsp 8 +
STACK CFI INIT 84980 17 .cfa: $rsp .ra: .cfa 8 - ^
STACK CFI 84980 .cfa: $rsp 48 +
STACK CFI INIT 849a0 76 .cfa: $rsp .ra: .cfa 8 - ^
STACK CFI 849a0 .cfa: $rsp 48 +
STACK CFI INIT 84a20 179 .cfa: $rsp .ra: .cfa 8 - ^
STACK CFI 84a20 .cfa: $rsp 192 +
STACK CFI INIT 84ba0 10f .cfa: $rsp .ra: .cfa 8 - ^
STACK CFI 84ba0 .cfa: $rsp 96 +
STACK CFI INIT 84cb0 15 .cfa: $rsp .ra: .cfa 8 - ^
STACK CFI 84cb0 .cfa: $rsp 8 +
STACK CFI INIT 84cd0 75 .cfa: $rsp .ra: .cfa 8 - ^
STACK CFI 84cd0 .cfa: $rsp 48 +
STACK CFI INIT 84d50 3a .cfa: $rsp .ra: .cfa 8 - ^
STACK CFI 84d50 .cfa: $rsp 8 +
STACK CFI INIT 84d90 5 .cfa: $rsp .ra: .cfa 8 - ^
STACK CFI 84d90 .cfa: $rsp 8 +
STACK CFI INIT 84da0 4 .cfa: $rsp .ra: .cfa 8 - ^
STACK CFI 84da0 .cfa: $rsp 8 +
STACK CFI INIT 84db0 70 .cfa: $rsp .ra: .cfa 8 - ^
STACK CFI 84db0 .cfa: $rsp 48 +
STACK CFI INIT 84e20 97 .cfa: $rsp .ra: .cfa 8 - ^
STACK CFI 84e20 .cfa: $rsp 48 +
STACK CFI INIT 84ec0 1bd .cfa: $rsp .ra: .cfa 8 - ^
STACK CFI 84ec0 .cfa: $rsp 96 +
STACK CFI INIT 85080 1d .cfa: $rsp .ra: .cfa 8 - ^
STACK CFI 85080 .cfa: $rsp 48 +
STACK CFI INIT 850a0 41 .cfa: $rsp .ra: .cfa 8 - ^
STACK CFI 850a0 .cfa: $rsp 80 +
STACK CFI INIT 850f0 76 .cfa: $rsp .ra: .cfa 8 - ^
STACK CFI 850f0 .cfa: $rsp 64 +
STACK CFI INIT 85170 7b .cfa: $rsp .ra: .cfa 8 - ^
STACK CFI 85170 .cfa: $rsp 96 +
STACK CFI INIT 851f0 111 .cfa: $rsp .ra: .cfa 8 - ^
STACK CFI 851f0 .cfa: $rsp 96 +
STACK CFI INIT 85310 17d .cfa: $rsp .ra: .cfa 8 - ^
STACK CFI 85310 .cfa: $rsp 96 +
STACK CFI INIT 85490 1df .cfa: $rsp .ra: .cfa 8 - ^
STACK CFI 85490 .cfa: $rsp 80 +
STACK CFI INIT 85670 72 .cfa: $rsp .ra: .cfa 8 - ^
STACK CFI 85670 .cfa: $rsp 48 +
STACK CFI INIT 856f0 544 .cfa: $rsp .ra: .cfa 8 - ^
STACK CFI 856f0 .cfa: $rsp 192 +
STACK CFI INIT 85c40 15 .cfa: $rsp .ra: .cfa 8 - ^
STACK CFI 85c40 .cfa: $rsp 8 +
STACK CFI INIT 85c60 61 .cfa: $rsp .ra: .cfa 8 - ^
STACK CFI 85c60 .cfa: $rsp 64 +
STACK CFI INIT 85cd0 8ca .cfa: $rsp .ra: .cfa 8 - ^
STACK CFI 85cd0 .cfa: $rsp 208 +
STACK CFI INIT 865a0 286 .cfa: $rsp .ra: .cfa 8 - ^
STACK CFI 865a0 .cfa: $rsp 112 +
STACK CFI INIT 86830 5a8 .cfa: $rsp .ra: .cfa 8 - ^
STACK CFI 86830 .cfa: $rsp 240 +
STACK CFI INIT 86de0 71 .cfa: $rsp .ra: .cfa 8 - ^
STACK CFI 86de0 .cfa: $rsp 64 +
STACK CFI INIT 86e60 599 .cfa: $rsp .ra: .cfa 8 - ^
STACK CFI 86e60 .cfa: $rsp 144 +
STACK CFI INIT 87400 15 .cfa: $rsp .ra: .cfa 8 - ^
STACK CFI 87400 .cfa: $rsp 8 +
STACK CFI INIT 87420 92 .cfa: $rsp .ra: .cfa 8 - ^
STACK CFI 87420 .cfa: $rsp 64 +
STACK CFI INIT 874c0 e3 .cfa: $rsp .ra: .cfa 8 - ^
STACK CFI 874c0 .cfa: $rsp 80 +
STACK CFI INIT 875b0 399 .cfa: $rsp .ra: .cfa 8 - ^
STACK CFI 875b0 .cfa: $rsp 208 +
STACK CFI INIT 87950 eff .cfa: $rsp .ra: .cfa 8 - ^
STACK CFI 87950 .cfa: $rsp 224 +
STACK CFI INIT 88850 286 .cfa: $rsp .ra: .cfa 8 - ^
STACK CFI 88850 .cfa: $rsp 96 +
STACK CFI INIT 88ae0 2f .cfa: $rsp .ra: .cfa 8 - ^
STACK CFI 88ae0 .cfa: $rsp 48 +
STACK CFI INIT 88b10 1f .cfa: $rsp .ra: .cfa 8 - ^
STACK CFI 88b10 .cfa: $rsp 48 +
STACK CFI INIT 88b30 b7 .cfa: $rsp .ra: .cfa 8 - ^
STACK CFI 88b30 .cfa: $rsp 96 +
STACK CFI INIT 88bf0 7a .cfa: $rsp .ra: .cfa 8 - ^
STACK CFI 88bf0 .cfa: $rsp 80 +
STACK CFI INIT 88c70 86 .cfa: $rsp .ra: .cfa 8 - ^
STACK CFI 88c70 .cfa: $rsp 64 +
STACK CFI INIT 88d00 4 .cfa: $rsp .ra: .cfa 8 - ^
STACK CFI 88d00 .cfa: $rsp 8 +
STACK CFI INIT 88d10 6a .cfa: $rsp .ra: .cfa 8 - ^
STACK CFI 88d10 .cfa: $rsp 64 +
STACK CFI INIT 88d80 40 .cfa: $rsp .ra: .cfa 8 - ^
STACK CFI 88d80 .cfa: $rsp 48 +
STACK CFI INIT 88dc0 4a .cfa: $rsp .ra: .cfa 8 - ^
STACK CFI 88dc0 .cfa: $rsp 48 +
STACK CFI INIT 88e10 1d .cfa: $rsp .ra: .cfa 8 - ^
STACK CFI 88e10 .cfa: $rsp 48 +
STACK CFI INIT 88e30 1d .cfa: $rsp .ra: .cfa 8 - ^
STACK CFI 88e30 .cfa: $rsp 48 +
STACK CFI INIT 88e50 26 .cfa: $rsp .ra: .cfa 8 - ^
STACK CFI 88e50 .cfa: $rsp 48 +
STACK CFI INIT 88e80 26 .cfa: $rsp .ra: .cfa 8 - ^
STACK CFI 88e80 .cfa: $rsp 48 +
STACK CFI INIT 88eb0 26 .cfa: $rsp .ra: .cfa 8 - ^
STACK CFI 88eb0 .cfa: $rsp 64 +
STACK CFI INIT 88ee0 26 .cfa: $rsp .ra: .cfa 8 - ^
STACK CFI 88ee0 .cfa: $rsp 64 +
STACK CFI INIT 88f10 7 .cfa: $rsp .ra: .cfa 8 - ^
STACK CFI 88f10 .cfa: $rsp 8 +
STACK CFI INIT 88f20 7 .cfa: $rsp .ra: .cfa 8 - ^
STACK CFI 88f20 .cfa: $rsp 8 +
STACK CFI INIT 88f30 7 .cfa: $rsp .ra: .cfa 8 - ^
STACK CFI 88f30 .cfa: $rsp 8 +
STACK CFI INIT 88f40 7 .cfa: $rsp .ra: .cfa 8 - ^
STACK CFI 88f40 .cfa: $rsp 8 +
STACK CFI INIT 88f50 26 .cfa: $rsp .ra: .cfa 8 - ^
STACK CFI 88f50 .cfa: $rsp 8 +
STACK CFI INIT 88f80 a .cfa: $rsp .ra: .cfa 8 - ^
STACK CFI 88f80 .cfa: $rsp 8 +
STACK CFI INIT 88f90 c9 .cfa: $rsp .ra: .cfa 8 - ^
STACK CFI 88f90 .cfa: $rsp 96 +
STACK CFI INIT 89060 61 .cfa: $rsp .ra: .cfa 8 - ^
STACK CFI 89060 .cfa: $rsp 48 +
STACK CFI INIT 890d0 5b .cfa: $rsp .ra: .cfa 8 - ^
STACK CFI 890d0 .cfa: $rsp 64 +
STACK CFI INIT 89130 6e .cfa: $rsp .ra: .cfa 8 - ^
STACK CFI 89130 .cfa: $rsp 80 +
STACK CFI INIT 891a0 8 .cfa: $rsp .ra: .cfa 8 - ^
STACK CFI 891a0 .cfa: $rsp 8 +
STACK CFI INIT 891b0 b5 .cfa: $rsp .ra: .cfa 8 - ^
STACK CFI 891b0 .cfa: $rsp 80 +
STACK CFI INIT 89270 41 .cfa: $rsp .ra: .cfa 8 - ^
STACK CFI 89270 .cfa: $rsp 64 +
STACK CFI INIT 892c0 50 .cfa: $rsp .ra: .cfa 8 - ^
STACK CFI 892c0 .cfa: $rsp 64 +
STACK CFI INIT 89310 46 .cfa: $rsp .ra: .cfa 8 - ^
STACK CFI 89310 .cfa: $rsp 64 +
STACK CFI INIT 89360 46 .cfa: $rsp .ra: .cfa 8 - ^
STACK CFI 89360 .cfa: $rsp 48 +
STACK CFI INIT 893b0 6f .cfa: $rsp .ra: .cfa 8 - ^
STACK CFI 893b0 .cfa: $rsp 64 +
STACK CFI INIT 89420 19 .cfa: $rsp .ra: .cfa 8 - ^
STACK CFI 89420 .cfa: $rsp 48 +
STACK CFI INIT 89440 8 .cfa: $rsp .ra: .cfa 8 - ^
STACK CFI 89440 .cfa: $rsp 8 +
STACK CFI INIT 89450 1d .cfa: $rsp .ra: .cfa 8 - ^
STACK CFI 89450 .cfa: $rsp 48 +
STACK CFI INIT 89470 9d .cfa: $rsp .ra: .cfa 8 - ^
STACK CFI 89470 .cfa: $rsp 96 +
STACK CFI INIT 89510 c .cfa: $rsp .ra: .cfa 8 - ^
STACK CFI 89510 .cfa: $rsp 8 +
STACK CFI INIT 89520 27 .cfa: $rsp .ra: .cfa 8 - ^
STACK CFI 89520 .cfa: $rsp 64 +
STACK CFI INIT 89550 1d .cfa: $rsp .ra: .cfa 8 - ^
STACK CFI 89550 .cfa: $rsp 48 +
STACK CFI INIT 89570 c .cfa: $rsp .ra: .cfa 8 - ^
STACK CFI 89570 .cfa: $rsp 8 +
STACK CFI INIT 89580 8 .cfa: $rsp .ra: .cfa 8 - ^
STACK CFI 89580 .cfa: $rsp 8 +
STACK CFI INIT 89590 10 .cfa: $rsp .ra: .cfa 8 - ^
STACK CFI 89590 .cfa: $rsp 8 +
STACK CFI INIT 895a0 76 .cfa: $rsp .ra: .cfa 8 - ^
STACK CFI 895a0 .cfa: $rsp 48 +
STACK CFI INIT 89620 e .cfa: $rsp .ra: .cfa 8 - ^
STACK CFI 89620 .cfa: $rsp 8 +
STACK CFI INIT 89630 35 .cfa: $rsp .ra: .cfa 8 - ^
STACK CFI 89630 .cfa: $rsp 8 +
STACK CFI INIT 89670 5b .cfa: $rsp .ra: .cfa 8 - ^
STACK CFI 89670 .cfa: $rsp 8 +
STACK CFI INIT 896d0 e .cfa: $rsp .ra: .cfa 8 - ^
STACK CFI 896d0 .cfa: $rsp 8 +
STACK CFI INIT 896e0 35 .cfa: $rsp .ra: .cfa 8 - ^
STACK CFI 896e0 .cfa: $rsp 8 +
STACK CFI INIT 89720 46 .cfa: $rsp .ra: .cfa 8 - ^
STACK CFI 89720 .cfa: $rsp 64 +
STACK CFI INIT 89770 2e .cfa: $rsp .ra: .cfa 8 - ^
STACK CFI 89770 .cfa: $rsp 48 +
STACK CFI INIT 897a0 116 .cfa: $rsp .ra: .cfa 8 - ^
STACK CFI 897a0 .cfa: $rsp 64 +
STACK CFI INIT 898c0 fa .cfa: $rsp .ra: .cfa 8 - ^
STACK CFI 898c0 .cfa: $rsp 64 +
STACK CFI INIT 899c0 fa .cfa: $rsp .ra: .cfa 8 - ^
STACK CFI 899c0 .cfa: $rsp 64 +
STACK CFI INIT 89ac0 143 .cfa: $rsp .ra: .cfa 8 - ^
STACK CFI 89ac0 .cfa: $rsp 112 +
STACK CFI INIT 89c10 143 .cfa: $rsp .ra: .cfa 8 - ^
STACK CFI 89c10 .cfa: $rsp 112 +
STACK CFI INIT 89d60 12a .cfa: $rsp .ra: .cfa 8 - ^
STACK CFI 89d60 .cfa: $rsp 64 +
STACK CFI INIT 89e90 35 .cfa: $rsp .ra: .cfa 8 - ^
STACK CFI 89e90 .cfa: $rsp 48 +
STACK CFI INIT 89ed0 1338 .cfa: $rsp .ra: .cfa 8 - ^
STACK CFI 89ed0 .cfa: $rsp 240 +
STACK CFI INIT 8b210 51c .cfa: $rsp .ra: .cfa 8 - ^
STACK CFI 8b210 .cfa: $rsp 160 +
STACK CFI INIT 8b730 da .cfa: $rsp .ra: .cfa 8 - ^
STACK CFI 8b730 .cfa: $rsp 112 +
STACK CFI INIT 8b810 1aa .cfa: $rsp .ra: .cfa 8 - ^
STACK CFI 8b810 .cfa: $rsp 80 +
STACK CFI INIT 8b9c0 8e .cfa: $rsp .ra: .cfa 8 - ^
STACK CFI 8b9c0 .cfa: $rsp 96 +
STACK CFI INIT 8ba50 1aa .cfa: $rsp .ra: .cfa 8 - ^
STACK CFI 8ba50 .cfa: $rsp 80 +
STACK CFI INIT 8bc00 287 .cfa: $rsp .ra: .cfa 8 - ^
STACK CFI 8bc00 .cfa: $rsp 128 +
STACK CFI INIT 8be90 1a3 .cfa: $rsp .ra: .cfa 8 - ^
STACK CFI 8be90 .cfa: $rsp 144 +
STACK CFI INIT 8c040 83 .cfa: $rsp .ra: .cfa 8 - ^
STACK CFI 8c040 .cfa: $rsp 80 +
STACK CFI INIT 8c0d0 32b .cfa: $rsp .ra: .cfa 8 - ^
STACK CFI 8c0d0 .cfa: $rsp 144 +
STACK CFI INIT 8c400 2c5 .cfa: $rsp .ra: .cfa 8 - ^
STACK CFI 8c400 .cfa: $rsp 112 +
STACK CFI INIT 8c6d0 729 .cfa: $rsp .ra: .cfa 8 - ^
STACK CFI 8c6d0 .cfa: $rsp 144 +
STACK CFI INIT 8ce00 10e .cfa: $rsp .ra: .cfa 8 - ^
STACK CFI 8ce00 .cfa: $rsp 48 +
STACK CFI INIT 8cf10 205 .cfa: $rsp .ra: .cfa 8 - ^
STACK CFI 8cf10 .cfa: $rsp 96 +
STACK CFI INIT 8d120 10 .cfa: $rsp .ra: .cfa 8 - ^
STACK CFI 8d120 .cfa: $rsp 8 +
STACK CFI INIT 8d130 2c6 .cfa: $rsp .ra: .cfa 8 - ^
STACK CFI 8d130 .cfa: $rsp 112 +
STACK CFI INIT 8d400 79 .cfa: $rsp .ra: .cfa 8 - ^
STACK CFI 8d400 .cfa: $rsp 64 +
STACK CFI INIT 8d480 2d6 .cfa: $rsp .ra: .cfa 8 - ^
STACK CFI 8d480 .cfa: $rsp 112 +
STACK CFI INIT 8d760 6a .cfa: $rsp .ra: .cfa 8 - ^
STACK CFI 8d760 .cfa: $rsp 64 +
STACK CFI INIT 8d7d0 e .cfa: $rsp .ra: .cfa 8 - ^
STACK CFI 8d7d0 .cfa: $rsp 8 +
STACK CFI INIT 8d7e0 2c .cfa: $rsp .ra: .cfa 8 - ^
STACK CFI 8d7e0 .cfa: $rsp 64 +
STACK CFI INIT 8d810 11 .cfa: $rsp .ra: .cfa 8 - ^
STACK CFI 8d810 .cfa: $rsp 8 +
STACK CFI INIT 8d830 14 .cfa: $rsp .ra: .cfa 8 - ^
STACK CFI 8d830 .cfa: $rsp 8 +
STACK CFI INIT 8d850 14 .cfa: $rsp .ra: .cfa 8 - ^
STACK CFI 8d850 .cfa: $rsp 8 +
STACK CFI INIT 8d870 28 .cfa: $rsp .ra: .cfa 8 - ^
STACK CFI 8d870 .cfa: $rsp 64 +
STACK CFI INIT 8d8a0 35 .cfa: $rsp .ra: .cfa 8 - ^
STACK CFI 8d8a0 .cfa: $rsp 8 +
STACK CFI INIT 8d8e0 28 .cfa: $rsp .ra: .cfa 8 - ^
STACK CFI 8d8e0 .cfa: $rsp 64 +
STACK CFI INIT 8d910 35 .cfa: $rsp .ra: .cfa 8 - ^
STACK CFI 8d910 .cfa: $rsp 8 +
STACK CFI INIT 8d950 28 .cfa: $rsp .ra: .cfa 8 - ^
STACK CFI 8d950 .cfa: $rsp 64 +
STACK CFI INIT 8d980 35 .cfa: $rsp .ra: .cfa 8 - ^
STACK CFI 8d980 .cfa: $rsp 8 +
STACK CFI INIT 8d9c0 1e .cfa: $rsp .ra: .cfa 8 - ^
STACK CFI 8d9c0 .cfa: $rsp 64 +
STACK CFI INIT 8d9e0 f .cfa: $rsp .ra: .cfa 8 - ^
STACK CFI 8d9e0 .cfa: $rsp 8 +
STACK CFI INIT 8d9f0 ec0 .cfa: $rsp .ra: .cfa 8 - ^
STACK CFI 8d9f0 .cfa: $rsp 160 +
STACK CFI INIT 8e8b0 93 .cfa: $rsp .ra: .cfa 8 - ^
STACK CFI 8e8b0 .cfa: $rsp 48 +
STACK CFI INIT 8e950 60 .cfa: $rsp .ra: .cfa 8 - ^
STACK CFI 8e950 .cfa: $rsp 64 +
STACK CFI INIT 8e9b0 45 .cfa: $rsp .ra: .cfa 8 - ^
STACK CFI 8e9b0 .cfa: $rsp 64 +
STACK CFI INIT 8ea00 72 .cfa: $rsp .ra: .cfa 8 - ^
STACK CFI 8ea00 .cfa: $rsp 80 +
STACK CFI INIT 8ea80 45 .cfa: $rsp .ra: .cfa 8 - ^
STACK CFI 8ea80 .cfa: $rsp 48 +
STACK CFI INIT 8ead0 61 .cfa: $rsp .ra: .cfa 8 - ^
STACK CFI 8ead0 .cfa: $rsp 64 +
STACK CFI INIT 8eb40 e4 .cfa: $rsp .ra: .cfa 8 - ^
STACK CFI 8eb40 .cfa: $rsp 64 +
STACK CFI INIT 8ec30 8 .cfa: $rsp .ra: .cfa 8 - ^
STACK CFI 8ec30 .cfa: $rsp 8 +
STACK CFI INIT 8ec40 42 .cfa: $rsp .ra: .cfa 8 - ^
STACK CFI 8ec40 .cfa: $rsp 64 +
STACK CFI INIT 8ec90 80 .cfa: $rsp .ra: .cfa 8 - ^
STACK CFI 8ec90 .cfa: $rsp 80 +
STACK CFI INIT 8ed10 57 .cfa: $rsp .ra: .cfa 8 - ^
STACK CFI 8ed10 .cfa: $rsp 80 +
STACK CFI INIT 8ed70 5e .cfa: $rsp .ra: .cfa 8 - ^
STACK CFI 8ed70 .cfa: $rsp 80 +
STACK CFI INIT 8edd0 99 .cfa: $rsp .ra: .cfa 8 - ^
STACK CFI 8edd0 .cfa: $rsp 80 +
STACK CFI INIT 8ee70 73 .cfa: $rsp .ra: .cfa 8 - ^
STACK CFI 8ee70 .cfa: $rsp 80 +
STACK CFI INIT 8eef0 10 .cfa: $rsp .ra: .cfa 8 - ^
STACK CFI 8eef0 .cfa: $rsp 8 +
STACK CFI INIT 8ef00 46 .cfa: $rsp .ra: .cfa 8 - ^
STACK CFI 8ef00 .cfa: $rsp 48 +
STACK CFI INIT 8ef50 70 .cfa: $rsp .ra: .cfa 8 - ^
STACK CFI 8ef50 .cfa: $rsp 48 +
STACK CFI INIT 8efc0 46 .cfa: $rsp .ra: .cfa 8 - ^
STACK CFI 8efc0 .cfa: $rsp 8 +
STACK CFI INIT 8f010 e .cfa: $rsp .ra: .cfa 8 - ^
STACK CFI 8f010 .cfa: $rsp 8 +
STACK CFI INIT 8f020 1d .cfa: $rsp .ra: .cfa 8 - ^
STACK CFI 8f020 .cfa: $rsp 64 +
STACK CFI INIT 8f040 26 .cfa: $rsp .ra: .cfa 8 - ^
STACK CFI 8f040 .cfa: $rsp 8 +
STACK CFI INIT 8f070 26 .cfa: $rsp .ra: .cfa 8 - ^
STACK CFI 8f070 .cfa: $rsp 64 +
STACK CFI INIT 8f0a0 43 .cfa: $rsp .ra: .cfa 8 - ^
STACK CFI 8f0a0 .cfa: $rsp 48 +
STACK CFI INIT 8f0f0 2e .cfa: $rsp .ra: .cfa 8 - ^
STACK CFI 8f0f0 .cfa: $rsp 64 +
STACK CFI INIT 8f120 12 .cfa: $rsp .ra: .cfa 8 - ^
STACK CFI 8f120 .cfa: $rsp 8 +
STACK CFI INIT 8f140 1d .cfa: $rsp .ra: .cfa 8 - ^
STACK CFI 8f140 .cfa: $rsp 64 +
STACK CFI INIT 8f160 36 .cfa: $rsp .ra: .cfa 8 - ^
STACK CFI 8f160 .cfa: $rsp 48 +
STACK CFI INIT 8f1a0 28 .cfa: $rsp .ra: .cfa 8 - ^
STACK CFI 8f1a0 .cfa: $rsp 64 +
STACK CFI INIT 8f1d0 32 .cfa: $rsp .ra: .cfa 8 - ^
STACK CFI 8f1d0 .cfa: $rsp 48 +
STACK CFI INIT 8f210 28 .cfa: $rsp .ra: .cfa 8 - ^
STACK CFI 8f210 .cfa: $rsp 64 +
STACK CFI INIT 8f240 30 .cfa: $rsp .ra: .cfa 8 - ^
STACK CFI 8f240 .cfa: $rsp 48 +
STACK CFI INIT 8f270 26 .cfa: $rsp .ra: .cfa 8 - ^
STACK CFI 8f270 .cfa: $rsp 64 +
STACK CFI INIT 8f2a0 b .cfa: $rsp .ra: .cfa 8 - ^
STACK CFI 8f2a0 .cfa: $rsp 8 +
STACK CFI INIT 8f2b0 1 .cfa: $rsp .ra: .cfa 8 - ^
STACK CFI 8f2b0 .cfa: $rsp 8 +
STACK CFI INIT 8f2c0 a .cfa: $rsp .ra: .cfa 8 - ^
STACK CFI 8f2c0 .cfa: $rsp 8 +
STACK CFI INIT 8f2d0 222 .cfa: $rsp .ra: .cfa 8 - ^
STACK CFI 8f2d0 .cfa: $rsp 48 +
STACK CFI INIT 8f500 5ff .cfa: $rsp .ra: .cfa 8 - ^
STACK CFI 8f500 .cfa: $rsp 112 +
STACK CFI INIT 8fb00 646 .cfa: $rsp .ra: .cfa 8 - ^
STACK CFI 8fb00 .cfa: $rsp 112 +
STACK CFI INIT 90150 756 .cfa: $rsp .ra: .cfa 8 - ^
STACK CFI 90150 .cfa: $rsp 224 +
STACK CFI INIT 908b0 8fc .cfa: $rsp .ra: .cfa 8 - ^
STACK CFI 908b0 .cfa: $rsp 176 +
STACK CFI INIT 911b0 ca7 .cfa: $rsp .ra: .cfa 8 - ^
STACK CFI 911b0 .cfa: $rsp 240 +
STACK CFI INIT 91e60 394 .cfa: $rsp .ra: .cfa 8 - ^
STACK CFI 91e60 .cfa: $rsp 80 +
STACK CFI INIT 92200 676 .cfa: $rsp .ra: .cfa 8 - ^
STACK CFI 92200 .cfa: $rsp 192 +
STACK CFI INIT 92880 88 .cfa: $rsp .ra: .cfa 8 - ^
STACK CFI 92880 .cfa: $rsp 80 +
STACK CFI INIT 92910 88 .cfa: $rsp .ra: .cfa 8 - ^
STACK CFI 92910 .cfa: $rsp 64 +
STACK CFI INIT 929a0 88 .cfa: $rsp .ra: .cfa 8 - ^
STACK CFI 929a0 .cfa: $rsp 80 +
STACK CFI INIT 92a30 8b .cfa: $rsp .ra: .cfa 8 - ^
STACK CFI 92a30 .cfa: $rsp 64 +
STACK CFI INIT 92ac0 88 .cfa: $rsp .ra: .cfa 8 - ^
STACK CFI 92ac0 .cfa: $rsp 80 +
STACK CFI INIT 92b50 88 .cfa: $rsp .ra: .cfa 8 - ^
STACK CFI 92b50 .cfa: $rsp 80 +
STACK CFI INIT 92be0 88 .cfa: $rsp .ra: .cfa 8 - ^
STACK CFI 92be0 .cfa: $rsp 80 +
STACK CFI INIT 92c70 e7 .cfa: $rsp .ra: .cfa 8 - ^
STACK CFI 92c70 .cfa: $rsp 64 +
STACK CFI INIT 92d60 1f .cfa: $rsp .ra: .cfa 8 - ^
STACK CFI 92d60 .cfa: $rsp 48 +
STACK CFI INIT 92d80 94 .cfa: $rsp .ra: .cfa 8 - ^
STACK CFI 92d80 .cfa: $rsp 80 +
STACK CFI INIT 92e20 86 .cfa: $rsp .ra: .cfa 8 - ^
STACK CFI 92e20 .cfa: $rsp 80 +
STACK CFI INIT 92eb0 86 .cfa: $rsp .ra: .cfa 8 - ^
STACK CFI 92eb0 .cfa: $rsp 80 +
STACK CFI INIT 92f40 94 .cfa: $rsp .ra: .cfa 8 - ^
STACK CFI 92f40 .cfa: $rsp 96 +
STACK CFI INIT 92fe0 13 .cfa: $rsp .ra: .cfa 8 - ^
STACK CFI 92fe0 .cfa: $rsp 8 +
STACK CFI INIT 93000 125 .cfa: $rsp .ra: .cfa 8 - ^
STACK CFI 93000 .cfa: $rsp 96 +
STACK CFI INIT 93130 16d .cfa: $rsp .ra: .cfa 8 - ^
STACK CFI 93130 .cfa: $rsp 128 +
STACK CFI INIT 932a0 236 .cfa: $rsp .ra: .cfa 8 - ^
STACK CFI 932a0 .cfa: $rsp 160 +
STACK CFI INIT 934e0 94 .cfa: $rsp .ra: .cfa 8 - ^
STACK CFI 934e0 .cfa: $rsp 96 +
STACK CFI INIT 93580 21a .cfa: $rsp .ra: .cfa 8 - ^
STACK CFI 93580 .cfa: $rsp 96 +
STACK CFI INIT 937a0 35 .cfa: $rsp .ra: .cfa 8 - ^
STACK CFI 937a0 .cfa: $rsp 8 +
STACK CFI INIT 937e0 13 .cfa: $rsp .ra: .cfa 8 - ^
STACK CFI 937e0 .cfa: $rsp 8 +
STACK CFI INIT 93800 35 .cfa: $rsp .ra: .cfa 8 - ^
STACK CFI 93800 .cfa: $rsp 8 +
STACK CFI INIT 93840 35 .cfa: $rsp .ra: .cfa 8 - ^
STACK CFI 93840 .cfa: $rsp 8 +
STACK CFI INIT 93880 13 .cfa: $rsp .ra: .cfa 8 - ^
STACK CFI 93880 .cfa: $rsp 8 +
STACK CFI INIT 938a0 33 .cfa: $rsp .ra: .cfa 8 - ^
STACK CFI 938a0 .cfa: $rsp 48 +
STACK CFI INIT 938e0 33 .cfa: $rsp .ra: .cfa 8 - ^
STACK CFI 938e0 .cfa: $rsp 48 +
STACK CFI INIT 93920 13 .cfa: $rsp .ra: .cfa 8 - ^
STACK CFI 93920 .cfa: $rsp 8 +
STACK CFI INIT 93940 13 .cfa: $rsp .ra: .cfa 8 - ^
STACK CFI 93940 .cfa: $rsp 8 +
STACK CFI INIT 93960 13 .cfa: $rsp .ra: .cfa 8 - ^
STACK CFI 93960 .cfa: $rsp 8 +
STACK CFI INIT 93980 13 .cfa: $rsp .ra: .cfa 8 - ^
STACK CFI 93980 .cfa: $rsp 8 +
STACK CFI INIT 939a0 13 .cfa: $rsp .ra: .cfa 8 - ^
STACK CFI 939a0 .cfa: $rsp 8 +
STACK CFI INIT 939c0 13 .cfa: $rsp .ra: .cfa 8 - ^
STACK CFI 939c0 .cfa: $rsp 8 +
STACK CFI INIT 939e0 1e9 .cfa: $rsp .ra: .cfa 8 - ^
STACK CFI 939e0 .cfa: $rsp 96 +
STACK CFI INIT 93bd0 11 .cfa: $rsp .ra: .cfa 8 - ^
STACK CFI 93bd0 .cfa: $rsp 48 +
STACK CFI INIT 93bf0 1e9 .cfa: $rsp .ra: .cfa 8 - ^
STACK CFI 93bf0 .cfa: $rsp 96 +
STACK CFI INIT 93de0 d6 .cfa: $rsp .ra: .cfa 8 - ^
STACK CFI 93de0 .cfa: $rsp 64 +
STACK CFI INIT 93ec0 9 .cfa: $rsp .ra: .cfa 8 - ^
STACK CFI 93ec0 .cfa: $rsp 8 +
STACK CFI INIT 93ed0 1b .cfa: $rsp .ra: .cfa 8 - ^
STACK CFI 93ed0 .cfa: $rsp 8 +
STACK CFI INIT 93ef0 5c .cfa: $rsp .ra: .cfa 8 - ^
STACK CFI 93ef0 .cfa: $rsp 80 +
STACK CFI INIT 93f50 16b .cfa: $rsp .ra: .cfa 8 - ^
STACK CFI 93f50 .cfa: $rsp 112 +
STACK CFI INIT 940c0 c57 .cfa: $rsp .ra: .cfa 8 - ^
STACK CFI 940c0 .cfa: $rsp 1280 +
STACK CFI INIT 94d20 83 .cfa: $rsp .ra: .cfa 8 - ^
STACK CFI 94d20 .cfa: $rsp 80 +
STACK CFI INIT 94db0 12ba .cfa: $rsp .ra: .cfa 8 - ^
STACK CFI 94db0 .cfa: $rsp 256 +
STACK CFI INIT 96070 77 .cfa: $rsp .ra: .cfa 8 - ^
STACK CFI 96070 .cfa: $rsp 64 +
STACK CFI INIT 960f0 67 .cfa: $rsp .ra: .cfa 8 - ^
STACK CFI 960f0 .cfa: $rsp 64 +
STACK CFI INIT 96160 97 .cfa: $rsp .ra: .cfa 8 - ^
STACK CFI 96160 .cfa: $rsp 624 +
STACK CFI INIT 96200 15a .cfa: $rsp .ra: .cfa 8 - ^
STACK CFI 96200 .cfa: $rsp 720 +
STACK CFI INIT 96360 a3b .cfa: $rsp .ra: .cfa 8 - ^
STACK CFI 96360 .cfa: $rsp 2160 +
STACK CFI INIT 96da0 29 .cfa: $rsp .ra: .cfa 8 - ^
STACK CFI 96da0 .cfa: $rsp 48 +
STACK CFI INIT 96dd0 45 .cfa: $rsp .ra: .cfa 8 - ^
STACK CFI 96dd0 .cfa: $rsp 64 +
STACK CFI INIT 96e20 83 .cfa: $rsp .ra: .cfa 8 - ^
STACK CFI 96e20 .cfa: $rsp 80 +
STACK CFI INIT 96eb0 31b .cfa: $rsp .ra: .cfa 8 - ^
STACK CFI 96eb0 .cfa: $rsp 240 +
STACK CFI INIT 971d0 153 .cfa: $rsp .ra: .cfa 8 - ^
STACK CFI 971d0 .cfa: $rsp 128 +
STACK CFI INIT 97330 143 .cfa: $rsp .ra: .cfa 8 - ^
STACK CFI 97330 .cfa: $rsp 112 +
STACK CFI INIT 97480 187 .cfa: $rsp .ra: .cfa 8 - ^
STACK CFI 97480 .cfa: $rsp 112 +
STACK CFI INIT 97610 1150 .cfa: $rsp .ra: .cfa 8 - ^
STACK CFI 97610 .cfa: $rsp 320 +
STACK CFI INIT 98760 189 .cfa: $rsp .ra: .cfa 8 - ^
STACK CFI 98760 .cfa: $rsp 80 +
STACK CFI INIT 988f0 2f .cfa: $rsp .ra: .cfa 8 - ^
STACK CFI 988f0 .cfa: $rsp 48 +
STACK CFI INIT 98920 1306 .cfa: $rsp .ra: .cfa 8 - ^
STACK CFI 98920 .cfa: $rsp 1440 +
STACK CFI INIT 99c30 83b .cfa: $rsp .ra: .cfa 8 - ^
STACK CFI 99c30 .cfa: $rsp 224 +
STACK CFI INIT 9a470 67 .cfa: $rsp .ra: .cfa 8 - ^
STACK CFI 9a470 .cfa: $rsp 48 +
STACK CFI INIT 9a4e0 9f .cfa: $rsp .ra: .cfa 8 - ^
STACK CFI 9a4e0 .cfa: $rsp 48 +
STACK CFI INIT 9a580 47 .cfa: $rsp .ra: .cfa 8 - ^
STACK CFI 9a580 .cfa: $rsp 64 +
STACK CFI INIT 9a5d0 22 .cfa: $rsp .ra: .cfa 8 - ^
STACK CFI 9a5d0 .cfa: $rsp 48 +
STACK CFI INIT 9a600 284 .cfa: $rsp .ra: .cfa 8 - ^
STACK CFI 9a600 .cfa: $rsp 112 +
STACK CFI INIT 9a890 234 .cfa: $rsp .ra: .cfa 8 - ^
STACK CFI 9a890 .cfa: $rsp 112 +
STACK CFI INIT 9aad0 8 .cfa: $rsp .ra: .cfa 8 - ^
STACK CFI 9aad0 .cfa: $rsp 8 +
STACK CFI INIT 9aae0 26 .cfa: $rsp .ra: .cfa 8 - ^
STACK CFI 9aae0 .cfa: $rsp 8 +
STACK CFI INIT 9ab10 15 .cfa: $rsp .ra: .cfa 8 - ^
STACK CFI 9ab10 .cfa: $rsp 8 +
STACK CFI INIT 9ab30 c .cfa: $rsp .ra: .cfa 8 - ^
STACK CFI 9ab30 .cfa: $rsp 8 +
STACK CFI INIT 9ab40 21 .cfa: $rsp .ra: .cfa 8 - ^
STACK CFI 9ab40 .cfa: $rsp 8 +
STACK CFI INIT 9ab70 21 .cfa: $rsp .ra: .cfa 8 - ^
STACK CFI 9ab70 .cfa: $rsp 8 +
STACK CFI INIT 9aba0 21 .cfa: $rsp .ra: .cfa 8 - ^
STACK CFI 9aba0 .cfa: $rsp 8 +
STACK CFI INIT 9abd0 21 .cfa: $rsp .ra: .cfa 8 - ^
STACK CFI 9abd0 .cfa: $rsp 8 +
STACK CFI INIT 9ac00 21 .cfa: $rsp .ra: .cfa 8 - ^
STACK CFI 9ac00 .cfa: $rsp 8 +
STACK CFI INIT 9ac30 21 .cfa: $rsp .ra: .cfa 8 - ^
STACK CFI 9ac30 .cfa: $rsp 8 +
STACK CFI INIT 9ac60 b .cfa: $rsp .ra: .cfa 8 - ^
STACK CFI 9ac60 .cfa: $rsp 8 +
STACK CFI INIT 9ac70 b .cfa: $rsp .ra: .cfa 8 - ^
STACK CFI 9ac70 .cfa: $rsp 8 +
STACK CFI INIT 9ac80 b .cfa: $rsp .ra: .cfa 8 - ^
STACK CFI 9ac80 .cfa: $rsp 8 +
STACK CFI INIT 9ac90 b .cfa: $rsp .ra: .cfa 8 - ^
STACK CFI 9ac90 .cfa: $rsp 8 +
STACK CFI INIT 9aca0 b .cfa: $rsp .ra: .cfa 8 - ^
STACK CFI 9aca0 .cfa: $rsp 8 +
STACK CFI INIT 9acb0 b .cfa: $rsp .ra: .cfa 8 - ^
STACK CFI 9acb0 .cfa: $rsp 8 +
STACK CFI INIT 9acc0 21 .cfa: $rsp .ra: .cfa 8 - ^
STACK CFI 9acc0 .cfa: $rsp 48 +
STACK CFI INIT 9acf0 10 .cfa: $rsp .ra: .cfa 8 - ^
STACK CFI 9acf0 .cfa: $rsp 8 +
STACK CFI INIT 9ad00 c .cfa: $rsp .ra: .cfa 8 - ^
STACK CFI 9ad00 .cfa: $rsp 8 +
STACK CFI INIT 9ad10 c .cfa: $rsp .ra: .cfa 8 - ^
STACK CFI 9ad10 .cfa: $rsp 8 +
STACK CFI INIT 9ad20 21 .cfa: $rsp .ra: .cfa 8 - ^
STACK CFI 9ad20 .cfa: $rsp 48 +
STACK CFI INIT 9ad50 10 .cfa: $rsp .ra: .cfa 8 - ^
STACK CFI 9ad50 .cfa: $rsp 8 +
STACK CFI INIT 9ad60 c .cfa: $rsp .ra: .cfa 8 - ^
STACK CFI 9ad60 .cfa: $rsp 8 +
STACK CFI INIT 9ad70 c .cfa: $rsp .ra: .cfa 8 - ^
STACK CFI 9ad70 .cfa: $rsp 8 +
STACK CFI INIT 9ad80 b .cfa: $rsp .ra: .cfa 8 - ^
STACK CFI 9ad80 .cfa: $rsp 8 +
STACK CFI INIT 9ad90 b .cfa: $rsp .ra: .cfa 8 - ^
STACK CFI 9ad90 .cfa: $rsp 8 +
STACK CFI INIT 9ada0 1e6 .cfa: $rsp .ra: .cfa 8 - ^
STACK CFI 9ada0 .cfa: $rsp 80 +
STACK CFI INIT 9af90 1f .cfa: $rsp .ra: .cfa 8 - ^
STACK CFI 9af90 .cfa: $rsp 48 +
STACK CFI INIT 9afb0 213 .cfa: $rsp .ra: .cfa 8 - ^
STACK CFI 9afb0 .cfa: $rsp 64 +
STACK CFI INIT 9b1d0 1 .cfa: $rsp .ra: .cfa 8 - ^
STACK CFI 9b1d0 .cfa: $rsp 8 +
STACK CFI INIT 9b1e0 c .cfa: $rsp .ra: .cfa 8 - ^
STACK CFI 9b1e0 .cfa: $rsp 8 +
STACK CFI INIT 9b1f0 6 .cfa: $rsp .ra: .cfa 8 - ^
STACK CFI 9b1f0 .cfa: $rsp 8 +
STACK CFI INIT 9b200 67 .cfa: $rsp .ra: .cfa 8 - ^
STACK CFI 9b200 .cfa: $rsp 8 +
STACK CFI INIT 9b270 37 .cfa: $rsp .ra: .cfa 8 - ^
STACK CFI 9b270 .cfa: $rsp 64 +
STACK CFI INIT 9b2b0 18c .cfa: $rsp .ra: .cfa 8 - ^
STACK CFI 9b2b0 .cfa: $rsp 64 +
STACK CFI INIT 9b440 e0 .cfa: $rsp .ra: .cfa 8 - ^
STACK CFI 9b440 .cfa: $rsp 48 +
STACK CFI INIT 9b520 1a .cfa: $rsp .ra: .cfa 8 - ^
STACK CFI 9b520 .cfa: $rsp 8 +
STACK CFI INIT 9b540 14 .cfa: $rsp .ra: .cfa 8 - ^
STACK CFI 9b540 .cfa: $rsp 8 +
STACK CFI INIT 9b560 17 .cfa: $rsp .ra: .cfa 8 - ^
STACK CFI 9b560 .cfa: $rsp 8 +
STACK CFI INIT 9b580 17 .cfa: $rsp .ra: .cfa 8 - ^
STACK CFI 9b580 .cfa: $rsp 8 +
STACK CFI INIT 9b5a0 39 .cfa: $rsp .ra: .cfa 8 - ^
STACK CFI 9b5a0 .cfa: $rsp 64 +
STACK CFI INIT 9b5e0 39 .cfa: $rsp .ra: .cfa 8 - ^
STACK CFI 9b5e0 .cfa: $rsp 64 +
STACK CFI INIT 9b620 3f .cfa: $rsp .ra: .cfa 8 - ^
STACK CFI 9b620 .cfa: $rsp 80 +
STACK CFI INIT 9b660 5c .cfa: $rsp .ra: .cfa 8 - ^
STACK CFI 9b660 .cfa: $rsp 80 +
STACK CFI INIT 9b6c0 45 .cfa: $rsp .ra: .cfa 8 - ^
STACK CFI 9b6c0 .cfa: $rsp 64 +
STACK CFI INIT 9b710 1bd .cfa: $rsp .ra: .cfa 8 - ^
STACK CFI 9b710 .cfa: $rsp 96 +
STACK CFI INIT 9b8d0 8d .cfa: $rsp .ra: .cfa 8 - ^
STACK CFI 9b8d0 .cfa: $rsp 112 +
STACK CFI INIT 9b960 10a .cfa: $rsp .ra: .cfa 8 - ^
STACK CFI 9b960 .cfa: $rsp 64 +
STACK CFI INIT 9ba70 86 .cfa: $rsp .ra: .cfa 8 - ^
STACK CFI 9ba70 .cfa: $rsp 48 +
STACK CFI INIT 9bb00 148 .cfa: $rsp .ra: .cfa 8 - ^
STACK CFI 9bb00 .cfa: $rsp 80 +
STACK CFI INIT 9bc50 28d .cfa: $rsp .ra: .cfa 8 - ^
STACK CFI 9bc50 .cfa: $rsp 112 +
STACK CFI INIT 9bee0 39d .cfa: $rsp .ra: .cfa 8 - ^
STACK CFI 9bee0 .cfa: $rsp 176 +
STACK CFI INIT 9c280 1fa .cfa: $rsp .ra: .cfa 8 - ^
STACK CFI 9c280 .cfa: $rsp 112 +
STACK CFI INIT 9c480 7 .cfa: $rsp .ra: .cfa 8 - ^
STACK CFI 9c480 .cfa: $rsp 8 +
STACK CFI INIT 9c490 5f .cfa: $rsp .ra: .cfa 8 - ^
STACK CFI 9c490 .cfa: $rsp 80 +
STACK CFI INIT 9c4f0 59 .cfa: $rsp .ra: .cfa 8 - ^
STACK CFI 9c4f0 .cfa: $rsp 80 +
STACK CFI INIT 9c550 2b2 .cfa: $rsp .ra: .cfa 8 - ^
STACK CFI 9c550 .cfa: $rsp 112 +
STACK CFI INIT 9c810 220 .cfa: $rsp .ra: .cfa 8 - ^
STACK CFI 9c810 .cfa: $rsp 96 +
STACK CFI INIT 9ca30 1d6 .cfa: $rsp .ra: .cfa 8 - ^
STACK CFI 9ca30 .cfa: $rsp 128 +
STACK CFI INIT 9cc10 97 .cfa: $rsp .ra: .cfa 8 - ^
STACK CFI 9cc10 .cfa: $rsp 64 +
STACK CFI INIT 9ccb0 6b .cfa: $rsp .ra: .cfa 8 - ^
STACK CFI 9ccb0 .cfa: $rsp 64 +
STACK CFI INIT 9cd20 2 .cfa: $rsp .ra: .cfa 8 - ^
STACK CFI 9cd20 .cfa: $rsp 8 +
STACK CFI INIT 9cd30 c .cfa: $rsp .ra: .cfa 8 - ^
STACK CFI 9cd30 .cfa: $rsp 8 +
STACK CFI INIT 9cd40 14 .cfa: $rsp .ra: .cfa 8 - ^
STACK CFI 9cd40 .cfa: $rsp 8 +
STACK CFI INIT 9cd60 59 .cfa: $rsp .ra: .cfa 8 - ^
STACK CFI 9cd60 .cfa: $rsp 96 +
STACK CFI INIT 9cdc0 1f6 .cfa: $rsp .ra: .cfa 8 - ^
STACK CFI 9cdc0 .cfa: $rsp 4176 +
STACK CFI INIT 9cfc0 102 .cfa: $rsp .ra: .cfa 8 - ^
STACK CFI 9cfc0 .cfa: $rsp 80 +
STACK CFI INIT 9d0d0 28c .cfa: $rsp .ra: .cfa 8 - ^
STACK CFI 9d0d0 .cfa: $rsp 336 +
STACK CFI INIT 9d360 207 .cfa: $rsp .ra: .cfa 8 - ^
STACK CFI 9d360 .cfa: $rsp 192 +
STACK CFI INIT 9d570 279 .cfa: $rsp .ra: .cfa 8 - ^
STACK CFI 9d570 .cfa: $rsp 208 +
STACK CFI INIT 9d7f0 204 .cfa: $rsp .ra: .cfa 8 - ^
STACK CFI 9d7f0 .cfa: $rsp 192 +
STACK CFI INIT 9da00 32 .cfa: $rsp .ra: .cfa 8 - ^
STACK CFI 9da00 .cfa: $rsp 64 +
STACK CFI INIT 9da40 51 .cfa: $rsp .ra: .cfa 8 - ^
STACK CFI 9da40 .cfa: $rsp 80 +
STACK CFI INIT 9daa0 b .cfa: $rsp .ra: .cfa 8 - ^
STACK CFI 9daa0 .cfa: $rsp 8 +
STACK CFI INIT 9dab0 b .cfa: $rsp .ra: .cfa 8 - ^
STACK CFI 9dab0 .cfa: $rsp 8 +
STACK CFI INIT 9dac0 12 .cfa: $rsp .ra: .cfa 8 - ^
STACK CFI 9dac0 .cfa: $rsp 8 +
STACK CFI INIT 9dae0 4b .cfa: $rsp .ra: .cfa 8 - ^
STACK CFI 9dae0 .cfa: $rsp 96 +
STACK CFI INIT 9db30 27 .cfa: $rsp .ra: .cfa 8 - ^
STACK CFI 9db30 .cfa: $rsp 8 +
STACK CFI INIT 9db60 c .cfa: $rsp .ra: .cfa 8 - ^
STACK CFI 9db60 .cfa: $rsp 8 +
STACK CFI INIT 9db70 21 .cfa: $rsp .ra: .cfa 8 - ^
STACK CFI 9db70 .cfa: $rsp 48 +
STACK CFI INIT 9dba0 c .cfa: $rsp .ra: .cfa 8 - ^
STACK CFI 9dba0 .cfa: $rsp 8 +
STACK CFI INIT 9dbb0 21 .cfa: $rsp .ra: .cfa 8 - ^
STACK CFI 9dbb0 .cfa: $rsp 48 +
STACK CFI INIT 9dbe0 35 .cfa: $rsp .ra: .cfa 8 - ^
STACK CFI 9dbe0 .cfa: $rsp 8 +
STACK CFI INIT 9dc20 6e .cfa: $rsp .ra: .cfa 8 - ^
STACK CFI 9dc20 .cfa: $rsp 64 +
STACK CFI INIT 9dc90 44 .cfa: $rsp .ra: .cfa 8 - ^
STACK CFI 9dc90 .cfa: $rsp 48 +
STACK CFI INIT 9dce0 1f .cfa: $rsp .ra: .cfa 8 - ^
STACK CFI 9dce0 .cfa: $rsp 48 +
STACK CFI INIT 9dd00 263 .cfa: $rsp .ra: .cfa 8 - ^
STACK CFI 9dd00 .cfa: $rsp 80 +
STACK CFI INIT 9df70 b .cfa: $rsp .ra: .cfa 8 - ^
STACK CFI 9df70 .cfa: $rsp 8 +
STACK CFI INIT 9df80 c .cfa: $rsp .ra: .cfa 8 - ^
STACK CFI 9df80 .cfa: $rsp 8 +
STACK CFI INIT 9df90 10 .cfa: $rsp .ra: .cfa 8 - ^
STACK CFI 9df90 .cfa: $rsp 8 +
STACK CFI INIT 9dfa0 c .cfa: $rsp .ra: .cfa 8 - ^
STACK CFI 9dfa0 .cfa: $rsp 8 +
STACK CFI INIT 9dfb0 10 .cfa: $rsp .ra: .cfa 8 - ^
STACK CFI 9dfb0 .cfa: $rsp 8 +
STACK CFI INIT 9dfc0 12 .cfa: $rsp .ra: .cfa 8 - ^
STACK CFI 9dfc0 .cfa: $rsp 8 +
STACK CFI INIT 9dfe0 c .cfa: $rsp .ra: .cfa 8 - ^
STACK CFI 9dfe0 .cfa: $rsp 8 +
STACK CFI INIT 9dff0 b .cfa: $rsp .ra: .cfa 8 - ^
STACK CFI 9dff0 .cfa: $rsp 8 +
STACK CFI INIT 9e000 b .cfa: $rsp .ra: .cfa 8 - ^
STACK CFI 9e000 .cfa: $rsp 8 +
STACK CFI INIT 9e010 b .cfa: $rsp .ra: .cfa 8 - ^
STACK CFI 9e010 .cfa: $rsp 8 +
STACK CFI INIT 9e020 b .cfa: $rsp .ra: .cfa 8 - ^
STACK CFI 9e020 .cfa: $rsp 8 +
STACK CFI INIT 9e030 b .cfa: $rsp .ra: .cfa 8 - ^
STACK CFI 9e030 .cfa: $rsp 8 +
STACK CFI INIT 9e040 10 .cfa: $rsp .ra: .cfa 8 - ^
STACK CFI 9e040 .cfa: $rsp 8 +
STACK CFI INIT 9e050 21 .cfa: $rsp .ra: .cfa 8 - ^
STACK CFI 9e050 .cfa: $rsp 48 +
STACK CFI INIT 9e080 410 .cfa: $rsp .ra: .cfa 8 - ^
STACK CFI 9e080 .cfa: $rsp 112 +
STACK CFI INIT 9e490 22d .cfa: $rsp .ra: .cfa 8 - ^
STACK CFI 9e490 .cfa: $rsp 112 +
STACK CFI INIT 9e6c0 e7 .cfa: $rsp .ra: .cfa 8 - ^
STACK CFI 9e6c0 .cfa: $rsp 48 +
STACK CFI INIT 9e7c0 1f .cfa: $rsp .ra: .cfa 8 - ^
STACK CFI 9e7c0 .cfa: $rsp 48 +
STACK CFI INIT 9e7f0 24c .cfa: $rsp .ra: .cfa 8 - ^
STACK CFI 9e7f0 .cfa: $rsp 144 +
STACK CFI INIT 9ea40 2ed .cfa: $rsp .ra: .cfa 8 - ^
STACK CFI 9ea40 .cfa: $rsp 144 +
STACK CFI INIT 9ed30 6e7 .cfa: $rsp .ra: .cfa 8 - ^
STACK CFI 9ed30 .cfa: $rsp 160 +
STACK CFI INIT 9f420 2e2 .cfa: $rsp .ra: .cfa 8 - ^
STACK CFI 9f420 .cfa: $rsp 160 +
STACK CFI INIT 9f710 48a .cfa: $rsp .ra: .cfa 8 - ^
STACK CFI 9f710 .cfa: $rsp 176 +
STACK CFI INIT 9fba0 ab .cfa: $rsp .ra: .cfa 8 - ^
STACK CFI 9fba0 .cfa: $rsp 48 +
STACK CFI INIT 9fc50 15 .cfa: $rsp .ra: .cfa 8 - ^
STACK CFI 9fc50 .cfa: $rsp 8 +
STACK CFI INIT 9fc80 156 .cfa: $rsp .ra: .cfa 8 - ^
STACK CFI 9fc80 .cfa: $rsp 128 +
STACK CFI INIT 9fde0 408 .cfa: $rsp .ra: .cfa 8 - ^
STACK CFI 9fde0 .cfa: $rsp 144 +
STACK CFI INIT a01f0 760 .cfa: $rsp .ra: .cfa 8 - ^
STACK CFI a01f0 .cfa: $rsp 208 +
STACK CFI INIT a0950 7 .cfa: $rsp .ra: .cfa 8 - ^
STACK CFI a0950 .cfa: $rsp 8 +
STACK CFI INIT a0960 4f .cfa: $rsp .ra: .cfa 8 - ^
STACK CFI a0960 .cfa: $rsp 64 +
STACK CFI INIT a09b0 7 .cfa: $rsp .ra: .cfa 8 - ^
STACK CFI a09b0 .cfa: $rsp 8 +
STACK CFI INIT a09c0 7 .cfa: $rsp .ra: .cfa 8 - ^
STACK CFI a09c0 .cfa: $rsp 8 +
STACK CFI INIT a09d0 7 .cfa: $rsp .ra: .cfa 8 - ^
STACK CFI a09d0 .cfa: $rsp 8 +
STACK CFI INIT a09e0 3a .cfa: $rsp .ra: .cfa 8 - ^
STACK CFI a09e0 .cfa: $rsp 64 +
STACK CFI INIT a0a20 47 .cfa: $rsp .ra: .cfa 8 - ^
STACK CFI a0a20 .cfa: $rsp 64 +
STACK CFI INIT a0a70 7a .cfa: $rsp .ra: .cfa 8 - ^
STACK CFI a0a70 .cfa: $rsp 80 +
STACK CFI INIT a0af0 6a .cfa: $rsp .ra: .cfa 8 - ^
STACK CFI a0af0 .cfa: $rsp 64 +
STACK CFI INIT a0b60 13 .cfa: $rsp .ra: .cfa 8 - ^
STACK CFI a0b60 .cfa: $rsp 8 +
STACK CFI INIT a0b80 2d .cfa: $rsp .ra: .cfa 8 - ^
STACK CFI a0b80 .cfa: $rsp 48 +
STACK CFI INIT a0bb0 34 .cfa: $rsp .ra: .cfa 8 - ^
STACK CFI a0bb0 .cfa: $rsp 48 +
STACK CFI INIT a0bf0 21 .cfa: $rsp .ra: .cfa 8 - ^
STACK CFI a0bf0 .cfa: $rsp 48 +
STACK CFI INIT a0c20 b1 .cfa: $rsp .ra: .cfa 8 - ^
STACK CFI a0c20 .cfa: $rsp 96 +
STACK CFI INIT a0ce0 6d .cfa: $rsp .ra: .cfa 8 - ^
STACK CFI a0ce0 .cfa: $rsp 64 +
STACK CFI INIT a0d50 13 .cfa: $rsp .ra: .cfa 8 - ^
STACK CFI a0d50 .cfa: $rsp 8 +
STACK CFI INIT a0d70 2d .cfa: $rsp .ra: .cfa 8 - ^
STACK CFI a0d70 .cfa: $rsp 48 +
STACK CFI INIT a0da0 8a .cfa: $rsp .ra: .cfa 8 - ^
STACK CFI a0da0 .cfa: $rsp 112 +
STACK CFI INIT a0e30 3c .cfa: $rsp .ra: .cfa 8 - ^
STACK CFI a0e30 .cfa: $rsp 80 +
STACK CFI INIT a0e70 8a .cfa: $rsp .ra: .cfa 8 - ^
STACK CFI a0e70 .cfa: $rsp 112 +
STACK CFI INIT a0f00 3c .cfa: $rsp .ra: .cfa 8 - ^
STACK CFI a0f00 .cfa: $rsp 80 +
STACK CFI INIT a0f40 8b .cfa: $rsp .ra: .cfa 8 - ^
STACK CFI a0f40 .cfa: $rsp 96 +
STACK CFI INIT a0fd0 72 .cfa: $rsp .ra: .cfa 8 - ^
STACK CFI a0fd0 .cfa: $rsp 96 +
STACK CFI INIT a1050 78 .cfa: $rsp .ra: .cfa 8 - ^
STACK CFI a1050 .cfa: $rsp 96 +
STACK CFI INIT a10d0 6d .cfa: $rsp .ra: .cfa 8 - ^
STACK CFI a10d0 .cfa: $rsp 80 +
STACK CFI INIT a1140 20d .cfa: $rsp .ra: .cfa 8 - ^
STACK CFI a1140 .cfa: $rsp 176 +
STACK CFI INIT a1350 15c .cfa: $rsp .ra: .cfa 8 - ^
STACK CFI a1350 .cfa: $rsp 112 +
STACK CFI INIT a14b0 24b .cfa: $rsp .ra: .cfa 8 - ^
STACK CFI a14b0 .cfa: $rsp 176 +
STACK CFI INIT a1700 274 .cfa: $rsp .ra: .cfa 8 - ^
STACK CFI a1700 .cfa: $rsp 176 +
STACK CFI INIT a1980 1 .cfa: $rsp .ra: .cfa 8 - ^
STACK CFI a1980 .cfa: $rsp 8 +
STACK CFI INIT a1990 12 .cfa: $rsp .ra: .cfa 8 - ^
STACK CFI a1990 .cfa: $rsp 8 +
STACK CFI INIT a19b0 1a .cfa: $rsp .ra: .cfa 8 - ^
STACK CFI a19b0 .cfa: $rsp 8 +
STACK CFI INIT a19d0 14 .cfa: $rsp .ra: .cfa 8 - ^
STACK CFI a19d0 .cfa: $rsp 8 +
STACK CFI INIT a19f0 39 .cfa: $rsp .ra: .cfa 8 - ^
STACK CFI a19f0 .cfa: $rsp 64 +
STACK CFI INIT a1a30 45 .cfa: $rsp .ra: .cfa 8 - ^
STACK CFI a1a30 .cfa: $rsp 64 +
STACK CFI INIT a1a80 1e9 .cfa: $rsp .ra: .cfa 8 - ^
STACK CFI a1a80 .cfa: $rsp 128 +
STACK CFI INIT a1c80 19a .cfa: $rsp .ra: .cfa 8 - ^
STACK CFI a1c80 .cfa: $rsp 112 +
STACK CFI INIT a1e20 8f .cfa: $rsp .ra: .cfa 8 - ^
STACK CFI a1e20 .cfa: $rsp 48 +
STACK CFI INIT a1eb0 51 .cfa: $rsp .ra: .cfa 8 - ^
STACK CFI a1eb0 .cfa: $rsp 64 +
STACK CFI INIT a1f10 32 .cfa: $rsp .ra: .cfa 8 - ^
STACK CFI a1f10 .cfa: $rsp 64 +
STACK CFI INIT a1f50 26 .cfa: $rsp .ra: .cfa 8 - ^
STACK CFI a1f50 .cfa: $rsp 48 +
STACK CFI INIT a1f80 1f .cfa: $rsp .ra: .cfa 8 - ^
STACK CFI a1f80 .cfa: $rsp 8 +
STACK CFI INIT a1fa0 288 .cfa: $rsp .ra: .cfa 8 - ^
STACK CFI a1fa0 .cfa: $rsp 128 +
STACK CFI INIT a2230 18 .cfa: $rsp .ra: .cfa 8 - ^
STACK CFI a2230 .cfa: $rsp 8 +
STACK CFI INIT a2250 3e .cfa: $rsp .ra: .cfa 8 - ^
STACK CFI a2250 .cfa: $rsp 48 +
STACK CFI INIT a2290 c4 .cfa: $rsp .ra: .cfa 8 - ^
STACK CFI a2290 .cfa: $rsp 80 +
STACK CFI INIT a2360 b .cfa: $rsp .ra: .cfa 8 - ^
STACK CFI a2360 .cfa: $rsp 8 +
STACK CFI INIT a2370 b .cfa: $rsp .ra: .cfa 8 - ^
STACK CFI a2370 .cfa: $rsp 8 +
STACK CFI INIT a2380 b .cfa: $rsp .ra: .cfa 8 - ^
STACK CFI a2380 .cfa: $rsp 8 +
STACK CFI INIT a2390 26 .cfa: $rsp .ra: .cfa 8 - ^
STACK CFI a2390 .cfa: $rsp 8 +
STACK CFI INIT a23c0 1a .cfa: $rsp .ra: .cfa 8 - ^
STACK CFI a23c0 .cfa: $rsp 8 +
STACK CFI INIT a23e0 1d .cfa: $rsp .ra: .cfa 8 - ^
STACK CFI a23e0 .cfa: $rsp 8 +
STACK CFI INIT a2400 10 .cfa: $rsp .ra: .cfa 8 - ^
STACK CFI a2400 .cfa: $rsp 8 +
STACK CFI INIT a2410 21 .cfa: $rsp .ra: .cfa 8 - ^
STACK CFI a2410 .cfa: $rsp 48 +
STACK CFI INIT a2440 7c .cfa: $rsp .ra: .cfa 8 - ^
STACK CFI a2440 .cfa: $rsp 48 +
STACK CFI INIT a24d0 1f .cfa: $rsp .ra: .cfa 8 - ^
STACK CFI a24d0 .cfa: $rsp 48 +
STACK CFI INIT a2500 b3 .cfa: $rsp .ra: .cfa 8 - ^
STACK CFI a2500 .cfa: $rsp 80 +
STACK CFI INIT a25c0 26 .cfa: $rsp .ra: .cfa 8 - ^
STACK CFI a25c0 .cfa: $rsp 48 +
STACK CFI INIT a25f0 32 .cfa: $rsp .ra: .cfa 8 - ^
STACK CFI a25f0 .cfa: $rsp 48 +
STACK CFI INIT a2630 21 .cfa: $rsp .ra: .cfa 8 - ^
STACK CFI a2630 .cfa: $rsp 48 +
STACK CFI INIT a2660 3fe .cfa: $rsp .ra: .cfa 8 - ^
STACK CFI a2660 .cfa: $rsp 144 +
STACK CFI INIT a2a60 342 .cfa: $rsp .ra: .cfa 8 - ^
STACK CFI a2a60 .cfa: $rsp 176 +
STACK CFI INIT a2db0 127 .cfa: $rsp .ra: .cfa 8 - ^
STACK CFI a2db0 .cfa: $rsp 96 +
STACK CFI INIT a2ee0 47 .cfa: $rsp .ra: .cfa 8 - ^
STACK CFI a2ee0 .cfa: $rsp 64 +
STACK CFI INIT a2f30 75 .cfa: $rsp .ra: .cfa 8 - ^
STACK CFI a2f30 .cfa: $rsp 80 +
STACK CFI INIT a2fb0 5c .cfa: $rsp .ra: .cfa 8 - ^
STACK CFI a2fb0 .cfa: $rsp 80 +
STACK CFI INIT a3010 1 .cfa: $rsp .ra: .cfa 8 - ^
STACK CFI a3010 .cfa: $rsp 8 +
STACK CFI INIT a3020 3 .cfa: $rsp .ra: .cfa 8 - ^
STACK CFI a3020 .cfa: $rsp 8 +
STACK CFI INIT a3030 a .cfa: $rsp .ra: .cfa 8 - ^
STACK CFI a3030 .cfa: $rsp 8 +
STACK CFI INIT a3040 6 .cfa: $rsp .ra: .cfa 8 - ^
STACK CFI a3040 .cfa: $rsp 8 +
STACK CFI INIT a3050 a .cfa: $rsp .ra: .cfa 8 - ^
STACK CFI a3050 .cfa: $rsp 8 +
STACK CFI INIT a3060 17 .cfa: $rsp .ra: .cfa 8 - ^
STACK CFI a3060 .cfa: $rsp 48 +
STACK CFI INIT a3080 26 .cfa: $rsp .ra: .cfa 8 - ^
STACK CFI a3080 .cfa: $rsp 48 +
STACK CFI INIT a30b0 77 .cfa: $rsp .ra: .cfa 8 - ^
STACK CFI a30b0 .cfa: $rsp 80 +
STACK CFI INIT a3130 58 .cfa: $rsp .ra: .cfa 8 - ^
STACK CFI a3130 .cfa: $rsp 48 +
STACK CFI INIT a3190 1f .cfa: $rsp .ra: .cfa 8 - ^
STACK CFI a3190 .cfa: $rsp 48 +
STACK CFI INIT a31b0 2f .cfa: $rsp .ra: .cfa 8 - ^
STACK CFI a31b0 .cfa: $rsp 48 +
STACK CFI INIT a31e0 b6 .cfa: $rsp .ra: .cfa 8 - ^
STACK CFI a31e0 .cfa: $rsp 96 +
STACK CFI INIT a32a0 9f .cfa: $rsp .ra: .cfa 8 - ^
STACK CFI a32a0 .cfa: $rsp 96 +
STACK CFI INIT a3340 ac .cfa: $rsp .ra: .cfa 8 - ^
STACK CFI a3340 .cfa: $rsp 80 +
STACK CFI INIT a33f0 10d .cfa: $rsp .ra: .cfa 8 - ^
STACK CFI a33f0 .cfa: $rsp 48 +
STACK CFI INIT a3500 1f .cfa: $rsp .ra: .cfa 8 - ^
STACK CFI a3500 .cfa: $rsp 48 +
STACK CFI INIT a3520 276 .cfa: $rsp .ra: .cfa 8 - ^
STACK CFI a3520 .cfa: $rsp 112 +
STACK CFI INIT a37a0 19b .cfa: $rsp .ra: .cfa 8 - ^
STACK CFI a37a0 .cfa: $rsp 144 +
STACK CFI INIT a3940 245 .cfa: $rsp .ra: .cfa 8 - ^
STACK CFI a3940 .cfa: $rsp 176 +
STACK CFI INIT a3b90 89 .cfa: $rsp .ra: .cfa 8 - ^
STACK CFI a3b90 .cfa: $rsp 80 +
STACK CFI INIT a3c20 b .cfa: $rsp .ra: .cfa 8 - ^
STACK CFI a3c20 .cfa: $rsp 8 +
STACK CFI INIT a3c30 46 .cfa: $rsp .ra: .cfa 8 - ^
STACK CFI a3c30 .cfa: $rsp 64 +
STACK CFI INIT a3c80 aa .cfa: $rsp .ra: .cfa 8 - ^
STACK CFI a3c80 .cfa: $rsp 48 +
STACK CFI INIT a3d30 7a6 .cfa: $rsp .ra: .cfa 8 - ^
STACK CFI a3d30 .cfa: $rsp 224 +
STACK CFI INIT a44e0 389 .cfa: $rsp .ra: .cfa 8 - ^
STACK CFI a44e0 .cfa: $rsp 128 +
STACK CFI INIT a4870 31f .cfa: $rsp .ra: .cfa 8 - ^
STACK CFI a4870 .cfa: $rsp 128 +
STACK CFI INIT a4b90 4ef .cfa: $rsp .ra: .cfa 8 - ^
STACK CFI a4b90 .cfa: $rsp 144 +
STACK CFI INIT a5080 1df .cfa: $rsp .ra: .cfa 8 - ^
STACK CFI a5080 .cfa: $rsp 304 +
STACK CFI INIT a5260 bf .cfa: $rsp .ra: .cfa 8 - ^
STACK CFI a5260 .cfa: $rsp 64 +
STACK CFI INIT a5320 1a .cfa: $rsp .ra: .cfa 8 - ^
STACK CFI a5320 .cfa: $rsp 8 +
STACK CFI INIT a5340 1df .cfa: $rsp .ra: .cfa 8 - ^
STACK CFI a5340 .cfa: $rsp 304 +
STACK CFI INIT a5520 10 .cfa: $rsp .ra: .cfa 8 - ^
STACK CFI a5520 .cfa: $rsp 8 +
STACK CFI INIT a5530 1ba .cfa: $rsp .ra: .cfa 8 - ^
STACK CFI a5530 .cfa: $rsp 304 +
STACK CFI INIT a56f0 426 .cfa: $rsp .ra: .cfa 8 - ^
STACK CFI a56f0 .cfa: $rsp 144 +
STACK CFI INIT a5b20 5f .cfa: $rsp .ra: .cfa 8 - ^
STACK CFI a5b20 .cfa: $rsp 64 +
STACK CFI INIT a5b80 20d .cfa: $rsp .ra: .cfa 8 - ^
STACK CFI a5b80 .cfa: $rsp 96 +
STACK CFI INIT a5d90 372 .cfa: $rsp .ra: .cfa 8 - ^
STACK CFI a5d90 .cfa: $rsp 128 +
STACK CFI INIT a6110 46 .cfa: $rsp .ra: .cfa 8 - ^
STACK CFI a6110 .cfa: $rsp 64 +
STACK CFI INIT a6160 52 .cfa: $rsp .ra: .cfa 8 - ^
STACK CFI a6160 .cfa: $rsp 64 +
STACK CFI INIT a61c0 1ee .cfa: $rsp .ra: .cfa 8 - ^
STACK CFI a61c0 .cfa: $rsp 112 +
STACK CFI INIT a63b0 1f .cfa: $rsp .ra: .cfa 8 - ^
STACK CFI a63b0 .cfa: $rsp 48 +
STACK CFI INIT a63d0 6e .cfa: $rsp .ra: .cfa 8 - ^
STACK CFI a63d0 .cfa: $rsp 64 +
STACK CFI INIT a6440 10 .cfa: $rsp .ra: .cfa 8 - ^
STACK CFI a6440 .cfa: $rsp 8 +
STACK CFI INIT a6450 c .cfa: $rsp .ra: .cfa 8 - ^
STACK CFI a6450 .cfa: $rsp 8 +
STACK CFI INIT a6460 2f .cfa: $rsp .ra: .cfa 8 - ^
STACK CFI a6460 .cfa: $rsp 8 +
STACK CFI INIT a6490 218 .cfa: $rsp .ra: .cfa 8 - ^
STACK CFI a6490 .cfa: $rsp 160 +
STACK CFI INIT a66b0 80 .cfa: $rsp .ra: .cfa 8 - ^
STACK CFI a66b0 .cfa: $rsp 64 +
STACK CFI INIT a6730 65 .cfa: $rsp .ra: .cfa 8 - ^
STACK CFI a6730 .cfa: $rsp 96 +
STACK CFI INIT a67a0 216 .cfa: $rsp .ra: .cfa 8 - ^
STACK CFI a67a0 .cfa: $rsp 80 +
STACK CFI INIT a69c0 153 .cfa: $rsp .ra: .cfa 8 - ^
STACK CFI a69c0 .cfa: $rsp 96 +
STACK CFI INIT a6b20 7a .cfa: $rsp .ra: .cfa 8 - ^
STACK CFI a6b20 .cfa: $rsp 48 +
STACK CFI INIT a6ba0 186 .cfa: $rsp .ra: .cfa 8 - ^
STACK CFI a6ba0 .cfa: $rsp 80 +
STACK CFI INIT a6d30 1 .cfa: $rsp .ra: .cfa 8 - ^
STACK CFI a6d30 .cfa: $rsp 8 +
STACK CFI INIT a6d40 1 .cfa: $rsp .ra: .cfa 8 - ^
STACK CFI a6d40 .cfa: $rsp 8 +
STACK CFI INIT a6d50 48 .cfa: $rsp .ra: .cfa 8 - ^
STACK CFI a6d50 .cfa: $rsp 64 +
STACK CFI INIT a6da0 f4 .cfa: $rsp .ra: .cfa 8 - ^
STACK CFI a6da0 .cfa: $rsp 112 +
STACK CFI INIT a6ea0 106 .cfa: $rsp .ra: .cfa 8 - ^
STACK CFI a6ea0 .cfa: $rsp 96 +
STACK CFI INIT a6fb0 202 .cfa: $rsp .ra: .cfa 8 - ^
STACK CFI a6fb0 .cfa: $rsp 176 +
STACK CFI INIT a71c0 6d .cfa: $rsp .ra: .cfa 8 - ^
STACK CFI a71c0 .cfa: $rsp 64 +
STACK CFI INIT a7230 16 .cfa: $rsp .ra: .cfa 8 - ^
STACK CFI a7230 .cfa: $rsp 48 +
STACK CFI INIT a7250 6d .cfa: $rsp .ra: .cfa 8 - ^
STACK CFI a7250 .cfa: $rsp 64 +
STACK CFI INIT a72c0 26 .cfa: $rsp .ra: .cfa 8 - ^
STACK CFI a72c0 .cfa: $rsp 8 +
STACK CFI INIT a72f0 513 .cfa: $rsp .ra: .cfa 8 - ^
STACK CFI a72f0 .cfa: $rsp 160 +
STACK CFI INIT a7810 25 .cfa: $rsp .ra: .cfa 8 - ^
STACK CFI a7810 .cfa: $rsp 8 +
STACK CFI INIT a7840 77 .cfa: $rsp .ra: .cfa 8 - ^
STACK CFI a7840 .cfa: $rsp 80 +
STACK CFI INIT a78c0 b8 .cfa: $rsp .ra: .cfa 8 - ^
STACK CFI a78c0 .cfa: $rsp 96 +
STACK CFI INIT a7980 165 .cfa: $rsp .ra: .cfa 8 - ^
STACK CFI a7980 .cfa: $rsp 144 +
STACK CFI INIT a7af0 25f .cfa: $rsp .ra: .cfa 8 - ^
STACK CFI a7af0 .cfa: $rsp 144 +
STACK CFI INIT a7d50 164 .cfa: $rsp .ra: .cfa 8 - ^
STACK CFI a7d50 .cfa: $rsp 128 +
STACK CFI INIT a7ec0 47 .cfa: $rsp .ra: .cfa 8 - ^
STACK CFI a7ec0 .cfa: $rsp 64 +
STACK CFI INIT a7f10 c .cfa: $rsp .ra: .cfa 8 - ^
STACK CFI a7f10 .cfa: $rsp 8 +
STACK CFI INIT a7f20 8a .cfa: $rsp .ra: .cfa 8 - ^
STACK CFI a7f20 .cfa: $rsp 8 +
STACK CFI INIT a7fb0 c .cfa: $rsp .ra: .cfa 8 - ^
STACK CFI a7fb0 .cfa: $rsp 8 +
STACK CFI INIT a7fc0 58 .cfa: $rsp .ra: .cfa 8 - ^
STACK CFI a7fc0 .cfa: $rsp 48 +
STACK CFI INIT a8020 c .cfa: $rsp .ra: .cfa 8 - ^
STACK CFI a8020 .cfa: $rsp 8 +
STACK CFI INIT a8030 b .cfa: $rsp .ra: .cfa 8 - ^
STACK CFI a8030 .cfa: $rsp 8 +
STACK CFI INIT a8040 101 .cfa: $rsp .ra: .cfa 8 - ^
STACK CFI a8040 .cfa: $rsp 96 +
STACK CFI INIT a8150 51 .cfa: $rsp .ra: .cfa 8 - ^
STACK CFI a8150 .cfa: $rsp 80 +
STACK CFI INIT a81b0 ae .cfa: $rsp .ra: .cfa 8 - ^
STACK CFI a81b0 .cfa: $rsp 64 +
STACK CFI INIT a8260 f4 .cfa: $rsp .ra: .cfa 8 - ^
STACK CFI a8260 .cfa: $rsp 112 +
STACK CFI INIT a8360 366 .cfa: $rsp .ra: .cfa 8 - ^
STACK CFI a8360 .cfa: $rsp 144 +
STACK CFI INIT a86d0 174 .cfa: $rsp .ra: .cfa 8 - ^
STACK CFI a86d0 .cfa: $rsp 112 +
STACK CFI INIT a8850 1a3 .cfa: $rsp .ra: .cfa 8 - ^
STACK CFI a8850 .cfa: $rsp 80 +
STACK CFI INIT a8a00 3fb .cfa: $rsp .ra: .cfa 8 - ^
STACK CFI a8a00 .cfa: $rsp 176 +
STACK CFI INIT a8e00 51 .cfa: $rsp .ra: .cfa 8 - ^
STACK CFI a8e00 .cfa: $rsp 48 +
STACK CFI INIT a8e60 72 .cfa: $rsp .ra: .cfa 8 - ^
STACK CFI a8e60 .cfa: $rsp 48 +
STACK CFI INIT a8ee0 216 .cfa: $rsp .ra: .cfa 8 - ^
STACK CFI a8ee0 .cfa: $rsp 128 +
STACK CFI INIT a9100 6fe .cfa: $rsp .ra: .cfa 8 - ^
STACK CFI a9100 .cfa: $rsp 272 +
STACK CFI INIT a9800 3 .cfa: $rsp .ra: .cfa 8 - ^
STACK CFI a9800 .cfa: $rsp 8 +
STACK CFI INIT a9810 d4 .cfa: $rsp .ra: .cfa 8 - ^
STACK CFI a9810 .cfa: $rsp 48 +
STACK CFI INIT a98f0 1f .cfa: $rsp .ra: .cfa 8 - ^
STACK CFI a98f0 .cfa: $rsp 48 +
STACK CFI INIT a9910 15 .cfa: $rsp .ra: .cfa 8 - ^
STACK CFI a9910 .cfa: $rsp 8 +
STACK CFI INIT a9930 2e .cfa: $rsp .ra: .cfa 8 - ^
STACK CFI a9930 .cfa: $rsp 48 +
STACK CFI INIT a9960 31a .cfa: $rsp .ra: .cfa 8 - ^
STACK CFI a9960 .cfa: $rsp 144 +
STACK CFI INIT a9c80 3 .cfa: $rsp .ra: .cfa 8 - ^
STACK CFI a9c80 .cfa: $rsp 8 +
STACK CFI INIT a9c90 104 .cfa: $rsp .ra: .cfa 8 - ^
STACK CFI a9c90 .cfa: $rsp 80 +
STACK CFI INIT a9da0 22 .cfa: $rsp .ra: .cfa 8 - ^
STACK CFI a9da0 .cfa: $rsp 8 +
STACK CFI INIT a9dd0 10 .cfa: $rsp .ra: .cfa 8 - ^
STACK CFI a9dd0 .cfa: $rsp 8 +
STACK CFI INIT a9de0 aa .cfa: $rsp .ra: .cfa 8 - ^
STACK CFI a9de0 .cfa: $rsp 96 +
STACK CFI INIT a9e90 aa .cfa: $rsp .ra: .cfa 8 - ^
STACK CFI a9e90 .cfa: $rsp 96 +
STACK CFI INIT a9f40 b0 .cfa: $rsp .ra: .cfa 8 - ^
STACK CFI a9f40 .cfa: $rsp 96 +
STACK CFI INIT a9ff0 3e .cfa: $rsp .ra: .cfa 8 - ^
STACK CFI a9ff0 .cfa: $rsp 48 +
STACK CFI INIT aa030 23 .cfa: $rsp .ra: .cfa 8 - ^
STACK CFI aa030 .cfa: $rsp 8 +
STACK CFI INIT aa060 12 .cfa: $rsp .ra: .cfa 8 - ^
STACK CFI aa060 .cfa: $rsp 8 +
STACK CFI INIT aa080 aa .cfa: $rsp .ra: .cfa 8 - ^
STACK CFI aa080 .cfa: $rsp 96 +
STACK CFI INIT aa130 16 .cfa: $rsp .ra: .cfa 8 - ^
STACK CFI aa130 .cfa: $rsp 48 +
STACK CFI INIT aa150 aa .cfa: $rsp .ra: .cfa 8 - ^
STACK CFI aa150 .cfa: $rsp 96 +
STACK CFI INIT aa200 44 .cfa: $rsp .ra: .cfa 8 - ^
STACK CFI aa200 .cfa: $rsp 80 +
STACK CFI INIT aa250 49 .cfa: $rsp .ra: .cfa 8 - ^
STACK CFI aa250 .cfa: $rsp 80 +
STACK CFI INIT aa2a0 b4 .cfa: $rsp .ra: .cfa 8 - ^
STACK CFI aa2a0 .cfa: $rsp 96 +
STACK CFI INIT aa360 b4 .cfa: $rsp .ra: .cfa 8 - ^
STACK CFI aa360 .cfa: $rsp 96 +
STACK CFI INIT aa420 23 .cfa: $rsp .ra: .cfa 8 - ^
STACK CFI aa420 .cfa: $rsp 8 +
STACK CFI INIT aa450 77 .cfa: $rsp .ra: .cfa 8 - ^
STACK CFI aa450 .cfa: $rsp 80 +
STACK CFI INIT aa4d0 ad .cfa: $rsp .ra: .cfa 8 - ^
STACK CFI aa4d0 .cfa: $rsp 96 +
STACK CFI INIT aa580 1cd .cfa: $rsp .ra: .cfa 8 - ^
STACK CFI aa580 .cfa: $rsp 144 +
STACK CFI INIT aa750 14b .cfa: $rsp .ra: .cfa 8 - ^
STACK CFI aa750 .cfa: $rsp 128 +
STACK CFI INIT aa8a0 47 .cfa: $rsp .ra: .cfa 8 - ^
STACK CFI aa8a0 .cfa: $rsp 64 +
STACK CFI INIT aa8f0 c .cfa: $rsp .ra: .cfa 8 - ^
STACK CFI aa8f0 .cfa: $rsp 8 +
STACK CFI INIT aa900 c .cfa: $rsp .ra: .cfa 8 - ^
STACK CFI aa900 .cfa: $rsp 8 +
STACK CFI INIT aa910 1e5 .cfa: $rsp .ra: .cfa 8 - ^
STACK CFI aa910 .cfa: $rsp 304 +
STACK CFI INIT aab00 c .cfa: $rsp .ra: .cfa 8 - ^
STACK CFI aab00 .cfa: $rsp 8 +
STACK CFI INIT aab10 b .cfa: $rsp .ra: .cfa 8 - ^
STACK CFI aab10 .cfa: $rsp 8 +
STACK CFI INIT aab20 1 .cfa: $rsp .ra: .cfa 8 - ^
STACK CFI aab20 .cfa: $rsp 8 +
STACK CFI INIT aab30 226 .cfa: $rsp .ra: .cfa 8 - ^
STACK CFI aab30 .cfa: $rsp 112 +
STACK CFI INIT aad60 1 .cfa: $rsp .ra: .cfa 8 - ^
STACK CFI aad60 .cfa: $rsp 8 +
STACK CFI INIT aad70 1a .cfa: $rsp .ra: .cfa 8 - ^
STACK CFI aad70 .cfa: $rsp 8 +
STACK CFI INIT aad90 1a .cfa: $rsp .ra: .cfa 8 - ^
STACK CFI aad90 .cfa: $rsp 8 +
STACK CFI INIT aadb0 10 .cfa: $rsp .ra: .cfa 8 - ^
STACK CFI aadb0 .cfa: $rsp 8 +
STACK CFI INIT aadc0 1df .cfa: $rsp .ra: .cfa 8 - ^
STACK CFI aadc0 .cfa: $rsp 304 +
STACK CFI INIT aafa0 cd .cfa: $rsp .ra: .cfa 8 - ^
STACK CFI aafa0 .cfa: $rsp 80 +
STACK CFI INIT ab070 1d1 .cfa: $rsp .ra: .cfa 8 - ^
STACK CFI ab070 .cfa: $rsp 304 +
STACK CFI INIT ab250 1e .cfa: $rsp .ra: .cfa 8 - ^
STACK CFI ab250 .cfa: $rsp 8 +
STACK CFI INIT ab270 1cc .cfa: $rsp .ra: .cfa 8 - ^
STACK CFI ab270 .cfa: $rsp 304 +
STACK CFI INIT ab440 339 .cfa: $rsp .ra: .cfa 8 - ^
STACK CFI ab440 .cfa: $rsp 160 +
STACK CFI INIT ab780 87 .cfa: $rsp .ra: .cfa 8 - ^
STACK CFI ab780 .cfa: $rsp 48 +
STACK CFI INIT ab810 46 .cfa: $rsp .ra: .cfa 8 - ^
STACK CFI ab810 .cfa: $rsp 64 +
STACK CFI INIT ab860 6e .cfa: $rsp .ra: .cfa 8 - ^
STACK CFI ab860 .cfa: $rsp 64 +
STACK CFI INIT ab8d0 936 .cfa: $rsp .ra: .cfa 8 - ^
STACK CFI ab8d0 .cfa: $rsp 272 +
STACK CFI INIT ac210 aa0 .cfa: $rsp .ra: .cfa 8 - ^
STACK CFI ac210 .cfa: $rsp 4288 +
STACK CFI INIT accb0 1ba .cfa: $rsp .ra: .cfa 8 - ^
STACK CFI accb0 .cfa: $rsp 144 +
STACK CFI INIT ace70 80 .cfa: $rsp .ra: .cfa 8 - ^
STACK CFI ace70 .cfa: $rsp 64 +
STACK CFI INIT acef0 65 .cfa: $rsp .ra: .cfa 8 - ^
STACK CFI acef0 .cfa: $rsp 96 +
STACK CFI INIT acf60 6e .cfa: $rsp .ra: .cfa 8 - ^
STACK CFI acf60 .cfa: $rsp 64 +
STACK CFI INIT acfd0 10 .cfa: $rsp .ra: .cfa 8 - ^
STACK CFI acfd0 .cfa: $rsp 8 +
STACK CFI INIT acfe0 74 .cfa: $rsp .ra: .cfa 8 - ^
STACK CFI acfe0 .cfa: $rsp 48 +
STACK CFI INIT ad060 77 .cfa: $rsp .ra: .cfa 8 - ^
STACK CFI ad060 .cfa: $rsp 48 +
STACK CFI INIT ad0e0 25c .cfa: $rsp .ra: .cfa 8 - ^
STACK CFI ad0e0 .cfa: $rsp 80 +
STACK CFI INIT ad340 207 .cfa: $rsp .ra: .cfa 8 - ^
STACK CFI ad340 .cfa: $rsp 128 +
STACK CFI INIT ad550 88 .cfa: $rsp .ra: .cfa 8 - ^
STACK CFI ad550 .cfa: $rsp 64 +
STACK CFI INIT ad5e0 11 .cfa: $rsp .ra: .cfa 8 - ^
STACK CFI ad5e0 .cfa: $rsp 8 +
STACK CFI INIT ad600 aa .cfa: $rsp .ra: .cfa 8 - ^
STACK CFI ad600 .cfa: $rsp 80 +
STACK CFI INIT ad6b0 2d .cfa: $rsp .ra: .cfa 8 - ^
STACK CFI ad6b0 .cfa: $rsp 48 +
STACK CFI INIT ad6e0 46 .cfa: $rsp .ra: .cfa 8 - ^
STACK CFI ad6e0 .cfa: $rsp 64 +
STACK CFI INIT ad730 17a .cfa: $rsp .ra: .cfa 8 - ^
STACK CFI ad730 .cfa: $rsp 112 +
STACK CFI INIT ad8b0 13f .cfa: $rsp .ra: .cfa 8 - ^
STACK CFI ad8b0 .cfa: $rsp 80 +
STACK CFI INIT ad9f0 c .cfa: $rsp .ra: .cfa 8 - ^
STACK CFI ad9f0 .cfa: $rsp 8 +
STACK CFI INIT ada00 193 .cfa: $rsp .ra: .cfa 8 - ^
STACK CFI ada00 .cfa: $rsp 112 +
STACK CFI INIT adba0 4d .cfa: $rsp .ra: .cfa 8 - ^
STACK CFI adba0 .cfa: $rsp 48 +
STACK CFI INIT adbf0 25 .cfa: $rsp .ra: .cfa 8 - ^
STACK CFI adbf0 .cfa: $rsp 48 +
STACK CFI INIT adc20 175 .cfa: $rsp .ra: .cfa 8 - ^
STACK CFI adc20 .cfa: $rsp 112 +
STACK CFI INIT adda0 141 .cfa: $rsp .ra: .cfa 8 - ^
STACK CFI adda0 .cfa: $rsp 96 +
STACK CFI INIT adef0 11a .cfa: $rsp .ra: .cfa 8 - ^
STACK CFI adef0 .cfa: $rsp 80 +
STACK CFI INIT ae010 d7 .cfa: $rsp .ra: .cfa 8 - ^
STACK CFI ae010 .cfa: $rsp 80 +
STACK CFI INIT ae0f0 1b0 .cfa: $rsp .ra: .cfa 8 - ^
STACK CFI ae0f0 .cfa: $rsp 112 +
STACK CFI INIT ae2a0 13b .cfa: $rsp .ra: .cfa 8 - ^
STACK CFI ae2a0 .cfa: $rsp 96 +
STACK CFI INIT ae3e0 fa .cfa: $rsp .ra: .cfa 8 - ^
STACK CFI ae3e0 .cfa: $rsp 96 +
STACK CFI INIT ae4e0 f1 .cfa: $rsp .ra: .cfa 8 - ^
STACK CFI ae4e0 .cfa: $rsp 96 +
STACK CFI INIT ae5e0 131 .cfa: $rsp .ra: .cfa 8 - ^
STACK CFI ae5e0 .cfa: $rsp 96 +
STACK CFI INIT ae720 d7 .cfa: $rsp .ra: .cfa 8 - ^
STACK CFI ae720 .cfa: $rsp 80 +
STACK CFI INIT ae800 109 .cfa: $rsp .ra: .cfa 8 - ^
STACK CFI ae800 .cfa: $rsp 96 +
STACK CFI INIT ae910 f9 .cfa: $rsp .ra: .cfa 8 - ^
STACK CFI ae910 .cfa: $rsp 80 +
STACK CFI INIT aea10 e7 .cfa: $rsp .ra: .cfa 8 - ^
STACK CFI aea10 .cfa: $rsp 80 +
STACK CFI INIT aeb00 3 .cfa: $rsp .ra: .cfa 8 - ^
STACK CFI aeb00 .cfa: $rsp 8 +
STACK CFI INIT aeb10 1e1 .cfa: $rsp .ra: .cfa 8 - ^
STACK CFI aeb10 .cfa: $rsp 112 +
STACK CFI INIT aed00 102 .cfa: $rsp .ra: .cfa 8 - ^
STACK CFI aed00 .cfa: $rsp 48 +
STACK CFI INIT aee10 38 .cfa: $rsp .ra: .cfa 8 - ^
STACK CFI aee10 .cfa: $rsp 48 +
STACK CFI INIT aee50 44 .cfa: $rsp .ra: .cfa 8 - ^
STACK CFI aee50 .cfa: $rsp 48 +
STACK CFI INIT aeea0 194 .cfa: $rsp .ra: .cfa 8 - ^
STACK CFI aeea0 .cfa: $rsp 128 +
STACK CFI INIT af040 2d2 .cfa: $rsp .ra: .cfa 8 - ^
STACK CFI af040 .cfa: $rsp 144 +
STACK CFI INIT af320 2e2 .cfa: $rsp .ra: .cfa 8 - ^
STACK CFI af320 .cfa: $rsp 160 +
STACK CFI INIT af610 96 .cfa: $rsp .ra: .cfa 8 - ^
STACK CFI af610 .cfa: $rsp 80 +
STACK CFI INIT af6b0 a1 .cfa: $rsp .ra: .cfa 8 - ^
STACK CFI af6b0 .cfa: $rsp 80 +
STACK CFI INIT af760 96 .cfa: $rsp .ra: .cfa 8 - ^
STACK CFI af760 .cfa: $rsp 80 +
STACK CFI INIT af800 a1 .cfa: $rsp .ra: .cfa 8 - ^
STACK CFI af800 .cfa: $rsp 80 +
STACK CFI INIT af8b0 9 .cfa: $rsp .ra: .cfa 8 - ^
STACK CFI af8b0 .cfa: $rsp 8 +
STACK CFI INIT af8c0 9 .cfa: $rsp .ra: .cfa 8 - ^
STACK CFI af8c0 .cfa: $rsp 8 +
STACK CFI INIT af8d0 23 .cfa: $rsp .ra: .cfa 8 - ^
STACK CFI af8d0 .cfa: $rsp 8 +
STACK CFI INIT af900 8f .cfa: $rsp .ra: .cfa 8 - ^
STACK CFI af900 .cfa: $rsp 64 +
STACK CFI INIT af990 23 .cfa: $rsp .ra: .cfa 8 - ^
STACK CFI af990 .cfa: $rsp 8 +
STACK CFI INIT af9c0 92 .cfa: $rsp .ra: .cfa 8 - ^
STACK CFI af9c0 .cfa: $rsp 64 +
STACK CFI INIT afa60 23 .cfa: $rsp .ra: .cfa 8 - ^
STACK CFI afa60 .cfa: $rsp 8 +
STACK CFI INIT afa90 92 .cfa: $rsp .ra: .cfa 8 - ^
STACK CFI afa90 .cfa: $rsp 64 +
STACK CFI INIT afb30 46 .cfa: $rsp .ra: .cfa 8 - ^
STACK CFI afb30 .cfa: $rsp 48 +
STACK CFI INIT afb80 49 .cfa: $rsp .ra: .cfa 8 - ^
STACK CFI afb80 .cfa: $rsp 48 +
STACK CFI INIT afbd0 49 .cfa: $rsp .ra: .cfa 8 - ^
STACK CFI afbd0 .cfa: $rsp 48 +
STACK CFI INIT afc20 15f .cfa: $rsp .ra: .cfa 8 - ^
STACK CFI afc20 .cfa: $rsp 8 +
STACK CFI INIT afd80 f7 .cfa: $rsp .ra: .cfa 8 - ^
STACK CFI afd80 .cfa: $rsp 128 +
STACK CFI INIT afe80 12f .cfa: $rsp .ra: .cfa 8 - ^
STACK CFI afe80 .cfa: $rsp 128 +
STACK CFI INIT affb0 373 .cfa: $rsp .ra: .cfa 8 - ^
STACK CFI affb0 .cfa: $rsp 224 +
STACK CFI INIT b0330 5ad .cfa: $rsp .ra: .cfa 8 - ^
STACK CFI b0330 .cfa: $rsp 224 +
STACK CFI INIT b08e0 49c .cfa: $rsp .ra: .cfa 8 - ^
STACK CFI b08e0 .cfa: $rsp 208 +
STACK CFI INIT b0d80 35a .cfa: $rsp .ra: .cfa 8 - ^
STACK CFI b0d80 .cfa: $rsp 176 +
STACK CFI INIT b10e0 60 .cfa: $rsp .ra: .cfa 8 - ^
STACK CFI b10e0 .cfa: $rsp 64 +
STACK CFI INIT b1140 134 .cfa: $rsp .ra: .cfa 8 - ^
STACK CFI b1140 .cfa: $rsp 144 +
STACK CFI INIT b1280 de .cfa: $rsp .ra: .cfa 8 - ^
STACK CFI b1280 .cfa: $rsp 160 +
STACK CFI INIT b1360 106 .cfa: $rsp .ra: .cfa 8 - ^
STACK CFI b1360 .cfa: $rsp 160 +
STACK CFI INIT b1470 5ed .cfa: $rsp .ra: .cfa 8 - ^
STACK CFI b1470 .cfa: $rsp 400 +
STACK CFI INIT b1a60 48e .cfa: $rsp .ra: .cfa 8 - ^
STACK CFI b1a60 .cfa: $rsp 352 +
STACK CFI INIT b1ef0 103 .cfa: $rsp .ra: .cfa 8 - ^
STACK CFI b1ef0 .cfa: $rsp 192 +
STACK CFI INIT b2000 af .cfa: $rsp .ra: .cfa 8 - ^
STACK CFI b2000 .cfa: $rsp 112 +
STACK CFI INIT b20b0 1ed .cfa: $rsp .ra: .cfa 8 - ^
STACK CFI b20b0 .cfa: $rsp 1184 +
STACK CFI INIT b22a0 1f4 .cfa: $rsp .ra: .cfa 8 - ^
STACK CFI b22a0 .cfa: $rsp 1712 +
STACK CFI INIT b24a0 e .cfa: $rsp .ra: .cfa 8 - ^
STACK CFI b24a0 .cfa: $rsp 8 +
STACK CFI INIT b24b0 212 .cfa: $rsp .ra: .cfa 8 - ^
STACK CFI b24b0 .cfa: $rsp 192 +
STACK CFI INIT b26d0 21 .cfa: $rsp .ra: .cfa 8 - ^
STACK CFI b26d0 .cfa: $rsp 64 +
STACK CFI INIT b2700 21 .cfa: $rsp .ra: .cfa 8 - ^
STACK CFI b2700 .cfa: $rsp 64 +
STACK CFI INIT b2730 19d .cfa: $rsp .ra: .cfa 8 - ^
STACK CFI b2730 .cfa: $rsp 160 +
STACK CFI INIT b28d0 1f7 .cfa: $rsp .ra: .cfa 8 - ^
STACK CFI b28d0 .cfa: $rsp 192 +
STACK CFI INIT b2ad0 1a6 .cfa: $rsp .ra: .cfa 8 - ^
STACK CFI b2ad0 .cfa: $rsp 96 +
STACK CFI INIT b2c80 6 .cfa: $rsp .ra: .cfa 8 - ^
STACK CFI b2c80 .cfa: $rsp 8 +
STACK CFI INIT b2c90 26 .cfa: $rsp .ra: .cfa 8 - ^
STACK CFI b2c90 .cfa: $rsp 48 +
STACK CFI INIT b2cc0 32 .cfa: $rsp .ra: .cfa 8 - ^
STACK CFI b2cc0 .cfa: $rsp 48 +
STACK CFI INIT b2d00 1c .cfa: $rsp .ra: .cfa 8 - ^
STACK CFI b2d00 .cfa: $rsp 48 +
STACK CFI INIT b2d20 1a .cfa: $rsp .ra: .cfa 8 - ^
STACK CFI b2d20 .cfa: $rsp 8 +
STACK CFI INIT b2d40 14 .cfa: $rsp .ra: .cfa 8 - ^
STACK CFI b2d40 .cfa: $rsp 8 +
STACK CFI INIT b2d60 17 .cfa: $rsp .ra: .cfa 8 - ^
STACK CFI b2d60 .cfa: $rsp 8 +
STACK CFI INIT b2d80 39 .cfa: $rsp .ra: .cfa 8 - ^
STACK CFI b2d80 .cfa: $rsp 64 +
STACK CFI INIT b2dc0 39 .cfa: $rsp .ra: .cfa 8 - ^
STACK CFI b2dc0 .cfa: $rsp 64 +
STACK CFI INIT b2e00 11f .cfa: $rsp .ra: .cfa 8 - ^
STACK CFI b2e00 .cfa: $rsp 80 +
STACK CFI INIT b2f20 a3 .cfa: $rsp .ra: .cfa 8 - ^
STACK CFI b2f20 .cfa: $rsp 8 +
STACK CFI INIT b2fd0 4b .cfa: $rsp .ra: .cfa 8 - ^
STACK CFI b2fd0 .cfa: $rsp 64 +
STACK CFI INIT b3020 64 .cfa: $rsp .ra: .cfa 8 - ^
STACK CFI b3020 .cfa: $rsp 80 +
STACK CFI INIT b3090 21 .cfa: $rsp .ra: .cfa 8 - ^
STACK CFI b3090 .cfa: $rsp 64 +
STACK CFI INIT b30c0 26 .cfa: $rsp .ra: .cfa 8 - ^
STACK CFI b30c0 .cfa: $rsp 8 +
STACK CFI INIT b30f0 26 .cfa: $rsp .ra: .cfa 8 - ^
STACK CFI b30f0 .cfa: $rsp 8 +
STACK CFI INIT b3120 b .cfa: $rsp .ra: .cfa 8 - ^
STACK CFI b3120 .cfa: $rsp 8 +
STACK CFI INIT b3130 2e0 .cfa: $rsp .ra: .cfa 8 - ^
STACK CFI b3130 .cfa: $rsp 112 +
STACK CFI INIT b3410 210 .cfa: $rsp .ra: .cfa 8 - ^
STACK CFI b3410 .cfa: $rsp 112 +
STACK CFI INIT b3620 47 .cfa: $rsp .ra: .cfa 8 - ^
STACK CFI b3620 .cfa: $rsp 64 +
STACK CFI INIT b3670 5c .cfa: $rsp .ra: .cfa 8 - ^
STACK CFI b3670 .cfa: $rsp 80 +
STACK CFI INIT b36d0 15 .cfa: $rsp .ra: .cfa 8 - ^
STACK CFI b36d0 .cfa: $rsp 8 +
STACK CFI INIT b36f0 1a .cfa: $rsp .ra: .cfa 8 - ^
STACK CFI b36f0 .cfa: $rsp 8 +
STACK CFI INIT b3710 14 .cfa: $rsp .ra: .cfa 8 - ^
STACK CFI b3710 .cfa: $rsp 8 +
STACK CFI INIT b3730 95 .cfa: $rsp .ra: .cfa 8 - ^
STACK CFI b3730 .cfa: $rsp 8 +
STACK CFI INIT b37d0 9f .cfa: $rsp .ra: .cfa 8 - ^
STACK CFI b37d0 .cfa: $rsp 64 +
STACK CFI INIT b3870 b .cfa: $rsp .ra: .cfa 8 - ^
STACK CFI b3870 .cfa: $rsp 8 +
STACK CFI INIT b3880 b .cfa: $rsp .ra: .cfa 8 - ^
STACK CFI b3880 .cfa: $rsp 8 +
STACK CFI INIT b3890 26 .cfa: $rsp .ra: .cfa 8 - ^
STACK CFI b3890 .cfa: $rsp 8 +
STACK CFI INIT b38c0 14 .cfa: $rsp .ra: .cfa 8 - ^
STACK CFI b38c0 .cfa: $rsp 8 +
STACK CFI INIT b38e0 276 .cfa: $rsp .ra: .cfa 8 - ^
STACK CFI b38e0 .cfa: $rsp 128 +
STACK CFI INIT b3b60 116 .cfa: $rsp .ra: .cfa 8 - ^
STACK CFI b3b60 .cfa: $rsp 96 +
STACK CFI INIT b3c80 b .cfa: $rsp .ra: .cfa 8 - ^
STACK CFI b3c80 .cfa: $rsp 8 +
STACK CFI INIT b3c90 5 .cfa: $rsp .ra: .cfa 8 - ^
STACK CFI b3c90 .cfa: $rsp 8 +
STACK CFI INIT b3ca0 26 .cfa: $rsp .ra: .cfa 8 - ^
STACK CFI b3ca0 .cfa: $rsp 8 +
STACK CFI INIT b3cd0 26 .cfa: $rsp .ra: .cfa 8 - ^
STACK CFI b3cd0 .cfa: $rsp 8 +
STACK CFI INIT b3d00 b .cfa: $rsp .ra: .cfa 8 - ^
STACK CFI b3d00 .cfa: $rsp 8 +
STACK CFI INIT b3d10 b .cfa: $rsp .ra: .cfa 8 - ^
STACK CFI b3d10 .cfa: $rsp 8 +
STACK CFI INIT b3d20 40 .cfa: $rsp .ra: .cfa 8 - ^
STACK CFI b3d20 .cfa: $rsp 48 +
STACK CFI INIT b3d60 163 .cfa: $rsp .ra: .cfa 8 - ^
STACK CFI b3d60 .cfa: $rsp 80 +
STACK CFI INIT b3ed0 47 .cfa: $rsp .ra: .cfa 8 - ^
STACK CFI b3ed0 .cfa: $rsp 48 +
STACK CFI INIT b3f20 1f .cfa: $rsp .ra: .cfa 8 - ^
STACK CFI b3f20 .cfa: $rsp 48 +
STACK CFI INIT b3f40 9b .cfa: $rsp .ra: .cfa 8 - ^
STACK CFI b3f40 .cfa: $rsp 80 +
STACK CFI INIT b3fe0 13d .cfa: $rsp .ra: .cfa 8 - ^
STACK CFI b3fe0 .cfa: $rsp 64 +
STACK CFI INIT b4120 47 .cfa: $rsp .ra: .cfa 8 - ^
STACK CFI b4120 .cfa: $rsp 64 +
STACK CFI INIT b4170 ba .cfa: $rsp .ra: .cfa 8 - ^
STACK CFI b4170 .cfa: $rsp 80 +
STACK CFI INIT b4230 97 .cfa: $rsp .ra: .cfa 8 - ^
STACK CFI b4230 .cfa: $rsp 80 +
STACK CFI INIT b42d0 d5 .cfa: $rsp .ra: .cfa 8 - ^
STACK CFI b42d0 .cfa: $rsp 112 +
STACK CFI INIT b43b0 316 .cfa: $rsp .ra: .cfa 8 - ^
STACK CFI b43b0 .cfa: $rsp 144 +
STACK CFI INIT b46d0 25 .cfa: $rsp .ra: .cfa 8 - ^
STACK CFI b46d0 .cfa: $rsp 64 +
STACK CFI INIT b4700 71 .cfa: $rsp .ra: .cfa 8 - ^
STACK CFI b4700 .cfa: $rsp 48 +
STACK CFI INIT b4780 36 .cfa: $rsp .ra: .cfa 8 - ^
STACK CFI b4780 .cfa: $rsp 48 +
STACK CFI INIT b47c0 ae .cfa: $rsp .ra: .cfa 8 - ^
STACK CFI b47c0 .cfa: $rsp 48 +
STACK CFI INIT b4870 1f .cfa: $rsp .ra: .cfa 8 - ^
STACK CFI b4870 .cfa: $rsp 48 +
STACK CFI INIT b4890 4c .cfa: $rsp .ra: .cfa 8 - ^
STACK CFI b4890 .cfa: $rsp 48 +
STACK CFI INIT b48e0 1d5 .cfa: $rsp .ra: .cfa 8 - ^
STACK CFI b48e0 .cfa: $rsp 208 +
STACK CFI INIT b4ac0 3d .cfa: $rsp .ra: .cfa 8 - ^
STACK CFI b4ac0 .cfa: $rsp 64 +
STACK CFI INIT b4b00 ba .cfa: $rsp .ra: .cfa 8 - ^
STACK CFI b4b00 .cfa: $rsp 64 +
STACK CFI INIT b4bc0 39 .cfa: $rsp .ra: .cfa 8 - ^
STACK CFI b4bc0 .cfa: $rsp 48 +
STACK CFI INIT b4c00 40 .cfa: $rsp .ra: .cfa 8 - ^
STACK CFI b4c00 .cfa: $rsp 64 +
STACK CFI INIT b4c40 91 .cfa: $rsp .ra: .cfa 8 - ^
STACK CFI b4c40 .cfa: $rsp 64 +
STACK CFI INIT b4ce0 b .cfa: $rsp .ra: .cfa 8 - ^
STACK CFI b4ce0 .cfa: $rsp 8 +
STACK CFI INIT b4cf0 c .cfa: $rsp .ra: .cfa 8 - ^
STACK CFI b4cf0 .cfa: $rsp 8 +
STACK CFI INIT b4d00 10 .cfa: $rsp .ra: .cfa 8 - ^
STACK CFI b4d00 .cfa: $rsp 8 +
STACK CFI INIT b4d10 10 .cfa: $rsp .ra: .cfa 8 - ^
STACK CFI b4d10 .cfa: $rsp 8 +
STACK CFI INIT b4d20 14 .cfa: $rsp .ra: .cfa 8 - ^
STACK CFI b4d20 .cfa: $rsp 48 +
STACK CFI INIT b4d40 e3 .cfa: $rsp .ra: .cfa 8 - ^
STACK CFI b4d40 .cfa: $rsp 112 +
STACK CFI INIT b4e30 10 .cfa: $rsp .ra: .cfa 8 - ^
STACK CFI b4e30 .cfa: $rsp 8 +
STACK CFI INIT b4e40 57 .cfa: $rsp .ra: .cfa 8 - ^
STACK CFI b4e40 .cfa: $rsp 64 +
STACK CFI INIT b4ea0 23 .cfa: $rsp .ra: .cfa 8 - ^
STACK CFI b4ea0 .cfa: $rsp 8 +
STACK CFI INIT b4ed0 2a .cfa: $rsp .ra: .cfa 8 - ^
STACK CFI b4ed0 .cfa: $rsp 64 +
STACK CFI INIT b4f00 33 .cfa: $rsp .ra: .cfa 8 - ^
STACK CFI b4f00 .cfa: $rsp 48 +
STACK CFI INIT b4f40 e2 .cfa: $rsp .ra: .cfa 8 - ^
STACK CFI b4f40 .cfa: $rsp 64 +
STACK CFI INIT b5030 a2 .cfa: $rsp .ra: .cfa 8 - ^
STACK CFI b5030 .cfa: $rsp 80 +
STACK CFI INIT b50e0 4eb .cfa: $rsp .ra: .cfa 8 - ^
STACK CFI b50e0 .cfa: $rsp 208 +
STACK CFI INIT b55d0 4a .cfa: $rsp .ra: .cfa 8 - ^
STACK CFI b55d0 .cfa: $rsp 64 +
STACK CFI INIT b5620 17f .cfa: $rsp .ra: .cfa 8 - ^
STACK CFI b5620 .cfa: $rsp 128 +
STACK CFI INIT b57a0 1 .cfa: $rsp .ra: .cfa 8 - ^
STACK CFI b57a0 .cfa: $rsp 8 +
STACK CFI INIT b57b0 6 .cfa: $rsp .ra: .cfa 8 - ^
STACK CFI b57b0 .cfa: $rsp 8 +
STACK CFI INIT b57c0 44 .cfa: $rsp .ra: .cfa 8 - ^
STACK CFI b57c0 .cfa: $rsp 80 +
STACK CFI INIT b5810 c3 .cfa: $rsp .ra: .cfa 8 - ^
STACK CFI b5810 .cfa: $rsp 96 +
STACK CFI INIT b58e0 996 .cfa: $rsp .ra: .cfa 8 - ^
STACK CFI b58e0 .cfa: $rsp 320 +
STACK CFI INIT b6280 211 .cfa: $rsp .ra: .cfa 8 - ^
STACK CFI b6280 .cfa: $rsp 128 +
STACK CFI INIT b64a0 6f .cfa: $rsp .ra: .cfa 8 - ^
STACK CFI b64a0 .cfa: $rsp 64 +
STACK CFI INIT b6510 199 .cfa: $rsp .ra: .cfa 8 - ^
STACK CFI b6510 .cfa: $rsp 160 +
STACK CFI INIT b66b0 b3 .cfa: $rsp .ra: .cfa 8 - ^
STACK CFI b66b0 .cfa: $rsp 80 +
STACK CFI INIT b6770 9a .cfa: $rsp .ra: .cfa 8 - ^
STACK CFI b6770 .cfa: $rsp 80 +
STACK CFI INIT b6810 19 .cfa: $rsp .ra: .cfa 8 - ^
STACK CFI b6810 .cfa: $rsp 8 +
STACK CFI INIT b6830 18e .cfa: $rsp .ra: .cfa 8 - ^
STACK CFI b6830 .cfa: $rsp 112 +
STACK CFI INIT b69c0 36 .cfa: $rsp .ra: .cfa 8 - ^
STACK CFI b69c0 .cfa: $rsp 96 +
STACK CFI INIT b6a00 126 .cfa: $rsp .ra: .cfa 8 - ^
STACK CFI b6a00 .cfa: $rsp 112 +
STACK CFI INIT b6b30 86 .cfa: $rsp .ra: .cfa 8 - ^
STACK CFI b6b30 .cfa: $rsp 64 +
STACK CFI INIT b6bc0 96 .cfa: $rsp .ra: .cfa 8 - ^
STACK CFI b6bc0 .cfa: $rsp 80 +
STACK CFI INIT b6c60 bc .cfa: $rsp .ra: .cfa 8 - ^
STACK CFI b6c60 .cfa: $rsp 112 +
STACK CFI INIT b6d20 1ec .cfa: $rsp .ra: .cfa 8 - ^
STACK CFI b6d20 .cfa: $rsp 112 +
STACK CFI INIT b6f10 158 .cfa: $rsp .ra: .cfa 8 - ^
STACK CFI b6f10 .cfa: $rsp 96 +
STACK CFI INIT b7070 556 .cfa: $rsp .ra: .cfa 8 - ^
STACK CFI b7070 .cfa: $rsp 208 +
STACK CFI INIT b75d0 6b .cfa: $rsp .ra: .cfa 8 - ^
STACK CFI b75d0 .cfa: $rsp 8 +
STACK CFI INIT b7640 c4 .cfa: $rsp .ra: .cfa 8 - ^
STACK CFI b7640 .cfa: $rsp 80 +
STACK CFI INIT b7710 2c5 .cfa: $rsp .ra: .cfa 8 - ^
STACK CFI b7710 .cfa: $rsp 176 +
STACK CFI INIT b79e0 1eb6 .cfa: $rsp .ra: .cfa 8 - ^
STACK CFI b79e0 .cfa: $rsp 96 +
STACK CFI INIT b98a0 119 .cfa: $rsp .ra: .cfa 8 - ^
STACK CFI b98a0 .cfa: $rsp 112 +
STACK CFI INIT b99c0 1246 .cfa: $rsp .ra: .cfa 8 - ^
STACK CFI b99c0 .cfa: $rsp 80 +
STACK CFI INIT bac10 139 .cfa: $rsp .ra: .cfa 8 - ^
STACK CFI bac10 .cfa: $rsp 96 +
STACK CFI INIT bad50 500 .cfa: $rsp .ra: .cfa 8 - ^
STACK CFI bad50 .cfa: $rsp 288 +
STACK CFI INIT bb250 e .cfa: $rsp .ra: .cfa 8 - ^
STACK CFI bb250 .cfa: $rsp 8 +
STACK CFI INIT bb260 68 .cfa: $rsp .ra: .cfa 8 - ^
STACK CFI bb260 .cfa: $rsp 48 +
STACK CFI INIT bb2d0 e1 .cfa: $rsp .ra: .cfa 8 - ^
STACK CFI bb2d0 .cfa: $rsp 96 +
STACK CFI INIT bb3c0 a8 .cfa: $rsp .ra: .cfa 8 - ^
STACK CFI bb3c0 .cfa: $rsp 80 +
STACK CFI INIT bb470 11 .cfa: $rsp .ra: .cfa 8 - ^
STACK CFI bb470 .cfa: $rsp 8 +
STACK CFI INIT bb490 6c .cfa: $rsp .ra: .cfa 8 - ^
STACK CFI bb490 .cfa: $rsp 80 +
STACK CFI INIT bb500 2f .cfa: $rsp .ra: .cfa 8 - ^
STACK CFI bb500 .cfa: $rsp 48 +
STACK CFI INIT bb530 cf .cfa: $rsp .ra: .cfa 8 - ^
STACK CFI bb530 .cfa: $rsp 96 +
STACK CFI INIT bb600 16 .cfa: $rsp .ra: .cfa 8 - ^
STACK CFI bb600 .cfa: $rsp 48 +
STACK CFI INIT bb620 5 .cfa: $rsp .ra: .cfa 8 - ^
STACK CFI bb620 .cfa: $rsp 8 +
STACK CFI INIT bb630 10c .cfa: $rsp .ra: .cfa 8 - ^
STACK CFI bb630 .cfa: $rsp 64 +
STACK CFI INIT bb740 e8 .cfa: $rsp .ra: .cfa 8 - ^
STACK CFI bb740 .cfa: $rsp 64 +
STACK CFI INIT bb830 1af .cfa: $rsp .ra: .cfa 8 - ^
STACK CFI bb830 .cfa: $rsp 160 +
STACK CFI INIT bb9e0 5 .cfa: $rsp .ra: .cfa 8 - ^
STACK CFI bb9e0 .cfa: $rsp 8 +
STACK CFI INIT bb9f0 247c .cfa: $rsp .ra: .cfa 8 - ^
STACK CFI bb9f0 .cfa: $rsp 368 +
STACK CFI INIT bde70 cb2 .cfa: $rsp .ra: .cfa 8 - ^
STACK CFI bde70 .cfa: $rsp 96 +
STACK CFI INIT beb30 ad .cfa: $rsp .ra: .cfa 8 - ^
STACK CFI beb30 .cfa: $rsp 64 +
STACK CFI INIT bebe0 1880 .cfa: $rsp .ra: .cfa 8 - ^
STACK CFI bebe0 .cfa: $rsp 96 +
STACK CFI INIT c0460 1b05 .cfa: $rsp .ra: .cfa 8 - ^
STACK CFI c0460 .cfa: $rsp 144 +
STACK CFI INIT c1f70 5a6 .cfa: $rsp .ra: .cfa 8 - ^
STACK CFI c1f70 .cfa: $rsp 224 +
STACK CFI INIT c2520 45 .cfa: $rsp .ra: .cfa 8 - ^
STACK CFI c2520 .cfa: $rsp 64 +
STACK CFI INIT c2570 126 .cfa: $rsp .ra: .cfa 8 - ^
STACK CFI c2570 .cfa: $rsp 96 +
STACK CFI INIT c26a0 10 .cfa: $rsp .ra: .cfa 8 - ^
STACK CFI c26a0 .cfa: $rsp 8 +
STACK CFI INIT c26b0 137 .cfa: $rsp .ra: .cfa 8 - ^
STACK CFI c26b0 .cfa: $rsp 80 +
STACK CFI INIT c27f0 7 .cfa: $rsp .ra: .cfa 8 - ^
STACK CFI c27f0 .cfa: $rsp 8 +
STACK CFI INIT c2800 7 .cfa: $rsp .ra: .cfa 8 - ^
STACK CFI c2800 .cfa: $rsp 8 +
STACK CFI INIT c2810 7 .cfa: $rsp .ra: .cfa 8 - ^
STACK CFI c2810 .cfa: $rsp 8 +
STACK CFI INIT c2820 81 .cfa: $rsp .ra: .cfa 8 - ^
STACK CFI c2820 .cfa: $rsp 64 +
STACK CFI INIT c28b0 1d .cfa: $rsp .ra: .cfa 8 - ^
STACK CFI c28b0 .cfa: $rsp 48 +
STACK CFI INIT c28d0 1d .cfa: $rsp .ra: .cfa 8 - ^
STACK CFI c28d0 .cfa: $rsp 48 +
STACK CFI INIT c28f0 7 .cfa: $rsp .ra: .cfa 8 - ^
STACK CFI c28f0 .cfa: $rsp 8 +
STACK CFI INIT c2900 1d .cfa: $rsp .ra: .cfa 8 - ^
STACK CFI c2900 .cfa: $rsp 48 +
STACK CFI INIT c2920 16 .cfa: $rsp .ra: .cfa 8 - ^
STACK CFI c2920 .cfa: $rsp 48 +
STACK CFI INIT c2940 16 .cfa: $rsp .ra: .cfa 8 - ^
STACK CFI c2940 .cfa: $rsp 48 +
STACK CFI INIT c2960 a .cfa: $rsp .ra: .cfa 8 - ^
STACK CFI c2960 .cfa: $rsp 8 +
STACK CFI INIT c2970 26 .cfa: $rsp .ra: .cfa 8 - ^
STACK CFI c2970 .cfa: $rsp 8 +
STACK CFI INIT c29a0 7 .cfa: $rsp .ra: .cfa 8 - ^
STACK CFI c29a0 .cfa: $rsp 8 +
STACK CFI INIT c29b0 1d .cfa: $rsp .ra: .cfa 8 - ^
STACK CFI c29b0 .cfa: $rsp 48 +
STACK CFI INIT c29d0 c7 .cfa: $rsp .ra: .cfa 8 - ^
STACK CFI c29d0 .cfa: $rsp 64 +
STACK CFI INIT c2aa0 16 .cfa: $rsp .ra: .cfa 8 - ^
STACK CFI c2aa0 .cfa: $rsp 48 +
STACK CFI INIT c2ac0 26 .cfa: $rsp .ra: .cfa 8 - ^
STACK CFI c2ac0 .cfa: $rsp 8 +
STACK CFI INIT c2af0 1d .cfa: $rsp .ra: .cfa 8 - ^
STACK CFI c2af0 .cfa: $rsp 48 +
STACK CFI INIT c2b10 26 .cfa: $rsp .ra: .cfa 8 - ^
STACK CFI c2b10 .cfa: $rsp 8 +
STACK CFI INIT c2b40 a .cfa: $rsp .ra: .cfa 8 - ^
STACK CFI c2b40 .cfa: $rsp 8 +
STACK CFI INIT c2b50 16 .cfa: $rsp .ra: .cfa 8 - ^
STACK CFI c2b50 .cfa: $rsp 48 +
STACK CFI INIT c2b70 5 .cfa: $rsp .ra: .cfa 8 - ^
STACK CFI c2b70 .cfa: $rsp 8 +
STACK CFI INIT c2b80 8 .cfa: $rsp .ra: .cfa 8 - ^
STACK CFI c2b80 .cfa: $rsp 8 +
STACK CFI INIT c2b90 1ca .cfa: $rsp .ra: .cfa 8 - ^
STACK CFI c2b90 .cfa: $rsp 48 +
STACK CFI INIT c2d60 1c6 .cfa: $rsp .ra: .cfa 8 - ^
STACK CFI c2d60 .cfa: $rsp 64 +
STACK CFI INIT c2f30 2b3 .cfa: $rsp .ra: .cfa 8 - ^
STACK CFI c2f30 .cfa: $rsp 96 +
STACK CFI INIT c31f0 1d .cfa: $rsp .ra: .cfa 8 - ^
STACK CFI c31f0 .cfa: $rsp 48 +
STACK CFI INIT c3210 1d .cfa: $rsp .ra: .cfa 8 - ^
STACK CFI c3210 .cfa: $rsp 48 +
STACK CFI INIT c3230 1d .cfa: $rsp .ra: .cfa 8 - ^
STACK CFI c3230 .cfa: $rsp 48 +
STACK CFI INIT c3250 1d .cfa: $rsp .ra: .cfa 8 - ^
STACK CFI c3250 .cfa: $rsp 48 +
STACK CFI INIT c3270 20 .cfa: $rsp .ra: .cfa 8 - ^
STACK CFI c3270 .cfa: $rsp 48 +
STACK CFI INIT c3290 36 .cfa: $rsp .ra: .cfa 8 - ^
STACK CFI c3290 .cfa: $rsp 64 +
STACK CFI INIT c32d0 36 .cfa: $rsp .ra: .cfa 8 - ^
STACK CFI c32d0 .cfa: $rsp 64 +
STACK CFI INIT c3310 49 .cfa: $rsp .ra: .cfa 8 - ^
STACK CFI c3310 .cfa: $rsp 80 +
STACK CFI INIT c3360 48 .cfa: $rsp .ra: .cfa 8 - ^
STACK CFI c3360 .cfa: $rsp 64 +
STACK CFI INIT c33b0 55 .cfa: $rsp .ra: .cfa 8 - ^
STACK CFI c33b0 .cfa: $rsp 64 +
STACK CFI INIT c3410 47 .cfa: $rsp .ra: .cfa 8 - ^
STACK CFI c3410 .cfa: $rsp 64 +
STACK CFI INIT c3460 48 .cfa: $rsp .ra: .cfa 8 - ^
STACK CFI c3460 .cfa: $rsp 64 +
STACK CFI INIT c34b0 64 .cfa: $rsp .ra: .cfa 8 - ^
STACK CFI c34b0 .cfa: $rsp 80 +
STACK CFI INIT c3520 64 .cfa: $rsp .ra: .cfa 8 - ^
STACK CFI c3520 .cfa: $rsp 80 +
STACK CFI INIT c3590 74 .cfa: $rsp .ra: .cfa 8 - ^
STACK CFI c3590 .cfa: $rsp 80 +
STACK CFI INIT c3610 11a .cfa: $rsp .ra: .cfa 8 - ^
STACK CFI c3610 .cfa: $rsp 64 +
STACK CFI INIT c3730 8a .cfa: $rsp .ra: .cfa 8 - ^
STACK CFI c3730 .cfa: $rsp 96 +
STACK CFI INIT c37c0 b7 .cfa: $rsp .ra: .cfa 8 - ^
STACK CFI c37c0 .cfa: $rsp 80 +
STACK CFI INIT c3880 f0 .cfa: $rsp .ra: .cfa 8 - ^
STACK CFI c3880 .cfa: $rsp 80 +
STACK CFI INIT c3970 4c .cfa: $rsp .ra: .cfa 8 - ^
STACK CFI c3970 .cfa: $rsp 48 +
STACK CFI INIT c39c0 b0 .cfa: $rsp .ra: .cfa 8 - ^
STACK CFI c39c0 .cfa: $rsp 64 +
STACK CFI INIT c3a70 166 .cfa: $rsp .ra: .cfa 8 - ^
STACK CFI c3a70 .cfa: $rsp 48 +
STACK CFI INIT c3be0 74 .cfa: $rsp .ra: .cfa 8 - ^
STACK CFI c3be0 .cfa: $rsp 80 +
STACK CFI INIT c3c60 3a .cfa: $rsp .ra: .cfa 8 - ^
STACK CFI c3c60 .cfa: $rsp 64 +
STACK CFI INIT c3ca0 7 .cfa: $rsp .ra: .cfa 8 - ^
STACK CFI c3ca0 .cfa: $rsp 8 +
STACK CFI INIT c3cb0 26 .cfa: $rsp .ra: .cfa 8 - ^
STACK CFI c3cb0 .cfa: $rsp 8 +
STACK CFI INIT c3ce0 7 .cfa: $rsp .ra: .cfa 8 - ^
STACK CFI c3ce0 .cfa: $rsp 8 +
STACK CFI INIT c3cf0 7 .cfa: $rsp .ra: .cfa 8 - ^
STACK CFI c3cf0 .cfa: $rsp 8 +
STACK CFI INIT c3d00 26 .cfa: $rsp .ra: .cfa 8 - ^
STACK CFI c3d00 .cfa: $rsp 8 +
STACK CFI INIT c3d30 26 .cfa: $rsp .ra: .cfa 8 - ^
STACK CFI c3d30 .cfa: $rsp 8 +
STACK CFI INIT c3d60 26 .cfa: $rsp .ra: .cfa 8 - ^
STACK CFI c3d60 .cfa: $rsp 8 +
STACK CFI INIT c3d90 26 .cfa: $rsp .ra: .cfa 8 - ^
STACK CFI c3d90 .cfa: $rsp 8 +
STACK CFI INIT c3dc0 7 .cfa: $rsp .ra: .cfa 8 - ^
STACK CFI c3dc0 .cfa: $rsp 8 +
STACK CFI INIT c3dd0 399 .cfa: $rsp .ra: .cfa 8 - ^
STACK CFI c3dd0 .cfa: $rsp 144 +
STACK CFI INIT c4170 1bc .cfa: $rsp .ra: .cfa 8 - ^
STACK CFI c4170 .cfa: $rsp 144 +
STACK CFI INIT c4330 1cc .cfa: $rsp .ra: .cfa 8 - ^
STACK CFI c4330 .cfa: $rsp 144 +
STACK CFI INIT c4500 31 .cfa: $rsp .ra: .cfa 8 - ^
STACK CFI c4500 .cfa: $rsp 48 +
STACK CFI INIT c4540 be .cfa: $rsp .ra: .cfa 8 - ^
STACK CFI c4540 .cfa: $rsp 80 +
STACK CFI INIT c4600 4a .cfa: $rsp .ra: .cfa 8 - ^
STACK CFI c4600 .cfa: $rsp 64 +
STACK CFI INIT c4650 80 .cfa: $rsp .ra: .cfa 8 - ^
STACK CFI c4650 .cfa: $rsp 80 +
STACK CFI INIT c46d0 10 .cfa: $rsp .ra: .cfa 8 - ^
STACK CFI c46d0 .cfa: $rsp 8 +
STACK CFI INIT c46e0 87 .cfa: $rsp .ra: .cfa 8 - ^
STACK CFI c46e0 .cfa: $rsp 48 +
STACK CFI INIT c4770 3c .cfa: $rsp .ra: .cfa 8 - ^
STACK CFI c4770 .cfa: $rsp 64 +
STACK CFI INIT c47b0 2a .cfa: $rsp .ra: .cfa 8 - ^
STACK CFI c47b0 .cfa: $rsp 48 +
STACK CFI INIT c47e0 c .cfa: $rsp .ra: .cfa 8 - ^
STACK CFI c47e0 .cfa: $rsp 8 +
STACK CFI INIT c47f0 7 .cfa: $rsp .ra: .cfa 8 - ^
STACK CFI c47f0 .cfa: $rsp 8 +
STACK CFI INIT c4800 76 .cfa: $rsp .ra: .cfa 8 - ^
STACK CFI c4800 .cfa: $rsp 64 +
STACK CFI INIT c4880 35 .cfa: $rsp .ra: .cfa 8 - ^
STACK CFI c4880 .cfa: $rsp 48 +
STACK CFI INIT c48c0 190 .cfa: $rsp .ra: .cfa 8 - ^
STACK CFI c48c0 .cfa: $rsp 112 +
STACK CFI INIT c4a50 e .cfa: $rsp .ra: .cfa 8 - ^
STACK CFI c4a50 .cfa: $rsp 8 +
STACK CFI INIT c4a60 182 .cfa: $rsp .ra: .cfa 8 - ^
STACK CFI c4a60 .cfa: $rsp 96 +
STACK CFI INIT c4bf0 45 .cfa: $rsp .ra: .cfa 8 - ^
STACK CFI c4bf0 .cfa: $rsp 64 +
STACK CFI INIT c4c40 4e .cfa: $rsp .ra: .cfa 8 - ^
STACK CFI c4c40 .cfa: $rsp 8 +
STACK CFI INIT c4c90 4e .cfa: $rsp .ra: .cfa 8 - ^
STACK CFI c4c90 .cfa: $rsp 8 +
STACK CFI INIT c4ce0 ac .cfa: $rsp .ra: .cfa 8 - ^
STACK CFI c4ce0 .cfa: $rsp 96 +
STACK CFI INIT c4d90 12d .cfa: $rsp .ra: .cfa 8 - ^
STACK CFI c4d90 .cfa: $rsp 96 +
STACK CFI INIT c4ec0 91 .cfa: $rsp .ra: .cfa 8 - ^
STACK CFI c4ec0 .cfa: $rsp 80 +
STACK CFI INIT c4f60 11 .cfa: $rsp .ra: .cfa 8 - ^
STACK CFI c4f60 .cfa: $rsp 8 +
STACK CFI INIT c4f80 46 .cfa: $rsp .ra: .cfa 8 - ^
STACK CFI c4f80 .cfa: $rsp 48 +
STACK CFI INIT c4fd0 65 .cfa: $rsp .ra: .cfa 8 - ^
STACK CFI c4fd0 .cfa: $rsp 48 +
STACK CFI INIT c5040 7 .cfa: $rsp .ra: .cfa 8 - ^
STACK CFI c5040 .cfa: $rsp 8 +
STACK CFI INIT c5050 81 .cfa: $rsp .ra: .cfa 8 - ^
STACK CFI c5050 .cfa: $rsp 64 +
STACK CFI INIT c50e0 8 .cfa: $rsp .ra: .cfa 8 - ^
STACK CFI c50e0 .cfa: $rsp 8 +
STACK CFI INIT c50f0 7 .cfa: $rsp .ra: .cfa 8 - ^
STACK CFI c50f0 .cfa: $rsp 8 +
STACK CFI INIT c5100 7 .cfa: $rsp .ra: .cfa 8 - ^
STACK CFI c5100 .cfa: $rsp 8 +
STACK CFI INIT c5110 19 .cfa: $rsp .ra: .cfa 8 - ^
STACK CFI c5110 .cfa: $rsp 48 +
STACK CFI INIT c5130 8 .cfa: $rsp .ra: .cfa 8 - ^
STACK CFI c5130 .cfa: $rsp 8 +
STACK CFI INIT c5140 3e3 .cfa: $rsp .ra: .cfa 8 - ^
STACK CFI c5140 .cfa: $rsp 144 +
STACK CFI INIT c5530 4b8 .cfa: $rsp .ra: .cfa 8 - ^
STACK CFI c5530 .cfa: $rsp 192 +
STACK CFI INIT c59f0 7a7 .cfa: $rsp .ra: .cfa 8 - ^
STACK CFI c59f0 .cfa: $rsp 224 +
STACK CFI INIT c61a0 1e54 .cfa: $rsp .ra: .cfa 8 - ^
STACK CFI c61a0 .cfa: $rsp 128 +
STACK CFI INIT c8000 1be .cfa: $rsp .ra: .cfa 8 - ^
STACK CFI c8000 .cfa: $rsp 96 +
STACK CFI INIT c81c0 eb .cfa: $rsp .ra: .cfa 8 - ^
STACK CFI c81c0 .cfa: $rsp 96 +
STACK CFI INIT c82b0 f0 .cfa: $rsp .ra: .cfa 8 - ^
STACK CFI c82b0 .cfa: $rsp 96 +
STACK CFI INIT c83a0 93 .cfa: $rsp .ra: .cfa 8 - ^
STACK CFI c83a0 .cfa: $rsp 96 +
STACK CFI INIT c8440 93 .cfa: $rsp .ra: .cfa 8 - ^
STACK CFI c8440 .cfa: $rsp 96 +
STACK CFI INIT c84e0 36 .cfa: $rsp .ra: .cfa 8 - ^
STACK CFI c84e0 .cfa: $rsp 48 +
STACK CFI INIT c8520 28 .cfa: $rsp .ra: .cfa 8 - ^
STACK CFI c8520 .cfa: $rsp 48 +
STACK CFI INIT c8550 1d .cfa: $rsp .ra: .cfa 8 - ^
STACK CFI c8550 .cfa: $rsp 8 +
STACK CFI INIT c8570 6 .cfa: $rsp .ra: .cfa 8 - ^
STACK CFI c8570 .cfa: $rsp 8 +
STACK CFI INIT c8580 37c .cfa: $rsp .ra: .cfa 8 - ^
STACK CFI c8580 .cfa: $rsp 80 +
STACK CFI INIT c8900 1d .cfa: $rsp .ra: .cfa 8 - ^
STACK CFI c8900 .cfa: $rsp 48 +
STACK CFI INIT c8920 62 .cfa: $rsp .ra: .cfa 8 - ^
STACK CFI c8920 .cfa: $rsp 80 +
STACK CFI INIT c8990 90 .cfa: $rsp .ra: .cfa 8 - ^
STACK CFI c8990 .cfa: $rsp 80 +
STACK CFI INIT c8a20 c0 .cfa: $rsp .ra: .cfa 8 - ^
STACK CFI c8a20 .cfa: $rsp 80 +
STACK CFI INIT c8ae0 21 .cfa: $rsp .ra: .cfa 8 - ^
STACK CFI c8ae0 .cfa: $rsp 8 +
STACK CFI INIT c8b10 47 .cfa: $rsp .ra: .cfa 8 - ^
STACK CFI c8b10 .cfa: $rsp 48 +
STACK CFI INIT c8b60 43 .cfa: $rsp .ra: .cfa 8 - ^
STACK CFI c8b60 .cfa: $rsp 8 +
STACK CFI INIT c8bb0 22 .cfa: $rsp .ra: .cfa 8 - ^
STACK CFI c8bb0 .cfa: $rsp 8 +
STACK CFI INIT c8be0 42 .cfa: $rsp .ra: .cfa 8 - ^
STACK CFI c8be0 .cfa: $rsp 64 +
STACK CFI INIT c8c30 1f .cfa: $rsp .ra: .cfa 8 - ^
STACK CFI c8c30 .cfa: $rsp 48 +
STACK CFI INIT c8c50 1ac .cfa: $rsp .ra: .cfa 8 - ^
STACK CFI c8c50 .cfa: $rsp 304 +
STACK CFI INIT c8e00 d5 .cfa: $rsp .ra: .cfa 8 - ^
STACK CFI c8e00 .cfa: $rsp 48 +
STACK CFI INIT c8ee0 207 .cfa: $rsp .ra: .cfa 8 - ^
STACK CFI c8ee0 .cfa: $rsp 320 +
STACK CFI INIT c90f0 39 .cfa: $rsp .ra: .cfa 8 - ^
STACK CFI c90f0 .cfa: $rsp 48 +
STACK CFI INIT c9130 1a .cfa: $rsp .ra: .cfa 8 - ^
STACK CFI c9130 .cfa: $rsp 8 +
STACK CFI INIT c9150 14 .cfa: $rsp .ra: .cfa 8 - ^
STACK CFI c9150 .cfa: $rsp 8 +
STACK CFI INIT c9170 30 .cfa: $rsp .ra: .cfa 8 - ^
STACK CFI c9170 .cfa: $rsp 64 +
STACK CFI INIT c91a0 30 .cfa: $rsp .ra: .cfa 8 - ^
STACK CFI c91a0 .cfa: $rsp 64 +
STACK CFI INIT c91d0 39 .cfa: $rsp .ra: .cfa 8 - ^
STACK CFI c91d0 .cfa: $rsp 64 +
STACK CFI INIT c9210 3a .cfa: $rsp .ra: .cfa 8 - ^
STACK CFI c9210 .cfa: $rsp 64 +
STACK CFI INIT c9250 3a .cfa: $rsp .ra: .cfa 8 - ^
STACK CFI c9250 .cfa: $rsp 64 +
STACK CFI INIT c9290 bc .cfa: $rsp .ra: .cfa 8 - ^
STACK CFI c9290 .cfa: $rsp 80 +
STACK CFI INIT c9350 a .cfa: $rsp .ra: .cfa 8 - ^
STACK CFI c9350 .cfa: $rsp 8 +
STACK CFI INIT c9360 20f .cfa: $rsp .ra: .cfa 8 - ^
STACK CFI c9360 .cfa: $rsp 304 +
STACK CFI INIT c9570 45 .cfa: $rsp .ra: .cfa 8 - ^
STACK CFI c9570 .cfa: $rsp 64 +
STACK CFI INIT c95c0 45 .cfa: $rsp .ra: .cfa 8 - ^
STACK CFI c95c0 .cfa: $rsp 64 +
STACK CFI INIT c9610 83 .cfa: $rsp .ra: .cfa 8 - ^
STACK CFI c9610 .cfa: $rsp 80 +
STACK CFI INIT c96a0 cc .cfa: $rsp .ra: .cfa 8 - ^
STACK CFI c96a0 .cfa: $rsp 80 +
STACK CFI INIT c9770 229 .cfa: $rsp .ra: .cfa 8 - ^
STACK CFI c9770 .cfa: $rsp 112 +
STACK CFI INIT c99a0 b .cfa: $rsp .ra: .cfa 8 - ^
STACK CFI c99a0 .cfa: $rsp 8 +
STACK CFI INIT c99b0 c .cfa: $rsp .ra: .cfa 8 - ^
STACK CFI c99b0 .cfa: $rsp 8 +
STACK CFI INIT c99c0 b .cfa: $rsp .ra: .cfa 8 - ^
STACK CFI c99c0 .cfa: $rsp 8 +
STACK CFI INIT c99d0 b .cfa: $rsp .ra: .cfa 8 - ^
STACK CFI c99d0 .cfa: $rsp 8 +
STACK CFI INIT c99e0 b .cfa: $rsp .ra: .cfa 8 - ^
STACK CFI c99e0 .cfa: $rsp 8 +
STACK CFI INIT c99f0 b .cfa: $rsp .ra: .cfa 8 - ^
STACK CFI c99f0 .cfa: $rsp 8 +
STACK CFI INIT c9a00 b .cfa: $rsp .ra: .cfa 8 - ^
STACK CFI c9a00 .cfa: $rsp 8 +
STACK CFI INIT c9a10 75 .cfa: $rsp .ra: .cfa 8 - ^
STACK CFI c9a10 .cfa: $rsp 80 +
STACK CFI INIT c9a90 26 .cfa: $rsp .ra: .cfa 8 - ^
STACK CFI c9a90 .cfa: $rsp 8 +
STACK CFI INIT c9ac0 12 .cfa: $rsp .ra: .cfa 8 - ^
STACK CFI c9ac0 .cfa: $rsp 8 +
STACK CFI INIT c9ae0 23 .cfa: $rsp .ra: .cfa 8 - ^
STACK CFI c9ae0 .cfa: $rsp 8 +
STACK CFI INIT c9b10 23 .cfa: $rsp .ra: .cfa 8 - ^
STACK CFI c9b10 .cfa: $rsp 8 +
STACK CFI INIT c9b40 b .cfa: $rsp .ra: .cfa 8 - ^
STACK CFI c9b40 .cfa: $rsp 8 +
STACK CFI INIT c9b50 2f .cfa: $rsp .ra: .cfa 8 - ^
STACK CFI c9b50 .cfa: $rsp 48 +
STACK CFI INIT c9b80 83 .cfa: $rsp .ra: .cfa 8 - ^
STACK CFI c9b80 .cfa: $rsp 64 +
STACK CFI INIT c9c10 21 .cfa: $rsp .ra: .cfa 8 - ^
STACK CFI c9c10 .cfa: $rsp 48 +
STACK CFI INIT c9c40 1e .cfa: $rsp .ra: .cfa 8 - ^
STACK CFI c9c40 .cfa: $rsp 48 +
STACK CFI INIT c9c60 e .cfa: $rsp .ra: .cfa 8 - ^
STACK CFI c9c60 .cfa: $rsp 8 +
STACK CFI INIT c9c70 10 .cfa: $rsp .ra: .cfa 8 - ^
STACK CFI c9c70 .cfa: $rsp 8 +
STACK CFI INIT c9c80 21 .cfa: $rsp .ra: .cfa 8 - ^
STACK CFI c9c80 .cfa: $rsp 48 +
STACK CFI INIT c9cb0 16 .cfa: $rsp .ra: .cfa 8 - ^
STACK CFI c9cb0 .cfa: $rsp 48 +
STACK CFI INIT c9cd0 5 .cfa: $rsp .ra: .cfa 8 - ^
STACK CFI c9cd0 .cfa: $rsp 8 +
STACK CFI INIT c9ce0 5 .cfa: $rsp .ra: .cfa 8 - ^
STACK CFI c9ce0 .cfa: $rsp 8 +
STACK CFI INIT c9cf0 16 .cfa: $rsp .ra: .cfa 8 - ^
STACK CFI c9cf0 .cfa: $rsp 48 +
STACK CFI INIT c9d10 5 .cfa: $rsp .ra: .cfa 8 - ^
STACK CFI c9d10 .cfa: $rsp 8 +
STACK CFI INIT c9d20 16 .cfa: $rsp .ra: .cfa 8 - ^
STACK CFI c9d20 .cfa: $rsp 48 +
STACK CFI INIT c9d40 120 .cfa: $rsp .ra: .cfa 8 - ^
STACK CFI c9d40 .cfa: $rsp 112 +
STACK CFI INIT c9e60 103 .cfa: $rsp .ra: .cfa 8 - ^
STACK CFI c9e60 .cfa: $rsp 128 +
STACK CFI INIT c9f70 157 .cfa: $rsp .ra: .cfa 8 - ^
STACK CFI c9f70 .cfa: $rsp 144 +
STACK CFI INIT ca0d0 d9 .cfa: $rsp .ra: .cfa 8 - ^
STACK CFI ca0d0 .cfa: $rsp 96 +
STACK CFI INIT ca1b0 229 .cfa: $rsp .ra: .cfa 8 - ^
STACK CFI ca1b0 .cfa: $rsp 144 +
STACK CFI INIT ca3e0 b2 .cfa: $rsp .ra: .cfa 8 - ^
STACK CFI ca3e0 .cfa: $rsp 96 +
STACK CFI INIT ca4a0 c .cfa: $rsp .ra: .cfa 8 - ^
STACK CFI ca4a0 .cfa: $rsp 8 +
STACK CFI INIT ca4b0 3ca .cfa: $rsp .ra: .cfa 8 - ^
STACK CFI ca4b0 .cfa: $rsp 112 +
STACK CFI INIT ca880 35c .cfa: $rsp .ra: .cfa 8 - ^
STACK CFI ca880 .cfa: $rsp 96 +
STACK CFI INIT cabe0 16 .cfa: $rsp .ra: .cfa 8 - ^
STACK CFI cabe0 .cfa: $rsp 8 +
STACK CFI INIT cac00 16 .cfa: $rsp .ra: .cfa 8 - ^
STACK CFI cac00 .cfa: $rsp 8 +
STACK CFI INIT cac20 8 .cfa: $rsp .ra: .cfa 8 - ^
STACK CFI cac20 .cfa: $rsp 8 +
STACK CFI INIT cac30 16a .cfa: $rsp .ra: .cfa 8 - ^
STACK CFI cac30 .cfa: $rsp 80 +
STACK CFI INIT cada0 9 .cfa: $rsp .ra: .cfa 8 - ^
STACK CFI cada0 .cfa: $rsp 8 +
STACK CFI INIT cadb0 c6 .cfa: $rsp .ra: .cfa 8 - ^
STACK CFI cadb0 .cfa: $rsp 80 +
STACK CFI INIT cae80 24 .cfa: $rsp .ra: .cfa 8 - ^
STACK CFI cae80 .cfa: $rsp 64 +
STACK CFI INIT caeb0 ac .cfa: $rsp .ra: .cfa 8 - ^
STACK CFI caeb0 .cfa: $rsp 80 +
STACK CFI INIT caf60 2d .cfa: $rsp .ra: .cfa 8 - ^
STACK CFI caf60 .cfa: $rsp 8 +
STACK CFI INIT caf90 1b .cfa: $rsp .ra: .cfa 8 - ^
STACK CFI caf90 .cfa: $rsp 8 +
STACK CFI INIT cafb0 93 .cfa: $rsp .ra: .cfa 8 - ^
STACK CFI cafb0 .cfa: $rsp 96 +
STACK CFI INIT cb050 1b .cfa: $rsp .ra: .cfa 8 - ^
STACK CFI cb050 .cfa: $rsp 8 +
STACK CFI INIT cb070 b .cfa: $rsp .ra: .cfa 8 - ^
STACK CFI cb070 .cfa: $rsp 8 +
STACK CFI INIT cb080 23 .cfa: $rsp .ra: .cfa 8 - ^
STACK CFI cb080 .cfa: $rsp 8 +
STACK CFI INIT cb0b0 11 .cfa: $rsp .ra: .cfa 8 - ^
STACK CFI cb0b0 .cfa: $rsp 8 +
STACK CFI INIT cb0d0 b .cfa: $rsp .ra: .cfa 8 - ^
STACK CFI cb0d0 .cfa: $rsp 8 +
STACK CFI INIT cb0e0 6f .cfa: $rsp .ra: .cfa 8 - ^
STACK CFI cb0e0 .cfa: $rsp 48 +
STACK CFI INIT cb150 44 .cfa: $rsp .ra: .cfa 8 - ^
STACK CFI cb150 .cfa: $rsp 8 +
STACK CFI INIT cb1a0 42a .cfa: $rsp .ra: .cfa 8 - ^
STACK CFI cb1a0 .cfa: $rsp 224 +
STACK CFI INIT cb5d0 526 .cfa: $rsp .ra: .cfa 8 - ^
STACK CFI cb5d0 .cfa: $rsp 112 +
STACK CFI INIT cbb00 37b .cfa: $rsp .ra: .cfa 8 - ^
STACK CFI cbb00 .cfa: $rsp 96 +
STACK CFI INIT cbe80 24a .cfa: $rsp .ra: .cfa 8 - ^
STACK CFI cbe80 .cfa: $rsp 48 +
STACK CFI INIT cc0d0 21 .cfa: $rsp .ra: .cfa 8 - ^
STACK CFI cc0d0 .cfa: $rsp 48 +
STACK CFI INIT cc100 21 .cfa: $rsp .ra: .cfa 8 - ^
STACK CFI cc100 .cfa: $rsp 48 +
STACK CFI INIT cc130 21 .cfa: $rsp .ra: .cfa 8 - ^
STACK CFI cc130 .cfa: $rsp 48 +
STACK CFI INIT cc160 3a5 .cfa: $rsp .ra: .cfa 8 - ^
STACK CFI cc160 .cfa: $rsp 112 +
STACK CFI INIT cc510 16 .cfa: $rsp .ra: .cfa 8 - ^
STACK CFI cc510 .cfa: $rsp 48 +
STACK CFI INIT cc530 4b .cfa: $rsp .ra: .cfa 8 - ^
STACK CFI cc530 .cfa: $rsp 80 +
STACK CFI INIT cc580 51 .cfa: $rsp .ra: .cfa 8 - ^
STACK CFI cc580 .cfa: $rsp 80 +
STACK CFI INIT cc5e0 21 .cfa: $rsp .ra: .cfa 8 - ^
STACK CFI cc5e0 .cfa: $rsp 48 +
STACK CFI INIT cc610 3a5 .cfa: $rsp .ra: .cfa 8 - ^
STACK CFI cc610 .cfa: $rsp 112 +
STACK CFI INIT cc9c0 16 .cfa: $rsp .ra: .cfa 8 - ^
STACK CFI cc9c0 .cfa: $rsp 48 +
STACK CFI INIT cc9e0 3c7 .cfa: $rsp .ra: .cfa 8 - ^
STACK CFI cc9e0 .cfa: $rsp 112 +
STACK CFI INIT ccdb0 16 .cfa: $rsp .ra: .cfa 8 - ^
STACK CFI ccdb0 .cfa: $rsp 48 +
STACK CFI INIT ccdd0 567 .cfa: $rsp .ra: .cfa 8 - ^
STACK CFI ccdd0 .cfa: $rsp 96 +
STACK CFI INIT cd340 1cb .cfa: $rsp .ra: .cfa 8 - ^
STACK CFI cd340 .cfa: $rsp 96 +
STACK CFI INIT cd510 4b .cfa: $rsp .ra: .cfa 8 - ^
STACK CFI cd510 .cfa: $rsp 80 +
STACK CFI INIT cd560 2bb .cfa: $rsp .ra: .cfa 8 - ^
STACK CFI cd560 .cfa: $rsp 96 +
STACK CFI INIT cd820 21 .cfa: $rsp .ra: .cfa 8 - ^
STACK CFI cd820 .cfa: $rsp 48 +
STACK CFI INIT cd850 286 .cfa: $rsp .ra: .cfa 8 - ^
STACK CFI cd850 .cfa: $rsp 64 +
STACK CFI INIT cdaf0 1f .cfa: $rsp .ra: .cfa 8 - ^
STACK CFI cdaf0 .cfa: $rsp 48 +
STACK CFI INIT cdb20 4b .cfa: $rsp .ra: .cfa 8 - ^
STACK CFI cdb20 .cfa: $rsp 80 +
STACK CFI INIT cdb70 5b .cfa: $rsp .ra: .cfa 8 - ^
STACK CFI cdb70 .cfa: $rsp 48 +
STACK CFI INIT cdbd0 4e .cfa: $rsp .ra: .cfa 8 - ^
STACK CFI cdbd0 .cfa: $rsp 64 +
STACK CFI INIT cdc20 ba .cfa: $rsp .ra: .cfa 8 - ^
STACK CFI cdc20 .cfa: $rsp 128 +
STACK CFI INIT cdce0 ca .cfa: $rsp .ra: .cfa 8 - ^
STACK CFI cdce0 .cfa: $rsp 128 +
STACK CFI INIT cddb0 3a6 .cfa: $rsp .ra: .cfa 8 - ^
STACK CFI cddb0 .cfa: $rsp 112 +
STACK CFI INIT ce160 1ea .cfa: $rsp .ra: .cfa 8 - ^
STACK CFI ce160 .cfa: $rsp 112 +
STACK CFI INIT ce350 f6 .cfa: $rsp .ra: .cfa 8 - ^
STACK CFI ce350 .cfa: $rsp 128 +
STACK CFI INIT ce450 f3 .cfa: $rsp .ra: .cfa 8 - ^
STACK CFI ce450 .cfa: $rsp 80 +
STACK CFI INIT ce550 10 .cfa: $rsp .ra: .cfa 8 - ^
STACK CFI ce550 .cfa: $rsp 8 +
STACK CFI INIT ce560 57 .cfa: $rsp .ra: .cfa 8 - ^
STACK CFI ce560 .cfa: $rsp 80 +
STACK CFI INIT ce5c0 4d .cfa: $rsp .ra: .cfa 8 - ^
STACK CFI ce5c0 .cfa: $rsp 80 +
STACK CFI INIT ce610 10 .cfa: $rsp .ra: .cfa 8 - ^
STACK CFI ce610 .cfa: $rsp 8 +
STACK CFI INIT ce620 4f9 .cfa: $rsp .ra: .cfa 8 - ^
STACK CFI ce620 .cfa: $rsp 112 +
STACK CFI INIT ceb20 5 .cfa: $rsp .ra: .cfa 8 - ^
STACK CFI ceb20 .cfa: $rsp 8 +
STACK CFI INIT ceb30 4cb .cfa: $rsp .ra: .cfa 8 - ^
STACK CFI ceb30 .cfa: $rsp 112 +
STACK CFI INIT cf000 4cb .cfa: $rsp .ra: .cfa 8 - ^
STACK CFI cf000 .cfa: $rsp 112 +
STACK CFI INIT cf4d0 5 .cfa: $rsp .ra: .cfa 8 - ^
STACK CFI cf4d0 .cfa: $rsp 8 +
STACK CFI INIT cf4e0 58a .cfa: $rsp .ra: .cfa 8 - ^
STACK CFI cf4e0 .cfa: $rsp 112 +
STACK CFI INIT cfa70 48b .cfa: $rsp .ra: .cfa 8 - ^
STACK CFI cfa70 .cfa: $rsp 112 +
STACK CFI INIT cff00 5 .cfa: $rsp .ra: .cfa 8 - ^
STACK CFI cff00 .cfa: $rsp 8 +
STACK CFI INIT cff10 48b .cfa: $rsp .ra: .cfa 8 - ^
STACK CFI cff10 .cfa: $rsp 112 +
STACK CFI INIT d03a0 5 .cfa: $rsp .ra: .cfa 8 - ^
STACK CFI d03a0 .cfa: $rsp 8 +
STACK CFI INIT d03b0 4db .cfa: $rsp .ra: .cfa 8 - ^
STACK CFI d03b0 .cfa: $rsp 112 +
STACK CFI INIT d0890 5 .cfa: $rsp .ra: .cfa 8 - ^
STACK CFI d0890 .cfa: $rsp 8 +
STACK CFI INIT d08a0 241a .cfa: $rsp .ra: .cfa 8 - ^
STACK CFI d08a0 .cfa: $rsp 176 +
STACK CFI INIT d2cc0 3c6 .cfa: $rsp .ra: .cfa 8 - ^
STACK CFI d2cc0 .cfa: $rsp 160 +
STACK CFI INIT d3090 14a .cfa: $rsp .ra: .cfa 8 - ^
STACK CFI d3090 .cfa: $rsp 160 +
STACK CFI INIT d31e0 bd .cfa: $rsp .ra: .cfa 8 - ^
STACK CFI d31e0 .cfa: $rsp 64 +
STACK CFI INIT d32a0 d3 .cfa: $rsp .ra: .cfa 8 - ^
STACK CFI d32a0 .cfa: $rsp 80 +
STACK CFI INIT d3380 6a7 .cfa: $rsp .ra: .cfa 8 - ^
STACK CFI d3380 .cfa: $rsp 128 +
STACK CFI INIT d3a30 4d .cfa: $rsp .ra: .cfa 8 - ^
STACK CFI d3a30 .cfa: $rsp 64 +
STACK CFI INIT d3a80 4d .cfa: $rsp .ra: .cfa 8 - ^
STACK CFI d3a80 .cfa: $rsp 48 +
STACK CFI INIT d3ad0 9c .cfa: $rsp .ra: .cfa 8 - ^
STACK CFI d3ad0 .cfa: $rsp 64 +
STACK CFI INIT d3b70 5c .cfa: $rsp .ra: .cfa 8 - ^
STACK CFI d3b70 .cfa: $rsp 48 +
STACK CFI INIT d3bd0 aa .cfa: $rsp .ra: .cfa 8 - ^
STACK CFI d3bd0 .cfa: $rsp 112 +
STACK CFI INIT d3c80 e5 .cfa: $rsp .ra: .cfa 8 - ^
STACK CFI d3c80 .cfa: $rsp 144 +
STACK CFI INIT d3d70 45 .cfa: $rsp .ra: .cfa 8 - ^
STACK CFI d3d70 .cfa: $rsp 64 +
STACK CFI INIT d3dc0 7a .cfa: $rsp .ra: .cfa 8 - ^
STACK CFI d3dc0 .cfa: $rsp 80 +
STACK CFI INIT d3e40 28 .cfa: $rsp .ra: .cfa 8 - ^
STACK CFI d3e40 .cfa: $rsp 8 +
STACK CFI INIT d3e70 46 .cfa: $rsp .ra: .cfa 8 - ^
STACK CFI d3e70 .cfa: $rsp 48 +
STACK CFI INIT d3ec0 fa .cfa: $rsp .ra: .cfa 8 - ^
STACK CFI d3ec0 .cfa: $rsp 48 +
STACK CFI INIT d3fc0 10 .cfa: $rsp .ra: .cfa 8 - ^
STACK CFI d3fc0 .cfa: $rsp 8 +
STACK CFI INIT d3fd0 106 .cfa: $rsp .ra: .cfa 8 - ^
STACK CFI d3fd0 .cfa: $rsp 64 +
STACK CFI INIT d40e0 26 .cfa: $rsp .ra: .cfa 8 - ^
STACK CFI d40e0 .cfa: $rsp 8 +
STACK CFI INIT d4110 26 .cfa: $rsp .ra: .cfa 8 - ^
STACK CFI d4110 .cfa: $rsp 8 +
STACK CFI INIT d4140 7 .cfa: $rsp .ra: .cfa 8 - ^
STACK CFI d4140 .cfa: $rsp 8 +
STACK CFI INIT d4150 26 .cfa: $rsp .ra: .cfa 8 - ^
STACK CFI d4150 .cfa: $rsp 8 +
STACK CFI INIT d4180 7 .cfa: $rsp .ra: .cfa 8 - ^
STACK CFI d4180 .cfa: $rsp 8 +
STACK CFI INIT d4190 a0 .cfa: $rsp .ra: .cfa 8 - ^
STACK CFI d4190 .cfa: $rsp 64 +
STACK CFI INIT d4230 55 .cfa: $rsp .ra: .cfa 8 - ^
STACK CFI d4230 .cfa: $rsp 64 +
STACK CFI INIT d4290 55 .cfa: $rsp .ra: .cfa 8 - ^
STACK CFI d4290 .cfa: $rsp 64 +
STACK CFI INIT d42f0 49 .cfa: $rsp .ra: .cfa 8 - ^
STACK CFI d42f0 .cfa: $rsp 48 +
STACK CFI INIT d4340 10 .cfa: $rsp .ra: .cfa 8 - ^
STACK CFI d4340 .cfa: $rsp 8 +
STACK CFI INIT d4350 c7 .cfa: $rsp .ra: .cfa 8 - ^
STACK CFI d4350 .cfa: $rsp 64 +
STACK CFI INIT d4420 d3 .cfa: $rsp .ra: .cfa 8 - ^
STACK CFI d4420 .cfa: $rsp 64 +
STACK CFI INIT d4500 26 .cfa: $rsp .ra: .cfa 8 - ^
STACK CFI d4500 .cfa: $rsp 8 +
STACK CFI INIT d4530 26 .cfa: $rsp .ra: .cfa 8 - ^
STACK CFI d4530 .cfa: $rsp 8 +
STACK CFI INIT d4560 1e .cfa: $rsp .ra: .cfa 8 - ^
STACK CFI d4560 .cfa: $rsp 48 +
STACK CFI INIT d4580 8 .cfa: $rsp .ra: .cfa 8 - ^
STACK CFI d4580 .cfa: $rsp 8 +
STACK CFI INIT d4590 8 .cfa: $rsp .ra: .cfa 8 - ^
STACK CFI d4590 .cfa: $rsp 8 +
STACK CFI INIT d45a0 8d .cfa: $rsp .ra: .cfa 8 - ^
STACK CFI d45a0 .cfa: $rsp 8 +
STACK CFI INIT d4630 68 .cfa: $rsp .ra: .cfa 8 - ^
STACK CFI d4630 .cfa: $rsp 80 +
STACK CFI INIT d46a0 45 .cfa: $rsp .ra: .cfa 8 - ^
STACK CFI d46a0 .cfa: $rsp 64 +
STACK CFI INIT d46f0 45 .cfa: $rsp .ra: .cfa 8 - ^
STACK CFI d46f0 .cfa: $rsp 64 +
STACK CFI INIT d4740 83 .cfa: $rsp .ra: .cfa 8 - ^
STACK CFI d4740 .cfa: $rsp 80 +
STACK CFI INIT d47d0 83 .cfa: $rsp .ra: .cfa 8 - ^
STACK CFI d47d0 .cfa: $rsp 80 +
STACK CFI INIT d4860 4a .cfa: $rsp .ra: .cfa 8 - ^
STACK CFI d4860 .cfa: $rsp 48 +
STACK CFI INIT d48b0 49 .cfa: $rsp .ra: .cfa 8 - ^
STACK CFI d48b0 .cfa: $rsp 64 +
STACK CFI INIT d4900 7 .cfa: $rsp .ra: .cfa 8 - ^
STACK CFI d4900 .cfa: $rsp 8 +
STACK CFI INIT d4910 24 .cfa: $rsp .ra: .cfa 8 - ^
STACK CFI d4910 .cfa: $rsp 48 +
STACK CFI INIT d4940 119 .cfa: $rsp .ra: .cfa 8 - ^
STACK CFI d4940 .cfa: $rsp 96 +
STACK CFI INIT d4a60 291 .cfa: $rsp .ra: .cfa 8 - ^
STACK CFI d4a60 .cfa: $rsp 176 +
STACK CFI INIT d4d00 1e .cfa: $rsp .ra: .cfa 8 - ^
STACK CFI d4d00 .cfa: $rsp 48 +
STACK CFI INIT d4d20 1e .cfa: $rsp .ra: .cfa 8 - ^
STACK CFI d4d20 .cfa: $rsp 48 +
STACK CFI INIT d4d40 8 .cfa: $rsp .ra: .cfa 8 - ^
STACK CFI d4d40 .cfa: $rsp 8 +
STACK CFI INIT d4d50 110 .cfa: $rsp .ra: .cfa 8 - ^
STACK CFI d4d50 .cfa: $rsp 80 +
STACK CFI INIT d4e60 46c .cfa: $rsp .ra: .cfa 8 - ^
STACK CFI d4e60 .cfa: $rsp 176 +
STACK CFI INIT d52d0 83 .cfa: $rsp .ra: .cfa 8 - ^
STACK CFI d52d0 .cfa: $rsp 64 +
STACK CFI INIT d5360 84 .cfa: $rsp .ra: .cfa 8 - ^
STACK CFI d5360 .cfa: $rsp 64 +
STACK CFI INIT d53f0 240 .cfa: $rsp .ra: .cfa 8 - ^
STACK CFI d53f0 .cfa: $rsp 16496 +
STACK CFI INIT d5630 83 .cfa: $rsp .ra: .cfa 8 - ^
STACK CFI d5630 .cfa: $rsp 64 +
STACK CFI INIT d56c0 40 .cfa: $rsp .ra: .cfa 8 - ^
STACK CFI d56c0 .cfa: $rsp 144 +
STACK CFI INIT d5700 55 .cfa: $rsp .ra: .cfa 8 - ^
STACK CFI d5700 .cfa: $rsp 64 +
STACK CFI INIT d5760 ff .cfa: $rsp .ra: .cfa 8 - ^
STACK CFI d5760 .cfa: $rsp 96 +
STACK CFI INIT d5860 27a .cfa: $rsp .ra: .cfa 8 - ^
STACK CFI d5860 .cfa: $rsp 144 +
STACK CFI INIT d5ae0 15a .cfa: $rsp .ra: .cfa 8 - ^
STACK CFI d5ae0 .cfa: $rsp 128 +
STACK CFI INIT d5c40 17e .cfa: $rsp .ra: .cfa 8 - ^
STACK CFI d5c40 .cfa: $rsp 112 +
STACK CFI INIT d5dc0 15a .cfa: $rsp .ra: .cfa 8 - ^
STACK CFI d5dc0 .cfa: $rsp 128 +
STACK CFI INIT d5f20 17e .cfa: $rsp .ra: .cfa 8 - ^
STACK CFI d5f20 .cfa: $rsp 112 +
STACK CFI INIT d60a0 121 .cfa: $rsp .ra: .cfa 8 - ^
STACK CFI d60a0 .cfa: $rsp 96 +
STACK CFI INIT d61d0 121 .cfa: $rsp .ra: .cfa 8 - ^
STACK CFI d61d0 .cfa: $rsp 96 +
STACK CFI INIT d6300 234 .cfa: $rsp .ra: .cfa 8 - ^
STACK CFI d6300 .cfa: $rsp 144 +
STACK CFI INIT d6540 c1 .cfa: $rsp .ra: .cfa 8 - ^
STACK CFI d6540 .cfa: $rsp 112 +
STACK CFI INIT d6610 218 .cfa: $rsp .ra: .cfa 8 - ^
STACK CFI d6610 .cfa: $rsp 80 +
STACK CFI INIT d6830 1dd8 .cfa: $rsp .ra: .cfa 8 - ^
STACK CFI d6830 .cfa: $rsp 288 +
STACK CFI INIT d8610 ed .cfa: $rsp .ra: .cfa 8 - ^
STACK CFI d8610 .cfa: $rsp 112 +
STACK CFI INIT d8700 20f .cfa: $rsp .ra: .cfa 8 - ^
STACK CFI d8700 .cfa: $rsp 112 +
STACK CFI INIT d8910 cd .cfa: $rsp .ra: .cfa 8 - ^
STACK CFI d8910 .cfa: $rsp 96 +
STACK CFI INIT d89e0 83 .cfa: $rsp .ra: .cfa 8 - ^
STACK CFI d89e0 .cfa: $rsp 80 +
STACK CFI INIT d8a70 5f .cfa: $rsp .ra: .cfa 8 - ^
STACK CFI d8a70 .cfa: $rsp 64 +
STACK CFI INIT d8ad0 d7 .cfa: $rsp .ra: .cfa 8 - ^
STACK CFI d8ad0 .cfa: $rsp 48 +
STACK CFI INIT d8bb0 c .cfa: $rsp .ra: .cfa 8 - ^
STACK CFI d8bb0 .cfa: $rsp 8 +
STACK CFI INIT d8bc0 14e .cfa: $rsp .ra: .cfa 8 - ^
STACK CFI d8bc0 .cfa: $rsp 112 +
STACK CFI INIT d8d10 26 .cfa: $rsp .ra: .cfa 8 - ^
STACK CFI d8d10 .cfa: $rsp 8 +
STACK CFI INIT d8d40 b .cfa: $rsp .ra: .cfa 8 - ^
STACK CFI d8d40 .cfa: $rsp 8 +
STACK CFI INIT d8d50 4 .cfa: $rsp .ra: .cfa 8 - ^
STACK CFI d8d50 .cfa: $rsp 8 +
STACK CFI INIT d8d60 4 .cfa: $rsp .ra: .cfa 8 - ^
STACK CFI d8d60 .cfa: $rsp 8 +
STACK CFI INIT d8d70 26 .cfa: $rsp .ra: .cfa 8 - ^
STACK CFI d8d70 .cfa: $rsp 8 +
STACK CFI INIT d8da0 114d .cfa: $rsp .ra: .cfa 8 - ^
STACK CFI d8da0 .cfa: $rsp 256 +
STACK CFI INIT d9ef0 8d .cfa: $rsp .ra: .cfa 8 - ^
STACK CFI d9ef0 .cfa: $rsp 80 +
STACK CFI INIT d9f80 c4 .cfa: $rsp .ra: .cfa 8 - ^
STACK CFI d9f80 .cfa: $rsp 96 +
STACK CFI INIT da050 662 .cfa: $rsp .ra: .cfa 8 - ^
STACK CFI da050 .cfa: $rsp 208 +
STACK CFI INIT da6c0 91 .cfa: $rsp .ra: .cfa 8 - ^
STACK CFI da6c0 .cfa: $rsp 64 +
STACK CFI INIT da760 9f .cfa: $rsp .ra: .cfa 8 - ^
STACK CFI da760 .cfa: $rsp 80 +
STACK CFI INIT da800 12e .cfa: $rsp .ra: .cfa 8 - ^
STACK CFI da800 .cfa: $rsp 96 +
STACK CFI INIT da930 7c .cfa: $rsp .ra: .cfa 8 - ^
STACK CFI da930 .cfa: $rsp 64 +
STACK CFI INIT da9b0 7c .cfa: $rsp .ra: .cfa 8 - ^
STACK CFI da9b0 .cfa: $rsp 64 +
STACK CFI INIT daa30 a1 .cfa: $rsp .ra: .cfa 8 - ^
STACK CFI daa30 .cfa: $rsp 80 +
STACK CFI INIT daae0 7b .cfa: $rsp .ra: .cfa 8 - ^
STACK CFI daae0 .cfa: $rsp 80 +
STACK CFI INIT dab60 5b .cfa: $rsp .ra: .cfa 8 - ^
STACK CFI dab60 .cfa: $rsp 8 +
STACK CFI INIT dabc0 2ad .cfa: $rsp .ra: .cfa 8 - ^
STACK CFI dabc0 .cfa: $rsp 288 +
STACK CFI INIT dae70 b9 .cfa: $rsp .ra: .cfa 8 - ^
STACK CFI dae70 .cfa: $rsp 64 +
STACK CFI INIT daf30 18f .cfa: $rsp .ra: .cfa 8 - ^
STACK CFI daf30 .cfa: $rsp 48 +
STACK CFI INIT db0c0 fe .cfa: $rsp .ra: .cfa 8 - ^
STACK CFI db0c0 .cfa: $rsp 64 +
STACK CFI INIT db1c0 77 .cfa: $rsp .ra: .cfa 8 - ^
STACK CFI db1c0 .cfa: $rsp 48 +
STACK CFI INIT db240 2a2 .cfa: $rsp .ra: .cfa 8 - ^
STACK CFI db240 .cfa: $rsp 144 +
STACK CFI INIT db4f0 25 .cfa: $rsp .ra: .cfa 8 - ^
STACK CFI db4f0 .cfa: $rsp 8 +
STACK CFI INIT db520 28 .cfa: $rsp .ra: .cfa 8 - ^
STACK CFI db520 .cfa: $rsp 64 +
STACK CFI INIT db550 28 .cfa: $rsp .ra: .cfa 8 - ^
STACK CFI db550 .cfa: $rsp 64 +
STACK CFI INIT db580 1e16 .cfa: $rsp .ra: .cfa 8 - ^
STACK CFI db580 .cfa: $rsp 128 +
STACK CFI INIT dd3a0 f .cfa: $rsp .ra: .cfa 8 - ^
STACK CFI dd3a0 .cfa: $rsp 48 +
STACK CFI INIT dd3b0 1d2 .cfa: $rsp .ra: .cfa 8 - ^
STACK CFI dd3b0 .cfa: $rsp 80 +
STACK CFI INIT dd590 5a .cfa: $rsp .ra: .cfa 8 - ^
STACK CFI dd590 .cfa: $rsp 48 +
STACK CFI INIT dd5f0 73 .cfa: $rsp .ra: .cfa 8 - ^
STACK CFI dd5f0 .cfa: $rsp 48 +
STACK CFI INIT dd670 45 .cfa: $rsp .ra: .cfa 8 - ^
STACK CFI dd670 .cfa: $rsp 64 +
STACK CFI INIT dd6c0 45 .cfa: $rsp .ra: .cfa 8 - ^
STACK CFI dd6c0 .cfa: $rsp 64 +
STACK CFI INIT dd710 45 .cfa: $rsp .ra: .cfa 8 - ^
STACK CFI dd710 .cfa: $rsp 64 +
STACK CFI INIT dd760 5f .cfa: $rsp .ra: .cfa 8 - ^
STACK CFI dd760 .cfa: $rsp 48 +
STACK CFI INIT dd7c0 1a5 .cfa: $rsp .ra: .cfa 8 - ^
STACK CFI dd7c0 .cfa: $rsp 80 +
STACK CFI INIT dd970 253 .cfa: $rsp .ra: .cfa 8 - ^
STACK CFI dd970 .cfa: $rsp 112 +
STACK CFI INIT ddbd0 62 .cfa: $rsp .ra: .cfa 8 - ^
STACK CFI ddbd0 .cfa: $rsp 48 +
STACK CFI INIT ddc40 3ec .cfa: $rsp .ra: .cfa 8 - ^
STACK CFI ddc40 .cfa: $rsp 128 +
STACK CFI INIT de030 f5 .cfa: $rsp .ra: .cfa 8 - ^
STACK CFI de030 .cfa: $rsp 128 +
STACK CFI INIT de130 123 .cfa: $rsp .ra: .cfa 8 - ^
STACK CFI de130 .cfa: $rsp 128 +
STACK CFI INIT de260 567 .cfa: $rsp .ra: .cfa 8 - ^
STACK CFI de260 .cfa: $rsp 432 +
STACK CFI INIT de7d0 43 .cfa: $rsp .ra: .cfa 8 - ^
STACK CFI de7d0 .cfa: $rsp 48 +
STACK CFI INIT de820 7d .cfa: $rsp .ra: .cfa 8 - ^
STACK CFI de820 .cfa: $rsp 8 +
STACK CFI INIT de8a0 6f .cfa: $rsp .ra: .cfa 8 - ^
STACK CFI de8a0 .cfa: $rsp 64 +
STACK CFI INIT de910 75 .cfa: $rsp .ra: .cfa 8 - ^
STACK CFI de910 .cfa: $rsp 48 +
STACK CFI INIT de9a0 1f .cfa: $rsp .ra: .cfa 8 - ^
STACK CFI de9a0 .cfa: $rsp 48 +
STACK CFI INIT de9d0 5e .cfa: $rsp .ra: .cfa 8 - ^
STACK CFI de9d0 .cfa: $rsp 64 +
STACK CFI INIT dea30 1c .cfa: $rsp .ra: .cfa 8 - ^
STACK CFI dea30 .cfa: $rsp 48 +
STACK CFI INIT dea50 b2 .cfa: $rsp .ra: .cfa 8 - ^
STACK CFI dea50 .cfa: $rsp 64 +
STACK CFI INIT deb10 1d .cfa: $rsp .ra: .cfa 8 - ^
STACK CFI deb10 .cfa: $rsp 48 +
STACK CFI INIT deb30 1d .cfa: $rsp .ra: .cfa 8 - ^
STACK CFI deb30 .cfa: $rsp 48 +
STACK CFI INIT deb50 26 .cfa: $rsp .ra: .cfa 8 - ^
STACK CFI deb50 .cfa: $rsp 48 +
STACK CFI INIT deb80 60 .cfa: $rsp .ra: .cfa 8 - ^
STACK CFI deb80 .cfa: $rsp 64 +
STACK CFI INIT debe0 6 .cfa: $rsp .ra: .cfa 8 - ^
STACK CFI debe0 .cfa: $rsp 8 +
STACK CFI INIT debf0 e .cfa: $rsp .ra: .cfa 8 - ^
STACK CFI debf0 .cfa: $rsp 8 +
STACK CFI INIT dec00 103 .cfa: $rsp .ra: .cfa 8 - ^
STACK CFI dec00 .cfa: $rsp 80 +
STACK CFI INIT ded10 1c3 .cfa: $rsp .ra: .cfa 8 - ^
STACK CFI ded10 .cfa: $rsp 96 +
STACK CFI INIT deee0 229 .cfa: $rsp .ra: .cfa 8 - ^
STACK CFI deee0 .cfa: $rsp 352 +
STACK CFI INIT df110 2e .cfa: $rsp .ra: .cfa 8 - ^
STACK CFI df110 .cfa: $rsp 48 +
STACK CFI INIT df140 3a .cfa: $rsp .ra: .cfa 8 - ^
STACK CFI df140 .cfa: $rsp 48 +
STACK CFI INIT df180 355 .cfa: $rsp .ra: .cfa 8 - ^
STACK CFI df180 .cfa: $rsp 208 +
STACK CFI INIT df4e0 224 .cfa: $rsp .ra: .cfa 8 - ^
STACK CFI df4e0 .cfa: $rsp 4208 +
STACK CFI INIT df710 1dd .cfa: $rsp .ra: .cfa 8 - ^
STACK CFI df710 .cfa: $rsp 128 +
STACK CFI INIT df8f0 de .cfa: $rsp .ra: .cfa 8 - ^
STACK CFI df8f0 .cfa: $rsp 80 +
STACK CFI INIT df9d0 9c0 .cfa: $rsp .ra: .cfa 8 - ^
STACK CFI df9d0 .cfa: $rsp 176 +
STACK CFI INIT e0390 409 .cfa: $rsp .ra: .cfa 8 - ^
STACK CFI e0390 .cfa: $rsp 256 +
STACK CFI INIT e07a0 2f2 .cfa: $rsp .ra: .cfa 8 - ^
STACK CFI e07a0 .cfa: $rsp 112 +
STACK CFI INIT e0aa0 24 .cfa: $rsp .ra: .cfa 8 - ^
STACK CFI e0aa0 .cfa: $rsp 48 +
STACK CFI INIT e0ad0 68 .cfa: $rsp .ra: .cfa 8 - ^
STACK CFI e0ad0 .cfa: $rsp 48 +
STACK CFI INIT e0b40 12d .cfa: $rsp .ra: .cfa 8 - ^
STACK CFI e0b40 .cfa: $rsp 128 +
STACK CFI INIT e0c70 78 .cfa: $rsp .ra: .cfa 8 - ^
STACK CFI e0c70 .cfa: $rsp 96 +
STACK CFI INIT e0cf0 132 .cfa: $rsp .ra: .cfa 8 - ^
STACK CFI e0cf0 .cfa: $rsp 96 +
STACK CFI INIT e0e30 2f1 .cfa: $rsp .ra: .cfa 8 - ^
STACK CFI e0e30 .cfa: $rsp 192 +
STACK CFI INIT e1130 76d .cfa: $rsp .ra: .cfa 8 - ^
STACK CFI e1130 .cfa: $rsp 208 +
STACK CFI INIT e18a0 a06 .cfa: $rsp .ra: .cfa 8 - ^
STACK CFI e18a0 .cfa: $rsp 176 +
STACK CFI INIT e22b0 3a .cfa: $rsp .ra: .cfa 8 - ^
STACK CFI e22b0 .cfa: $rsp 48 +
STACK CFI INIT e22f0 3a .cfa: $rsp .ra: .cfa 8 - ^
STACK CFI e22f0 .cfa: $rsp 48 +
STACK CFI INIT e2330 7db .cfa: $rsp .ra: .cfa 8 - ^
STACK CFI e2330 .cfa: $rsp 4288 +
STACK CFI INIT e2b10 208 .cfa: $rsp .ra: .cfa 8 - ^
STACK CFI e2b10 .cfa: $rsp 112 +
STACK CFI INIT e2d20 33 .cfa: $rsp .ra: .cfa 8 - ^
STACK CFI e2d20 .cfa: $rsp 64 +
STACK CFI INIT e2d60 312 .cfa: $rsp .ra: .cfa 8 - ^
STACK CFI e2d60 .cfa: $rsp 112 +
STACK CFI INIT e3080 4d .cfa: $rsp .ra: .cfa 8 - ^
STACK CFI e3080 .cfa: $rsp 80 +
STACK CFI INIT e30d0 65 .cfa: $rsp .ra: .cfa 8 - ^
STACK CFI e30d0 .cfa: $rsp 80 +
STACK CFI INIT e3140 36 .cfa: $rsp .ra: .cfa 8 - ^
STACK CFI e3140 .cfa: $rsp 48 +
STACK CFI INIT e3180 65 .cfa: $rsp .ra: .cfa 8 - ^
STACK CFI e3180 .cfa: $rsp 80 +
STACK CFI INIT e31f0 297 .cfa: $rsp .ra: .cfa 8 - ^
STACK CFI e31f0 .cfa: $rsp 128 +
STACK CFI INIT e3490 33 .cfa: $rsp .ra: .cfa 8 - ^
STACK CFI e3490 .cfa: $rsp 48 +
STACK CFI INIT e34d0 33 .cfa: $rsp .ra: .cfa 8 - ^
STACK CFI e34d0 .cfa: $rsp 48 +
STACK CFI INIT e3510 33 .cfa: $rsp .ra: .cfa 8 - ^
STACK CFI e3510 .cfa: $rsp 48 +
STACK CFI INIT e3550 33 .cfa: $rsp .ra: .cfa 8 - ^
STACK CFI e3550 .cfa: $rsp 48 +
STACK CFI INIT e3590 36 .cfa: $rsp .ra: .cfa 8 - ^
STACK CFI e3590 .cfa: $rsp 48 +
STACK CFI INIT e35d0 33 .cfa: $rsp .ra: .cfa 8 - ^
STACK CFI e35d0 .cfa: $rsp 48 +
STACK CFI INIT e3610 33 .cfa: $rsp .ra: .cfa 8 - ^
STACK CFI e3610 .cfa: $rsp 48 +
STACK CFI INIT e3650 33 .cfa: $rsp .ra: .cfa 8 - ^
STACK CFI e3650 .cfa: $rsp 48 +
STACK CFI INIT e3690 36 .cfa: $rsp .ra: .cfa 8 - ^
STACK CFI e3690 .cfa: $rsp 48 +
STACK CFI INIT e36d0 33 .cfa: $rsp .ra: .cfa 8 - ^
STACK CFI e36d0 .cfa: $rsp 48 +
STACK CFI INIT e3710 36 .cfa: $rsp .ra: .cfa 8 - ^
STACK CFI e3710 .cfa: $rsp 48 +
STACK CFI INIT e3750 33 .cfa: $rsp .ra: .cfa 8 - ^
STACK CFI e3750 .cfa: $rsp 48 +
STACK CFI INIT e3790 38 .cfa: $rsp .ra: .cfa 8 - ^
STACK CFI e3790 .cfa: $rsp 48 +
STACK CFI INIT e37d0 33 .cfa: $rsp .ra: .cfa 8 - ^
STACK CFI e37d0 .cfa: $rsp 48 +
STACK CFI INIT e3810 33 .cfa: $rsp .ra: .cfa 8 - ^
STACK CFI e3810 .cfa: $rsp 48 +
STACK CFI INIT e3850 33 .cfa: $rsp .ra: .cfa 8 - ^
STACK CFI e3850 .cfa: $rsp 48 +
STACK CFI INIT e3890 1c .cfa: $rsp .ra: .cfa 8 - ^
STACK CFI e3890 .cfa: $rsp 8 +
STACK CFI INIT e38b0 1c .cfa: $rsp .ra: .cfa 8 - ^
STACK CFI e38b0 .cfa: $rsp 8 +
STACK CFI INIT e38d0 1c .cfa: $rsp .ra: .cfa 8 - ^
STACK CFI e38d0 .cfa: $rsp 8 +
STACK CFI INIT e38f0 33 .cfa: $rsp .ra: .cfa 8 - ^
STACK CFI e38f0 .cfa: $rsp 48 +
STACK CFI INIT e3930 1c .cfa: $rsp .ra: .cfa 8 - ^
STACK CFI e3930 .cfa: $rsp 8 +
STACK CFI INIT e3950 33 .cfa: $rsp .ra: .cfa 8 - ^
STACK CFI e3950 .cfa: $rsp 48 +
STACK CFI INIT e3990 33 .cfa: $rsp .ra: .cfa 8 - ^
STACK CFI e3990 .cfa: $rsp 48 +
STACK CFI INIT e39d0 33 .cfa: $rsp .ra: .cfa 8 - ^
STACK CFI e39d0 .cfa: $rsp 48 +
STACK CFI INIT e3a10 1c .cfa: $rsp .ra: .cfa 8 - ^
STACK CFI e3a10 .cfa: $rsp 8 +
STACK CFI INIT e3a30 1c .cfa: $rsp .ra: .cfa 8 - ^
STACK CFI e3a30 .cfa: $rsp 8 +
STACK CFI INIT e3a50 1c .cfa: $rsp .ra: .cfa 8 - ^
STACK CFI e3a50 .cfa: $rsp 8 +
STACK CFI INIT e3a70 33 .cfa: $rsp .ra: .cfa 8 - ^
STACK CFI e3a70 .cfa: $rsp 48 +
STACK CFI INIT e3ab0 33 .cfa: $rsp .ra: .cfa 8 - ^
STACK CFI e3ab0 .cfa: $rsp 48 +
STACK CFI INIT e3af0 33 .cfa: $rsp .ra: .cfa 8 - ^
STACK CFI e3af0 .cfa: $rsp 48 +
STACK CFI INIT e3b30 33 .cfa: $rsp .ra: .cfa 8 - ^
STACK CFI e3b30 .cfa: $rsp 48 +
STACK CFI INIT e3b70 33 .cfa: $rsp .ra: .cfa 8 - ^
STACK CFI e3b70 .cfa: $rsp 48 +
STACK CFI INIT e3bb0 33 .cfa: $rsp .ra: .cfa 8 - ^
STACK CFI e3bb0 .cfa: $rsp 48 +
STACK CFI INIT e3bf0 33 .cfa: $rsp .ra: .cfa 8 - ^
STACK CFI e3bf0 .cfa: $rsp 48 +
STACK CFI INIT e3c30 33 .cfa: $rsp .ra: .cfa 8 - ^
STACK CFI e3c30 .cfa: $rsp 48 +
STACK CFI INIT e3c70 36 .cfa: $rsp .ra: .cfa 8 - ^
STACK CFI e3c70 .cfa: $rsp 48 +
STACK CFI INIT e3cb0 36 .cfa: $rsp .ra: .cfa 8 - ^
STACK CFI e3cb0 .cfa: $rsp 48 +
STACK CFI INIT e3cf0 36 .cfa: $rsp .ra: .cfa 8 - ^
STACK CFI e3cf0 .cfa: $rsp 48 +
STACK CFI INIT e3d30 36 .cfa: $rsp .ra: .cfa 8 - ^
STACK CFI e3d30 .cfa: $rsp 48 +
STACK CFI INIT e3d70 1c .cfa: $rsp .ra: .cfa 8 - ^
STACK CFI e3d70 .cfa: $rsp 8 +
STACK CFI INIT e3d90 33 .cfa: $rsp .ra: .cfa 8 - ^
STACK CFI e3d90 .cfa: $rsp 48 +
STACK CFI INIT e3dd0 33 .cfa: $rsp .ra: .cfa 8 - ^
STACK CFI e3dd0 .cfa: $rsp 48 +
STACK CFI INIT e3e10 33 .cfa: $rsp .ra: .cfa 8 - ^
STACK CFI e3e10 .cfa: $rsp 48 +
STACK CFI INIT e3e50 33 .cfa: $rsp .ra: .cfa 8 - ^
STACK CFI e3e50 .cfa: $rsp 48 +
STACK CFI INIT e3e90 33 .cfa: $rsp .ra: .cfa 8 - ^
STACK CFI e3e90 .cfa: $rsp 48 +
STACK CFI INIT e3ed0 36 .cfa: $rsp .ra: .cfa 8 - ^
STACK CFI e3ed0 .cfa: $rsp 48 +
STACK CFI INIT e3f10 33 .cfa: $rsp .ra: .cfa 8 - ^
STACK CFI e3f10 .cfa: $rsp 48 +
STACK CFI INIT e3f50 33 .cfa: $rsp .ra: .cfa 8 - ^
STACK CFI e3f50 .cfa: $rsp 48 +
STACK CFI INIT e3f90 33 .cfa: $rsp .ra: .cfa 8 - ^
STACK CFI e3f90 .cfa: $rsp 48 +
STACK CFI INIT e3fd0 33 .cfa: $rsp .ra: .cfa 8 - ^
STACK CFI e3fd0 .cfa: $rsp 48 +
STACK CFI INIT e4010 36 .cfa: $rsp .ra: .cfa 8 - ^
STACK CFI e4010 .cfa: $rsp 48 +
STACK CFI INIT e4050 36 .cfa: $rsp .ra: .cfa 8 - ^
STACK CFI e4050 .cfa: $rsp 48 +
STACK CFI INIT e4090 33 .cfa: $rsp .ra: .cfa 8 - ^
STACK CFI e4090 .cfa: $rsp 48 +
STACK CFI INIT e40d0 33 .cfa: $rsp .ra: .cfa 8 - ^
STACK CFI e40d0 .cfa: $rsp 48 +
STACK CFI INIT e4110 33 .cfa: $rsp .ra: .cfa 8 - ^
STACK CFI e4110 .cfa: $rsp 48 +
STACK CFI INIT e4150 33 .cfa: $rsp .ra: .cfa 8 - ^
STACK CFI e4150 .cfa: $rsp 48 +
STACK CFI INIT e4190 33 .cfa: $rsp .ra: .cfa 8 - ^
STACK CFI e4190 .cfa: $rsp 48 +
STACK CFI INIT e41d0 33 .cfa: $rsp .ra: .cfa 8 - ^
STACK CFI e41d0 .cfa: $rsp 48 +
STACK CFI INIT e4210 33 .cfa: $rsp .ra: .cfa 8 - ^
STACK CFI e4210 .cfa: $rsp 48 +
STACK CFI INIT e4250 33 .cfa: $rsp .ra: .cfa 8 - ^
STACK CFI e4250 .cfa: $rsp 48 +
STACK CFI INIT e4290 33 .cfa: $rsp .ra: .cfa 8 - ^
STACK CFI e4290 .cfa: $rsp 48 +
STACK CFI INIT e42d0 33 .cfa: $rsp .ra: .cfa 8 - ^
STACK CFI e42d0 .cfa: $rsp 48 +
STACK CFI INIT e4310 33 .cfa: $rsp .ra: .cfa 8 - ^
STACK CFI e4310 .cfa: $rsp 48 +
STACK CFI INIT e4350 33 .cfa: $rsp .ra: .cfa 8 - ^
STACK CFI e4350 .cfa: $rsp 48 +
STACK CFI INIT e4390 33 .cfa: $rsp .ra: .cfa 8 - ^
STACK CFI e4390 .cfa: $rsp 48 +
STACK CFI INIT e43d0 33 .cfa: $rsp .ra: .cfa 8 - ^
STACK CFI e43d0 .cfa: $rsp 48 +
STACK CFI INIT e4410 33 .cfa: $rsp .ra: .cfa 8 - ^
STACK CFI e4410 .cfa: $rsp 48 +
STACK CFI INIT e4450 33 .cfa: $rsp .ra: .cfa 8 - ^
STACK CFI e4450 .cfa: $rsp 48 +
STACK CFI INIT e4490 1c .cfa: $rsp .ra: .cfa 8 - ^
STACK CFI e4490 .cfa: $rsp 8 +
STACK CFI INIT e44b0 36 .cfa: $rsp .ra: .cfa 8 - ^
STACK CFI e44b0 .cfa: $rsp 48 +
STACK CFI INIT e44f0 33 .cfa: $rsp .ra: .cfa 8 - ^
STACK CFI e44f0 .cfa: $rsp 48 +
STACK CFI INIT e4530 1c .cfa: $rsp .ra: .cfa 8 - ^
STACK CFI e4530 .cfa: $rsp 8 +
STACK CFI INIT e4550 36 .cfa: $rsp .ra: .cfa 8 - ^
STACK CFI e4550 .cfa: $rsp 48 +
STACK CFI INIT e4590 1c .cfa: $rsp .ra: .cfa 8 - ^
STACK CFI e4590 .cfa: $rsp 8 +
STACK CFI INIT e45b0 33 .cfa: $rsp .ra: .cfa 8 - ^
STACK CFI e45b0 .cfa: $rsp 48 +
STACK CFI INIT e45f0 1c .cfa: $rsp .ra: .cfa 8 - ^
STACK CFI e45f0 .cfa: $rsp 8 +
STACK CFI INIT e4610 1c .cfa: $rsp .ra: .cfa 8 - ^
STACK CFI e4610 .cfa: $rsp 8 +
STACK CFI INIT e4630 33 .cfa: $rsp .ra: .cfa 8 - ^
STACK CFI e4630 .cfa: $rsp 48 +
STACK CFI INIT e4670 36 .cfa: $rsp .ra: .cfa 8 - ^
STACK CFI e4670 .cfa: $rsp 48 +
STACK CFI INIT e46b0 36 .cfa: $rsp .ra: .cfa 8 - ^
STACK CFI e46b0 .cfa: $rsp 48 +
STACK CFI INIT e46f0 33 .cfa: $rsp .ra: .cfa 8 - ^
STACK CFI e46f0 .cfa: $rsp 48 +
STACK CFI INIT e4730 33 .cfa: $rsp .ra: .cfa 8 - ^
STACK CFI e4730 .cfa: $rsp 48 +
STACK CFI INIT e4770 36 .cfa: $rsp .ra: .cfa 8 - ^
STACK CFI e4770 .cfa: $rsp 48 +
STACK CFI INIT e47b0 36 .cfa: $rsp .ra: .cfa 8 - ^
STACK CFI e47b0 .cfa: $rsp 48 +
STACK CFI INIT e47f0 36 .cfa: $rsp .ra: .cfa 8 - ^
STACK CFI e47f0 .cfa: $rsp 48 +
STACK CFI INIT e4830 1c .cfa: $rsp .ra: .cfa 8 - ^
STACK CFI e4830 .cfa: $rsp 8 +
STACK CFI INIT e4850 33 .cfa: $rsp .ra: .cfa 8 - ^
STACK CFI e4850 .cfa: $rsp 48 +
STACK CFI INIT e4890 36 .cfa: $rsp .ra: .cfa 8 - ^
STACK CFI e4890 .cfa: $rsp 48 +
STACK CFI INIT e48d0 36 .cfa: $rsp .ra: .cfa 8 - ^
STACK CFI e48d0 .cfa: $rsp 48 +
STACK CFI INIT e4910 1c .cfa: $rsp .ra: .cfa 8 - ^
STACK CFI e4910 .cfa: $rsp 8 +
STACK CFI INIT e4930 1c .cfa: $rsp .ra: .cfa 8 - ^
STACK CFI e4930 .cfa: $rsp 8 +
STACK CFI INIT e4950 36 .cfa: $rsp .ra: .cfa 8 - ^
STACK CFI e4950 .cfa: $rsp 48 +
STACK CFI INIT e4990 36 .cfa: $rsp .ra: .cfa 8 - ^
STACK CFI e4990 .cfa: $rsp 48 +
STACK CFI INIT e49d0 36 .cfa: $rsp .ra: .cfa 8 - ^
STACK CFI e49d0 .cfa: $rsp 48 +
STACK CFI INIT e4a10 36 .cfa: $rsp .ra: .cfa 8 - ^
STACK CFI e4a10 .cfa: $rsp 48 +
STACK CFI INIT e4a50 36 .cfa: $rsp .ra: .cfa 8 - ^
STACK CFI e4a50 .cfa: $rsp 48 +
STACK CFI INIT e4a90 33 .cfa: $rsp .ra: .cfa 8 - ^
STACK CFI e4a90 .cfa: $rsp 48 +
STACK CFI INIT e4ad0 1c .cfa: $rsp .ra: .cfa 8 - ^
STACK CFI e4ad0 .cfa: $rsp 8 +
STACK CFI INIT e4af0 33 .cfa: $rsp .ra: .cfa 8 - ^
STACK CFI e4af0 .cfa: $rsp 48 +
STACK CFI INIT e4b30 33 .cfa: $rsp .ra: .cfa 8 - ^
STACK CFI e4b30 .cfa: $rsp 48 +
STACK CFI INIT e4b70 33 .cfa: $rsp .ra: .cfa 8 - ^
STACK CFI e4b70 .cfa: $rsp 48 +
STACK CFI INIT e4bb0 36 .cfa: $rsp .ra: .cfa 8 - ^
STACK CFI e4bb0 .cfa: $rsp 48 +
STACK CFI INIT e4bf0 33 .cfa: $rsp .ra: .cfa 8 - ^
STACK CFI e4bf0 .cfa: $rsp 48 +
STACK CFI INIT e4c30 33 .cfa: $rsp .ra: .cfa 8 - ^
STACK CFI e4c30 .cfa: $rsp 48 +
STACK CFI INIT e4c70 36 .cfa: $rsp .ra: .cfa 8 - ^
STACK CFI e4c70 .cfa: $rsp 48 +
STACK CFI INIT e4cb0 1c .cfa: $rsp .ra: .cfa 8 - ^
STACK CFI e4cb0 .cfa: $rsp 8 +
STACK CFI INIT e4cd0 33 .cfa: $rsp .ra: .cfa 8 - ^
STACK CFI e4cd0 .cfa: $rsp 48 +
STACK CFI INIT e4d10 36 .cfa: $rsp .ra: .cfa 8 - ^
STACK CFI e4d10 .cfa: $rsp 48 +
STACK CFI INIT e4d50 36 .cfa: $rsp .ra: .cfa 8 - ^
STACK CFI e4d50 .cfa: $rsp 48 +
STACK CFI INIT e4d90 1c .cfa: $rsp .ra: .cfa 8 - ^
STACK CFI e4d90 .cfa: $rsp 8 +
STACK CFI INIT e4db0 1c .cfa: $rsp .ra: .cfa 8 - ^
STACK CFI e4db0 .cfa: $rsp 8 +
STACK CFI INIT e4dd0 1c .cfa: $rsp .ra: .cfa 8 - ^
STACK CFI e4dd0 .cfa: $rsp 8 +
STACK CFI INIT e4df0 36 .cfa: $rsp .ra: .cfa 8 - ^
STACK CFI e4df0 .cfa: $rsp 48 +
STACK CFI INIT e4e30 36 .cfa: $rsp .ra: .cfa 8 - ^
STACK CFI e4e30 .cfa: $rsp 48 +
STACK CFI INIT e4e70 1c .cfa: $rsp .ra: .cfa 8 - ^
STACK CFI e4e70 .cfa: $rsp 8 +
STACK CFI INIT e4e90 33 .cfa: $rsp .ra: .cfa 8 - ^
STACK CFI e4e90 .cfa: $rsp 48 +
STACK CFI INIT e4ed0 33 .cfa: $rsp .ra: .cfa 8 - ^
STACK CFI e4ed0 .cfa: $rsp 48 +
STACK CFI INIT e4f10 36 .cfa: $rsp .ra: .cfa 8 - ^
STACK CFI e4f10 .cfa: $rsp 48 +
STACK CFI INIT e4f50 33 .cfa: $rsp .ra: .cfa 8 - ^
STACK CFI e4f50 .cfa: $rsp 48 +
STACK CFI INIT e4f90 33 .cfa: $rsp .ra: .cfa 8 - ^
STACK CFI e4f90 .cfa: $rsp 48 +
STACK CFI INIT e4fd0 1c .cfa: $rsp .ra: .cfa 8 - ^
STACK CFI e4fd0 .cfa: $rsp 8 +
STACK CFI INIT e4ff0 1c .cfa: $rsp .ra: .cfa 8 - ^
STACK CFI e4ff0 .cfa: $rsp 8 +
STACK CFI INIT e5010 33 .cfa: $rsp .ra: .cfa 8 - ^
STACK CFI e5010 .cfa: $rsp 48 +
STACK CFI INIT e5050 33 .cfa: $rsp .ra: .cfa 8 - ^
STACK CFI e5050 .cfa: $rsp 48 +
STACK CFI INIT e5090 33 .cfa: $rsp .ra: .cfa 8 - ^
STACK CFI e5090 .cfa: $rsp 48 +
STACK CFI INIT e50d0 33 .cfa: $rsp .ra: .cfa 8 - ^
STACK CFI e50d0 .cfa: $rsp 48 +
STACK CFI INIT e5110 33 .cfa: $rsp .ra: .cfa 8 - ^
STACK CFI e5110 .cfa: $rsp 48 +
STACK CFI INIT e5150 33 .cfa: $rsp .ra: .cfa 8 - ^
STACK CFI e5150 .cfa: $rsp 48 +
STACK CFI INIT e5190 33 .cfa: $rsp .ra: .cfa 8 - ^
STACK CFI e5190 .cfa: $rsp 48 +
STACK CFI INIT e51d0 33 .cfa: $rsp .ra: .cfa 8 - ^
STACK CFI e51d0 .cfa: $rsp 48 +
STACK CFI INIT e5210 33 .cfa: $rsp .ra: .cfa 8 - ^
STACK CFI e5210 .cfa: $rsp 48 +
STACK CFI INIT e5250 33 .cfa: $rsp .ra: .cfa 8 - ^
STACK CFI e5250 .cfa: $rsp 48 +
STACK CFI INIT e5290 33 .cfa: $rsp .ra: .cfa 8 - ^
STACK CFI e5290 .cfa: $rsp 48 +
STACK CFI INIT e52d0 36 .cfa: $rsp .ra: .cfa 8 - ^
STACK CFI e52d0 .cfa: $rsp 48 +
STACK CFI INIT e5310 36 .cfa: $rsp .ra: .cfa 8 - ^
STACK CFI e5310 .cfa: $rsp 48 +
STACK CFI INIT e5350 33 .cfa: $rsp .ra: .cfa 8 - ^
STACK CFI e5350 .cfa: $rsp 48 +
STACK CFI INIT e5390 1c .cfa: $rsp .ra: .cfa 8 - ^
STACK CFI e5390 .cfa: $rsp 8 +
STACK CFI INIT e53b0 33 .cfa: $rsp .ra: .cfa 8 - ^
STACK CFI e53b0 .cfa: $rsp 48 +
STACK CFI INIT e53f0 1c .cfa: $rsp .ra: .cfa 8 - ^
STACK CFI e53f0 .cfa: $rsp 8 +
STACK CFI INIT e5410 33 .cfa: $rsp .ra: .cfa 8 - ^
STACK CFI e5410 .cfa: $rsp 48 +
STACK CFI INIT e5450 33 .cfa: $rsp .ra: .cfa 8 - ^
STACK CFI e5450 .cfa: $rsp 48 +
STACK CFI INIT e5490 33 .cfa: $rsp .ra: .cfa 8 - ^
STACK CFI e5490 .cfa: $rsp 48 +
STACK CFI INIT e54d0 33 .cfa: $rsp .ra: .cfa 8 - ^
STACK CFI e54d0 .cfa: $rsp 48 +
STACK CFI INIT e5510 33 .cfa: $rsp .ra: .cfa 8 - ^
STACK CFI e5510 .cfa: $rsp 48 +
STACK CFI INIT e5550 33 .cfa: $rsp .ra: .cfa 8 - ^
STACK CFI e5550 .cfa: $rsp 48 +
STACK CFI INIT e5590 33 .cfa: $rsp .ra: .cfa 8 - ^
STACK CFI e5590 .cfa: $rsp 48 +
STACK CFI INIT e55d0 1c .cfa: $rsp .ra: .cfa 8 - ^
STACK CFI e55d0 .cfa: $rsp 8 +
STACK CFI INIT e55f0 1c .cfa: $rsp .ra: .cfa 8 - ^
STACK CFI e55f0 .cfa: $rsp 8 +
STACK CFI INIT e5610 33 .cfa: $rsp .ra: .cfa 8 - ^
STACK CFI e5610 .cfa: $rsp 48 +
STACK CFI INIT e5650 36 .cfa: $rsp .ra: .cfa 8 - ^
STACK CFI e5650 .cfa: $rsp 48 +
STACK CFI INIT e5690 33 .cfa: $rsp .ra: .cfa 8 - ^
STACK CFI e5690 .cfa: $rsp 48 +
STACK CFI INIT e56d0 33 .cfa: $rsp .ra: .cfa 8 - ^
STACK CFI e56d0 .cfa: $rsp 48 +
STACK CFI INIT e5710 36 .cfa: $rsp .ra: .cfa 8 - ^
STACK CFI e5710 .cfa: $rsp 48 +
STACK CFI INIT e5750 33 .cfa: $rsp .ra: .cfa 8 - ^
STACK CFI e5750 .cfa: $rsp 48 +
STACK CFI INIT e5790 33 .cfa: $rsp .ra: .cfa 8 - ^
STACK CFI e5790 .cfa: $rsp 48 +
STACK CFI INIT e57d0 33 .cfa: $rsp .ra: .cfa 8 - ^
STACK CFI e57d0 .cfa: $rsp 48 +
STACK CFI INIT e5810 33 .cfa: $rsp .ra: .cfa 8 - ^
STACK CFI e5810 .cfa: $rsp 48 +
STACK CFI INIT e5850 33 .cfa: $rsp .ra: .cfa 8 - ^
STACK CFI e5850 .cfa: $rsp 48 +
STACK CFI INIT e5890 1c .cfa: $rsp .ra: .cfa 8 - ^
STACK CFI e5890 .cfa: $rsp 8 +
STACK CFI INIT e58b0 33 .cfa: $rsp .ra: .cfa 8 - ^
STACK CFI e58b0 .cfa: $rsp 48 +
STACK CFI INIT e58f0 33 .cfa: $rsp .ra: .cfa 8 - ^
STACK CFI e58f0 .cfa: $rsp 48 +
STACK CFI INIT e5930 1c .cfa: $rsp .ra: .cfa 8 - ^
STACK CFI e5930 .cfa: $rsp 8 +
STACK CFI INIT e5950 36 .cfa: $rsp .ra: .cfa 8 - ^
STACK CFI e5950 .cfa: $rsp 48 +
STACK CFI INIT e5990 36 .cfa: $rsp .ra: .cfa 8 - ^
STACK CFI e5990 .cfa: $rsp 48 +
STACK CFI INIT e59d0 36 .cfa: $rsp .ra: .cfa 8 - ^
STACK CFI e59d0 .cfa: $rsp 48 +
STACK CFI INIT e5a10 36 .cfa: $rsp .ra: .cfa 8 - ^
STACK CFI e5a10 .cfa: $rsp 48 +
STACK CFI INIT e5a50 33 .cfa: $rsp .ra: .cfa 8 - ^
STACK CFI e5a50 .cfa: $rsp 48 +
STACK CFI INIT e5a90 33 .cfa: $rsp .ra: .cfa 8 - ^
STACK CFI e5a90 .cfa: $rsp 48 +
STACK CFI INIT e5ad0 33 .cfa: $rsp .ra: .cfa 8 - ^
STACK CFI e5ad0 .cfa: $rsp 48 +
STACK CFI INIT e5b10 1c .cfa: $rsp .ra: .cfa 8 - ^
STACK CFI e5b10 .cfa: $rsp 8 +
STACK CFI INIT e5b30 1c .cfa: $rsp .ra: .cfa 8 - ^
STACK CFI e5b30 .cfa: $rsp 8 +
STACK CFI INIT e5b50 33 .cfa: $rsp .ra: .cfa 8 - ^
STACK CFI e5b50 .cfa: $rsp 48 +
STACK CFI INIT e5b90 33 .cfa: $rsp .ra: .cfa 8 - ^
STACK CFI e5b90 .cfa: $rsp 48 +
STACK CFI INIT e5bd0 33 .cfa: $rsp .ra: .cfa 8 - ^
STACK CFI e5bd0 .cfa: $rsp 48 +
STACK CFI INIT e5c10 33 .cfa: $rsp .ra: .cfa 8 - ^
STACK CFI e5c10 .cfa: $rsp 48 +
STACK CFI INIT e5c50 33 .cfa: $rsp .ra: .cfa 8 - ^
STACK CFI e5c50 .cfa: $rsp 48 +
STACK CFI INIT e5c90 36 .cfa: $rsp .ra: .cfa 8 - ^
STACK CFI e5c90 .cfa: $rsp 48 +
STACK CFI INIT e5cd0 1c .cfa: $rsp .ra: .cfa 8 - ^
STACK CFI e5cd0 .cfa: $rsp 8 +
STACK CFI INIT e5cf0 1c .cfa: $rsp .ra: .cfa 8 - ^
STACK CFI e5cf0 .cfa: $rsp 8 +
STACK CFI INIT e5d10 36 .cfa: $rsp .ra: .cfa 8 - ^
STACK CFI e5d10 .cfa: $rsp 48 +
STACK CFI INIT e5d50 1c .cfa: $rsp .ra: .cfa 8 - ^
STACK CFI e5d50 .cfa: $rsp 8 +
STACK CFI INIT e5d70 1c .cfa: $rsp .ra: .cfa 8 - ^
STACK CFI e5d70 .cfa: $rsp 8 +
STACK CFI INIT e5d90 33 .cfa: $rsp .ra: .cfa 8 - ^
STACK CFI e5d90 .cfa: $rsp 48 +
STACK CFI INIT e5dd0 1c .cfa: $rsp .ra: .cfa 8 - ^
STACK CFI e5dd0 .cfa: $rsp 8 +
STACK CFI INIT e5df0 33 .cfa: $rsp .ra: .cfa 8 - ^
STACK CFI e5df0 .cfa: $rsp 48 +
STACK CFI INIT e5e30 36 .cfa: $rsp .ra: .cfa 8 - ^
STACK CFI e5e30 .cfa: $rsp 48 +
STACK CFI INIT e5e70 33 .cfa: $rsp .ra: .cfa 8 - ^
STACK CFI e5e70 .cfa: $rsp 48 +
STACK CFI INIT e5eb0 33 .cfa: $rsp .ra: .cfa 8 - ^
STACK CFI e5eb0 .cfa: $rsp 48 +
STACK CFI INIT e5ef0 33 .cfa: $rsp .ra: .cfa 8 - ^
STACK CFI e5ef0 .cfa: $rsp 48 +
STACK CFI INIT e5f30 33 .cfa: $rsp .ra: .cfa 8 - ^
STACK CFI e5f30 .cfa: $rsp 48 +
STACK CFI INIT e5f70 1c .cfa: $rsp .ra: .cfa 8 - ^
STACK CFI e5f70 .cfa: $rsp 8 +
STACK CFI INIT e5f90 33 .cfa: $rsp .ra: .cfa 8 - ^
STACK CFI e5f90 .cfa: $rsp 48 +
STACK CFI INIT e5fd0 33 .cfa: $rsp .ra: .cfa 8 - ^
STACK CFI e5fd0 .cfa: $rsp 48 +
STACK CFI INIT e6010 36 .cfa: $rsp .ra: .cfa 8 - ^
STACK CFI e6010 .cfa: $rsp 48 +
STACK CFI INIT e6050 33 .cfa: $rsp .ra: .cfa 8 - ^
STACK CFI e6050 .cfa: $rsp 48 +
STACK CFI INIT e6090 1c .cfa: $rsp .ra: .cfa 8 - ^
STACK CFI e6090 .cfa: $rsp 8 +
STACK CFI INIT e60b0 88e7 .cfa: $rsp .ra: .cfa 8 - ^
STACK CFI e60b0 .cfa: $rsp 144 +
STACK CFI INIT ee9a0 3c3 .cfa: $rsp .ra: .cfa 8 - ^
STACK CFI ee9a0 .cfa: $rsp 176 +
STACK CFI INIT eed70 1a .cfa: $rsp .ra: .cfa 8 - ^
STACK CFI eed70 .cfa: $rsp 8 +
STACK CFI INIT eed90 37 .cfa: $rsp .ra: .cfa 8 - ^
STACK CFI eed90 .cfa: $rsp 64 +
STACK CFI INIT eedd0 55 .cfa: $rsp .ra: .cfa 8 - ^
STACK CFI eedd0 .cfa: $rsp 48 +
STACK CFI INIT eee30 a0 .cfa: $rsp .ra: .cfa 8 - ^
STACK CFI eee30 .cfa: $rsp 80 +
STACK CFI INIT eeed0 47 .cfa: $rsp .ra: .cfa 8 - ^
STACK CFI eeed0 .cfa: $rsp 64 +
STACK CFI INIT eef20 6a .cfa: $rsp .ra: .cfa 8 - ^
STACK CFI eef20 .cfa: $rsp 80 +
STACK CFI INIT eef90 1a .cfa: $rsp .ra: .cfa 8 - ^
STACK CFI eef90 .cfa: $rsp 8 +
STACK CFI INIT eefb0 444 .cfa: $rsp .ra: .cfa 8 - ^
STACK CFI eefb0 .cfa: $rsp 128 +
STACK CFI INIT ef400 47 .cfa: $rsp .ra: .cfa 8 - ^
STACK CFI ef400 .cfa: $rsp 64 +
STACK CFI INIT ef450 7a .cfa: $rsp .ra: .cfa 8 - ^
STACK CFI ef450 .cfa: $rsp 80 +
STACK CFI INIT ef4d0 15 .cfa: $rsp .ra: .cfa 8 - ^
STACK CFI ef4d0 .cfa: $rsp 8 +
STACK CFI INIT ef4f0 1a .cfa: $rsp .ra: .cfa 8 - ^
STACK CFI ef4f0 .cfa: $rsp 8 +
STACK CFI INIT ef510 45 .cfa: $rsp .ra: .cfa 8 - ^
STACK CFI ef510 .cfa: $rsp 64 +
STACK CFI INIT ef560 56 .cfa: $rsp .ra: .cfa 8 - ^
STACK CFI ef560 .cfa: $rsp 80 +
STACK CFI INIT ef5c0 1 .cfa: $rsp .ra: .cfa 8 - ^
STACK CFI ef5c0 .cfa: $rsp 8 +
STACK CFI INIT ef5d0 1a .cfa: $rsp .ra: .cfa 8 - ^
STACK CFI ef5d0 .cfa: $rsp 8 +
STACK CFI INIT ef5f0 47 .cfa: $rsp .ra: .cfa 8 - ^
STACK CFI ef5f0 .cfa: $rsp 64 +
STACK CFI INIT ef640 7 .cfa: $rsp .ra: .cfa 8 - ^
STACK CFI ef640 .cfa: $rsp 8 +
STACK CFI INIT ef650 1a .cfa: $rsp .ra: .cfa 8 - ^
STACK CFI ef650 .cfa: $rsp 8 +
STACK CFI INIT ef670 14 .cfa: $rsp .ra: .cfa 8 - ^
STACK CFI ef670 .cfa: $rsp 8 +
STACK CFI INIT ef690 17 .cfa: $rsp .ra: .cfa 8 - ^
STACK CFI ef690 .cfa: $rsp 8 +
STACK CFI INIT ef6b0 39 .cfa: $rsp .ra: .cfa 8 - ^
STACK CFI ef6b0 .cfa: $rsp 64 +
STACK CFI INIT ef6f0 17 .cfa: $rsp .ra: .cfa 8 - ^
STACK CFI ef6f0 .cfa: $rsp 8 +
STACK CFI INIT ef710 30 .cfa: $rsp .ra: .cfa 8 - ^
STACK CFI ef710 .cfa: $rsp 64 +
STACK CFI INIT ef740 3a .cfa: $rsp .ra: .cfa 8 - ^
STACK CFI ef740 .cfa: $rsp 64 +
STACK CFI INIT ef780 30 .cfa: $rsp .ra: .cfa 8 - ^
STACK CFI ef780 .cfa: $rsp 64 +
STACK CFI INIT ef7b0 17 .cfa: $rsp .ra: .cfa 8 - ^
STACK CFI ef7b0 .cfa: $rsp 8 +
STACK CFI INIT ef7d0 49 .cfa: $rsp .ra: .cfa 8 - ^
STACK CFI ef7d0 .cfa: $rsp 80 +
STACK CFI INIT ef820 49 .cfa: $rsp .ra: .cfa 8 - ^
STACK CFI ef820 .cfa: $rsp 80 +
STACK CFI INIT ef870 659 .cfa: $rsp .ra: .cfa 8 - ^
STACK CFI ef870 .cfa: $rsp 144 +
STACK CFI INIT efed0 47 .cfa: $rsp .ra: .cfa 8 - ^
STACK CFI efed0 .cfa: $rsp 64 +
STACK CFI INIT eff20 7a .cfa: $rsp .ra: .cfa 8 - ^
STACK CFI eff20 .cfa: $rsp 80 +
STACK CFI INIT effa0 1a .cfa: $rsp .ra: .cfa 8 - ^
STACK CFI effa0 .cfa: $rsp 8 +
STACK CFI INIT effc0 1a .cfa: $rsp .ra: .cfa 8 - ^
STACK CFI effc0 .cfa: $rsp 8 +
STACK CFI INIT effe0 47 .cfa: $rsp .ra: .cfa 8 - ^
STACK CFI effe0 .cfa: $rsp 64 +
STACK CFI INIT f0030 5a .cfa: $rsp .ra: .cfa 8 - ^
STACK CFI f0030 .cfa: $rsp 80 +
STACK CFI INIT f0090 1a .cfa: $rsp .ra: .cfa 8 - ^
STACK CFI f0090 .cfa: $rsp 8 +
STACK CFI INIT f00b0 36 .cfa: $rsp .ra: .cfa 8 - ^
STACK CFI f00b0 .cfa: $rsp 64 +
STACK CFI INIT f00f0 3e .cfa: $rsp .ra: .cfa 8 - ^
STACK CFI f00f0 .cfa: $rsp 80 +
STACK CFI INIT f0130 3e .cfa: $rsp .ra: .cfa 8 - ^
STACK CFI f0130 .cfa: $rsp 80 +
STACK CFI INIT f0170 24a .cfa: $rsp .ra: .cfa 8 - ^
STACK CFI f0170 .cfa: $rsp 128 +
STACK CFI INIT f03c0 47 .cfa: $rsp .ra: .cfa 8 - ^
STACK CFI f03c0 .cfa: $rsp 64 +
STACK CFI INIT f0410 7a .cfa: $rsp .ra: .cfa 8 - ^
STACK CFI f0410 .cfa: $rsp 80 +
STACK CFI INIT f0490 1a .cfa: $rsp .ra: .cfa 8 - ^
STACK CFI f0490 .cfa: $rsp 8 +
STACK CFI INIT f04b0 11a .cfa: $rsp .ra: .cfa 8 - ^
STACK CFI f04b0 .cfa: $rsp 96 +
STACK CFI INIT f05d0 45 .cfa: $rsp .ra: .cfa 8 - ^
STACK CFI f05d0 .cfa: $rsp 64 +
STACK CFI INIT f0620 7a .cfa: $rsp .ra: .cfa 8 - ^
STACK CFI f0620 .cfa: $rsp 80 +
STACK CFI INIT f06a0 1a .cfa: $rsp .ra: .cfa 8 - ^
STACK CFI f06a0 .cfa: $rsp 8 +
STACK CFI INIT f06c0 1a .cfa: $rsp .ra: .cfa 8 - ^
STACK CFI f06c0 .cfa: $rsp 8 +
STACK CFI INIT f06e0 45 .cfa: $rsp .ra: .cfa 8 - ^
STACK CFI f06e0 .cfa: $rsp 64 +
STACK CFI INIT f0730 5a .cfa: $rsp .ra: .cfa 8 - ^
STACK CFI f0730 .cfa: $rsp 80 +
STACK CFI INIT f0790 1a .cfa: $rsp .ra: .cfa 8 - ^
STACK CFI f0790 .cfa: $rsp 8 +
STACK CFI INIT f07b0 a0 .cfa: $rsp .ra: .cfa 8 - ^
STACK CFI f07b0 .cfa: $rsp 64 +
STACK CFI INIT f0850 75 .cfa: $rsp .ra: .cfa 8 - ^
STACK CFI f0850 .cfa: $rsp 80 +
STACK CFI INIT f08d0 5f .cfa: $rsp .ra: .cfa 8 - ^
STACK CFI f08d0 .cfa: $rsp 80 +
STACK CFI INIT f0930 1 .cfa: $rsp .ra: .cfa 8 - ^
STACK CFI f0930 .cfa: $rsp 8 +
STACK CFI INIT f0940 1a .cfa: $rsp .ra: .cfa 8 - ^
STACK CFI f0940 .cfa: $rsp 8 +
STACK CFI INIT f0960 47 .cfa: $rsp .ra: .cfa 8 - ^
STACK CFI f0960 .cfa: $rsp 64 +
STACK CFI INIT f09b0 7 .cfa: $rsp .ra: .cfa 8 - ^
STACK CFI f09b0 .cfa: $rsp 8 +
STACK CFI INIT f09c0 1a .cfa: $rsp .ra: .cfa 8 - ^
STACK CFI f09c0 .cfa: $rsp 8 +
STACK CFI INIT f09e0 14 .cfa: $rsp .ra: .cfa 8 - ^
STACK CFI f09e0 .cfa: $rsp 8 +
STACK CFI INIT f0a00 30 .cfa: $rsp .ra: .cfa 8 - ^
STACK CFI f0a00 .cfa: $rsp 64 +
STACK CFI INIT f0a30 3a .cfa: $rsp .ra: .cfa 8 - ^
STACK CFI f0a30 .cfa: $rsp 64 +
STACK CFI INIT f0a70 17 .cfa: $rsp .ra: .cfa 8 - ^
STACK CFI f0a70 .cfa: $rsp 8 +
STACK CFI INIT f0a90 17 .cfa: $rsp .ra: .cfa 8 - ^
STACK CFI f0a90 .cfa: $rsp 8 +
STACK CFI INIT f0ab0 3e .cfa: $rsp .ra: .cfa 8 - ^
STACK CFI f0ab0 .cfa: $rsp 80 +
STACK CFI INIT f0af0 17 .cfa: $rsp .ra: .cfa 8 - ^
STACK CFI f0af0 .cfa: $rsp 8 +
STACK CFI INIT f0b10 49 .cfa: $rsp .ra: .cfa 8 - ^
STACK CFI f0b10 .cfa: $rsp 80 +
STACK CFI INIT f0b60 49 .cfa: $rsp .ra: .cfa 8 - ^
STACK CFI f0b60 .cfa: $rsp 80 +
STACK CFI INIT f0bb0 3f .cfa: $rsp .ra: .cfa 8 - ^
STACK CFI f0bb0 .cfa: $rsp 80 +
STACK CFI INIT f0bf0 3f .cfa: $rsp .ra: .cfa 8 - ^
STACK CFI f0bf0 .cfa: $rsp 80 +
STACK CFI INIT f0c30 3f .cfa: $rsp .ra: .cfa 8 - ^
STACK CFI f0c30 .cfa: $rsp 80 +
STACK CFI INIT f0c70 4e .cfa: $rsp .ra: .cfa 8 - ^
STACK CFI f0c70 .cfa: $rsp 80 +
STACK CFI INIT f0cc0 926 .cfa: $rsp .ra: .cfa 8 - ^
STACK CFI f0cc0 .cfa: $rsp 144 +
STACK CFI INIT f15f0 75 .cfa: $rsp .ra: .cfa 8 - ^
STACK CFI f15f0 .cfa: $rsp 80 +
STACK CFI INIT f1670 7a .cfa: $rsp .ra: .cfa 8 - ^
STACK CFI f1670 .cfa: $rsp 80 +
STACK CFI INIT f16f0 1a .cfa: $rsp .ra: .cfa 8 - ^
STACK CFI f16f0 .cfa: $rsp 8 +
STACK CFI INIT f1710 1a .cfa: $rsp .ra: .cfa 8 - ^
STACK CFI f1710 .cfa: $rsp 8 +
STACK CFI INIT f1730 3c .cfa: $rsp .ra: .cfa 8 - ^
STACK CFI f1730 .cfa: $rsp 80 +
STACK CFI INIT f1770 3f .cfa: $rsp .ra: .cfa 8 - ^
STACK CFI f1770 .cfa: $rsp 80 +
STACK CFI INIT f17b0 17 .cfa: $rsp .ra: .cfa 8 - ^
STACK CFI f17b0 .cfa: $rsp 8 +
STACK CFI INIT f17d0 4e .cfa: $rsp .ra: .cfa 8 - ^
STACK CFI f17d0 .cfa: $rsp 80 +
STACK CFI INIT f1820 30 .cfa: $rsp .ra: .cfa 8 - ^
STACK CFI f1820 .cfa: $rsp 64 +
STACK CFI INIT f1850 3a .cfa: $rsp .ra: .cfa 8 - ^
STACK CFI f1850 .cfa: $rsp 64 +
STACK CFI INIT f1890 a1 .cfa: $rsp .ra: .cfa 8 - ^
STACK CFI f1890 .cfa: $rsp 144 +
STACK CFI INIT f1940 49 .cfa: $rsp .ra: .cfa 8 - ^
STACK CFI f1940 .cfa: $rsp 80 +
STACK CFI INIT f1990 30 .cfa: $rsp .ra: .cfa 8 - ^
STACK CFI f1990 .cfa: $rsp 64 +
STACK CFI INIT f19c0 3e .cfa: $rsp .ra: .cfa 8 - ^
STACK CFI f19c0 .cfa: $rsp 80 +
STACK CFI INIT f1a00 17 .cfa: $rsp .ra: .cfa 8 - ^
STACK CFI f1a00 .cfa: $rsp 8 +
STACK CFI INIT f1a20 4e .cfa: $rsp .ra: .cfa 8 - ^
STACK CFI f1a20 .cfa: $rsp 80 +
STACK CFI INIT f1a70 37 .cfa: $rsp .ra: .cfa 8 - ^
STACK CFI f1a70 .cfa: $rsp 64 +
STACK CFI INIT f1ab0 49 .cfa: $rsp .ra: .cfa 8 - ^
STACK CFI f1ab0 .cfa: $rsp 80 +
STACK CFI INIT f1b00 3a .cfa: $rsp .ra: .cfa 8 - ^
STACK CFI f1b00 .cfa: $rsp 64 +
STACK CFI INIT f1b40 170 .cfa: $rsp .ra: .cfa 8 - ^
STACK CFI f1b40 .cfa: $rsp 128 +
STACK CFI INIT f1cb0 7f .cfa: $rsp .ra: .cfa 8 - ^
STACK CFI f1cb0 .cfa: $rsp 8 +
STACK CFI INIT f1d30 cfb .cfa: $rsp .ra: .cfa 8 - ^
STACK CFI f1d30 .cfa: $rsp 208 +
STACK CFI INIT f2a30 47 .cfa: $rsp .ra: .cfa 8 - ^
STACK CFI f2a30 .cfa: $rsp 64 +
STACK CFI INIT f2a80 7a .cfa: $rsp .ra: .cfa 8 - ^
STACK CFI f2a80 .cfa: $rsp 80 +
STACK CFI INIT f2b00 47 .cfa: $rsp .ra: .cfa 8 - ^
STACK CFI f2b00 .cfa: $rsp 64 +
STACK CFI INIT f2b50 5c .cfa: $rsp .ra: .cfa 8 - ^
STACK CFI f2b50 .cfa: $rsp 80 +
STACK CFI INIT f2bb0 1a .cfa: $rsp .ra: .cfa 8 - ^
STACK CFI f2bb0 .cfa: $rsp 8 +
STACK CFI INIT f2bd0 14 .cfa: $rsp .ra: .cfa 8 - ^
STACK CFI f2bd0 .cfa: $rsp 8 +
STACK CFI INIT f2bf0 17 .cfa: $rsp .ra: .cfa 8 - ^
STACK CFI f2bf0 .cfa: $rsp 8 +
STACK CFI INIT f2c10 3a .cfa: $rsp .ra: .cfa 8 - ^
STACK CFI f2c10 .cfa: $rsp 64 +
STACK CFI INIT f2c50 3a .cfa: $rsp .ra: .cfa 8 - ^
STACK CFI f2c50 .cfa: $rsp 64 +
STACK CFI INIT f2c90 17 .cfa: $rsp .ra: .cfa 8 - ^
STACK CFI f2c90 .cfa: $rsp 8 +
STACK CFI INIT f2cb0 5b .cfa: $rsp .ra: .cfa 8 - ^
STACK CFI f2cb0 .cfa: $rsp 96 +
STACK CFI INIT f2d10 d8e .cfa: $rsp .ra: .cfa 8 - ^
STACK CFI f2d10 .cfa: $rsp 208 +
STACK CFI INIT f3aa0 45 .cfa: $rsp .ra: .cfa 8 - ^
STACK CFI f3aa0 .cfa: $rsp 64 +
STACK CFI INIT f3af0 7a .cfa: $rsp .ra: .cfa 8 - ^
STACK CFI f3af0 .cfa: $rsp 80 +
STACK CFI INIT f3b70 1a .cfa: $rsp .ra: .cfa 8 - ^
STACK CFI f3b70 .cfa: $rsp 8 +
STACK CFI INIT f3b90 43 .cfa: $rsp .ra: .cfa 8 - ^
STACK CFI f3b90 .cfa: $rsp 8 +
STACK CFI INIT f3be0 75 .cfa: $rsp .ra: .cfa 8 - ^
STACK CFI f3be0 .cfa: $rsp 80 +
STACK CFI INIT f3c60 5f .cfa: $rsp .ra: .cfa 8 - ^
STACK CFI f3c60 .cfa: $rsp 80 +
STACK CFI INIT f3cc0 1a .cfa: $rsp .ra: .cfa 8 - ^
STACK CFI f3cc0 .cfa: $rsp 8 +
STACK CFI INIT f3ce0 2d .cfa: $rsp .ra: .cfa 8 - ^
STACK CFI f3ce0 .cfa: $rsp 64 +
STACK CFI INIT f3d10 30 .cfa: $rsp .ra: .cfa 8 - ^
STACK CFI f3d10 .cfa: $rsp 64 +
STACK CFI INIT f3d40 30 .cfa: $rsp .ra: .cfa 8 - ^
STACK CFI f3d40 .cfa: $rsp 64 +
STACK CFI INIT f3d70 17 .cfa: $rsp .ra: .cfa 8 - ^
STACK CFI f3d70 .cfa: $rsp 8 +
STACK CFI INIT f3d90 39 .cfa: $rsp .ra: .cfa 8 - ^
STACK CFI f3d90 .cfa: $rsp 64 +
STACK CFI INIT f3dd0 591 .cfa: $rsp .ra: .cfa 8 - ^
STACK CFI f3dd0 .cfa: $rsp 128 +
STACK CFI INIT f4370 47 .cfa: $rsp .ra: .cfa 8 - ^
STACK CFI f4370 .cfa: $rsp 64 +
STACK CFI INIT f43c0 7a .cfa: $rsp .ra: .cfa 8 - ^
STACK CFI f43c0 .cfa: $rsp 80 +
STACK CFI INIT f4440 1a .cfa: $rsp .ra: .cfa 8 - ^
STACK CFI f4440 .cfa: $rsp 8 +
STACK CFI INIT f4460 14 .cfa: $rsp .ra: .cfa 8 - ^
STACK CFI f4460 .cfa: $rsp 8 +
STACK CFI INIT f4480 39 .cfa: $rsp .ra: .cfa 8 - ^
STACK CFI f4480 .cfa: $rsp 64 +
STACK CFI INIT f44c0 39 .cfa: $rsp .ra: .cfa 8 - ^
STACK CFI f44c0 .cfa: $rsp 64 +
STACK CFI INIT f4500 17 .cfa: $rsp .ra: .cfa 8 - ^
STACK CFI f4500 .cfa: $rsp 8 +
STACK CFI INIT f4520 17 .cfa: $rsp .ra: .cfa 8 - ^
STACK CFI f4520 .cfa: $rsp 8 +
STACK CFI INIT f4540 3f .cfa: $rsp .ra: .cfa 8 - ^
STACK CFI f4540 .cfa: $rsp 80 +
STACK CFI INIT f4580 39 .cfa: $rsp .ra: .cfa 8 - ^
STACK CFI f4580 .cfa: $rsp 64 +
STACK CFI INIT f45c0 5a4 .cfa: $rsp .ra: .cfa 8 - ^
STACK CFI f45c0 .cfa: $rsp 144 +
STACK CFI INIT f4b70 47 .cfa: $rsp .ra: .cfa 8 - ^
STACK CFI f4b70 .cfa: $rsp 64 +
STACK CFI INIT f4bc0 7a .cfa: $rsp .ra: .cfa 8 - ^
STACK CFI f4bc0 .cfa: $rsp 80 +
STACK CFI INIT f4c40 1 .cfa: $rsp .ra: .cfa 8 - ^
STACK CFI f4c40 .cfa: $rsp 8 +
STACK CFI INIT f4c50 1a .cfa: $rsp .ra: .cfa 8 - ^
STACK CFI f4c50 .cfa: $rsp 8 +
STACK CFI INIT f4c70 47 .cfa: $rsp .ra: .cfa 8 - ^
STACK CFI f4c70 .cfa: $rsp 64 +
STACK CFI INIT f4cc0 7 .cfa: $rsp .ra: .cfa 8 - ^
STACK CFI f4cc0 .cfa: $rsp 8 +
STACK CFI INIT f4cd0 1a .cfa: $rsp .ra: .cfa 8 - ^
STACK CFI f4cd0 .cfa: $rsp 8 +
STACK CFI INIT f4cf0 1a .cfa: $rsp .ra: .cfa 8 - ^
STACK CFI f4cf0 .cfa: $rsp 8 +
STACK CFI INIT f4d10 2d .cfa: $rsp .ra: .cfa 8 - ^
STACK CFI f4d10 .cfa: $rsp 64 +
STACK CFI INIT f4d40 15 .cfa: $rsp .ra: .cfa 8 - ^
STACK CFI f4d40 .cfa: $rsp 8 +
STACK CFI INIT f4d60 12a .cfa: $rsp .ra: .cfa 8 - ^
STACK CFI f4d60 .cfa: $rsp 96 +
STACK CFI INIT f4e90 75 .cfa: $rsp .ra: .cfa 8 - ^
STACK CFI f4e90 .cfa: $rsp 80 +
STACK CFI INIT f4f10 7a .cfa: $rsp .ra: .cfa 8 - ^
STACK CFI f4f10 .cfa: $rsp 80 +
STACK CFI INIT f4f90 47 .cfa: $rsp .ra: .cfa 8 - ^
STACK CFI f4f90 .cfa: $rsp 64 +
STACK CFI INIT f4fe0 56 .cfa: $rsp .ra: .cfa 8 - ^
STACK CFI f4fe0 .cfa: $rsp 80 +
STACK CFI INIT f5040 1 .cfa: $rsp .ra: .cfa 8 - ^
STACK CFI f5040 .cfa: $rsp 8 +
STACK CFI INIT f5050 1a .cfa: $rsp .ra: .cfa 8 - ^
STACK CFI f5050 .cfa: $rsp 8 +
STACK CFI INIT f5070 1a .cfa: $rsp .ra: .cfa 8 - ^
STACK CFI f5070 .cfa: $rsp 8 +
STACK CFI INIT f5090 1a .cfa: $rsp .ra: .cfa 8 - ^
STACK CFI f5090 .cfa: $rsp 8 +
STACK CFI INIT f50b0 1a .cfa: $rsp .ra: .cfa 8 - ^
STACK CFI f50b0 .cfa: $rsp 8 +
STACK CFI INIT f50d0 2d .cfa: $rsp .ra: .cfa 8 - ^
STACK CFI f50d0 .cfa: $rsp 64 +
STACK CFI INIT f5100 20 .cfa: $rsp .ra: .cfa 8 - ^
STACK CFI f5100 .cfa: $rsp 8 +
STACK CFI INIT f5120 1 .cfa: $rsp .ra: .cfa 8 - ^
STACK CFI f5120 .cfa: $rsp 8 +
STACK CFI INIT f5130 173 .cfa: $rsp .ra: .cfa 8 - ^
STACK CFI f5130 .cfa: $rsp 96 +
STACK CFI INIT f52b0 150 .cfa: $rsp .ra: .cfa 8 - ^
STACK CFI f52b0 .cfa: $rsp 112 +
STACK CFI INIT f5400 47 .cfa: $rsp .ra: .cfa 8 - ^
STACK CFI f5400 .cfa: $rsp 64 +
STACK CFI INIT f5450 47 .cfa: $rsp .ra: .cfa 8 - ^
STACK CFI f5450 .cfa: $rsp 64 +
STACK CFI INIT f54a0 47 .cfa: $rsp .ra: .cfa 8 - ^
STACK CFI f54a0 .cfa: $rsp 64 +
STACK CFI INIT f54f0 45 .cfa: $rsp .ra: .cfa 8 - ^
STACK CFI f54f0 .cfa: $rsp 64 +
STACK CFI INIT f5540 6a .cfa: $rsp .ra: .cfa 8 - ^
STACK CFI f5540 .cfa: $rsp 80 +
STACK CFI INIT f55b0 7 .cfa: $rsp .ra: .cfa 8 - ^
STACK CFI f55b0 .cfa: $rsp 8 +
STACK CFI INIT f55c0 7 .cfa: $rsp .ra: .cfa 8 - ^
STACK CFI f55c0 .cfa: $rsp 8 +
STACK CFI INIT f55d0 61 .cfa: $rsp .ra: .cfa 8 - ^
STACK CFI f55d0 .cfa: $rsp 80 +
STACK CFI INIT f5640 1a .cfa: $rsp .ra: .cfa 8 - ^
STACK CFI f5640 .cfa: $rsp 8 +
STACK CFI INIT f5660 60 .cfa: $rsp .ra: .cfa 8 - ^
STACK CFI f5660 .cfa: $rsp 8 +
STACK CFI INIT f56c0 47 .cfa: $rsp .ra: .cfa 8 - ^
STACK CFI f56c0 .cfa: $rsp 64 +
STACK CFI INIT f5710 5f .cfa: $rsp .ra: .cfa 8 - ^
STACK CFI f5710 .cfa: $rsp 80 +
STACK CFI INIT f5770 1 .cfa: $rsp .ra: .cfa 8 - ^
STACK CFI f5770 .cfa: $rsp 8 +
STACK CFI INIT f5780 1a .cfa: $rsp .ra: .cfa 8 - ^
STACK CFI f5780 .cfa: $rsp 8 +
STACK CFI INIT f57a0 45 .cfa: $rsp .ra: .cfa 8 - ^
STACK CFI f57a0 .cfa: $rsp 64 +
STACK CFI INIT f57f0 5 .cfa: $rsp .ra: .cfa 8 - ^
STACK CFI f57f0 .cfa: $rsp 8 +
STACK CFI INIT f5800 1 .cfa: $rsp .ra: .cfa 8 - ^
STACK CFI f5800 .cfa: $rsp 8 +
STACK CFI INIT f5810 1a .cfa: $rsp .ra: .cfa 8 - ^
STACK CFI f5810 .cfa: $rsp 8 +
STACK CFI INIT f5830 45 .cfa: $rsp .ra: .cfa 8 - ^
STACK CFI f5830 .cfa: $rsp 64 +
STACK CFI INIT f5880 5 .cfa: $rsp .ra: .cfa 8 - ^
STACK CFI f5880 .cfa: $rsp 8 +
STACK CFI INIT f5890 1a .cfa: $rsp .ra: .cfa 8 - ^
STACK CFI f5890 .cfa: $rsp 8 +
STACK CFI INIT f58b0 c1 .cfa: $rsp .ra: .cfa 8 - ^
STACK CFI f58b0 .cfa: $rsp 8 +
STACK CFI INIT f5980 189 .cfa: $rsp .ra: .cfa 8 - ^
STACK CFI f5980 .cfa: $rsp 112 +
STACK CFI INIT f5b10 45 .cfa: $rsp .ra: .cfa 8 - ^
STACK CFI f5b10 .cfa: $rsp 64 +
STACK CFI INIT f5b60 77 .cfa: $rsp .ra: .cfa 8 - ^
STACK CFI f5b60 .cfa: $rsp 80 +
STACK CFI INIT f5be0 1a .cfa: $rsp .ra: .cfa 8 - ^
STACK CFI f5be0 .cfa: $rsp 8 +
STACK CFI INIT f5c00 76 .cfa: $rsp .ra: .cfa 8 - ^
STACK CFI f5c00 .cfa: $rsp 8 +
STACK CFI INIT f5c80 189 .cfa: $rsp .ra: .cfa 8 - ^
STACK CFI f5c80 .cfa: $rsp 112 +
STACK CFI INIT f5e10 45 .cfa: $rsp .ra: .cfa 8 - ^
STACK CFI f5e10 .cfa: $rsp 64 +
STACK CFI INIT f5e60 77 .cfa: $rsp .ra: .cfa 8 - ^
STACK CFI f5e60 .cfa: $rsp 80 +
STACK CFI INIT f5ee0 15 .cfa: $rsp .ra: .cfa 8 - ^
STACK CFI f5ee0 .cfa: $rsp 8 +
STACK CFI INIT f5f00 1a .cfa: $rsp .ra: .cfa 8 - ^
STACK CFI f5f00 .cfa: $rsp 8 +
STACK CFI INIT f5f20 45 .cfa: $rsp .ra: .cfa 8 - ^
STACK CFI f5f20 .cfa: $rsp 64 +
STACK CFI INIT f5f70 56 .cfa: $rsp .ra: .cfa 8 - ^
STACK CFI f5f70 .cfa: $rsp 80 +
STACK CFI INIT f5fd0 1a .cfa: $rsp .ra: .cfa 8 - ^
STACK CFI f5fd0 .cfa: $rsp 8 +
STACK CFI INIT f5ff0 32 .cfa: $rsp .ra: .cfa 8 - ^
STACK CFI f5ff0 .cfa: $rsp 80 +
STACK CFI INIT f6030 97 .cfa: $rsp .ra: .cfa 8 - ^
STACK CFI f6030 .cfa: $rsp 112 +
STACK CFI INIT f60d0 fa .cfa: $rsp .ra: .cfa 8 - ^
STACK CFI f60d0 .cfa: $rsp 96 +
STACK CFI INIT f61d0 47 .cfa: $rsp .ra: .cfa 8 - ^
STACK CFI f61d0 .cfa: $rsp 64 +
STACK CFI INIT f6220 77 .cfa: $rsp .ra: .cfa 8 - ^
STACK CFI f6220 .cfa: $rsp 80 +
STACK CFI INIT f7920 35 .cfa: $rsp .ra: .cfa 8 - ^
STACK CFI f7920 .cfa: $rsp 48 +
STACK CFI INIT f7960 66 .cfa: $rsp .ra: .cfa 8 - ^
STACK CFI f7960 .cfa: $rsp 64 +
STACK CFI INIT f79d0 1f .cfa: $rsp .ra: .cfa 8 - ^
STACK CFI f79d0 .cfa: $rsp 8 +
STACK CFI INIT f79f0 d6 .cfa: $rsp .ra: .cfa 8 - ^
STACK CFI f79f0 .cfa: $rsp 96 +
STACK CFI INIT f7ad0 f8 .cfa: $rsp .ra: .cfa 8 - ^
STACK CFI f7ad0 .cfa: $rsp 144 +
STACK CFI INIT f7bd0 2f .cfa: $rsp .ra: .cfa 8 - ^
STACK CFI f7bd0 .cfa: $rsp 48 +
STACK CFI INIT f7c00 73 .cfa: $rsp .ra: .cfa 8 - ^
STACK CFI f7c00 .cfa: $rsp 64 +
STACK CFI INIT f7c80 3 .cfa: $rsp .ra: .cfa 8 - ^
STACK CFI f7c80 .cfa: $rsp 8 +
STACK CFI INIT f7c90 4 .cfa: $rsp .ra: .cfa 8 - ^
STACK CFI f7c90 .cfa: $rsp 8 +
STACK CFI INIT f7ca0 4 .cfa: $rsp .ra: .cfa 8 - ^
STACK CFI f7ca0 .cfa: $rsp 8 +
STACK CFI INIT f7cb0 1f9 .cfa: $rsp .ra: .cfa 8 - ^
STACK CFI f7cb0 .cfa: $rsp 128 +
STACK CFI INIT f7eb0 2bb .cfa: $rsp .ra: .cfa 8 - ^
STACK CFI f7eb0 .cfa: $rsp 128 +
STACK CFI INIT f8170 1a0 .cfa: $rsp .ra: .cfa 8 - ^
STACK CFI f8170 .cfa: $rsp 48 +
STACK CFI INIT f8310 ec .cfa: $rsp .ra: .cfa 8 - ^
STACK CFI f8310 .cfa: $rsp 80 +
STACK CFI INIT f8400 1e7 .cfa: $rsp .ra: .cfa 8 - ^
STACK CFI f8400 .cfa: $rsp 48 +
STACK CFI INIT f85f0 6a .cfa: $rsp .ra: .cfa 8 - ^
STACK CFI f85f0 .cfa: $rsp 80 +
STACK CFI INIT f8660 7f .cfa: $rsp .ra: .cfa 8 - ^
STACK CFI f8660 .cfa: $rsp 80 +
STACK CFI INIT f86e0 a0 .cfa: $rsp .ra: .cfa 8 - ^
STACK CFI f86e0 .cfa: $rsp 48 +
STACK CFI INIT f8780 da .cfa: $rsp .ra: .cfa 8 - ^
STACK CFI f8780 .cfa: $rsp 48 +
STACK CFI INIT f8860 1e .cfa: $rsp .ra: .cfa 8 - ^
STACK CFI f8860 .cfa: $rsp 8 +
STACK CFI INIT f8880 12 .cfa: $rsp .ra: .cfa 8 - ^
STACK CFI f8880 .cfa: $rsp 8 +
STACK CFI INIT f88a0 44 .cfa: $rsp .ra: .cfa 8 - ^
STACK CFI f88a0 .cfa: $rsp 8 +
STACK CFI INIT f88f0 8d .cfa: $rsp .ra: .cfa 8 - ^
STACK CFI f88f0 .cfa: $rsp 64 +
STACK CFI INIT f8980 74 .cfa: $rsp .ra: .cfa 8 - ^
STACK CFI f8980 .cfa: $rsp 48 +
STACK CFI INIT f8a00 3e .cfa: $rsp .ra: .cfa 8 - ^
STACK CFI f8a00 .cfa: $rsp 48 +
STACK CFI INIT f8a40 6f .cfa: $rsp .ra: .cfa 8 - ^
STACK CFI f8a40 .cfa: $rsp 48 +
STACK CFI INIT f8ab0 37 .cfa: $rsp .ra: .cfa 8 - ^
STACK CFI f8ab0 .cfa: $rsp 48 +
STACK CFI INIT f8af0 91 .cfa: $rsp .ra: .cfa 8 - ^
STACK CFI f8af0 .cfa: $rsp 48 +
STACK CFI INIT f8b90 a6 .cfa: $rsp .ra: .cfa 8 - ^
STACK CFI f8b90 .cfa: $rsp 48 +
STACK CFI INIT f8c40 3 .cfa: $rsp .ra: .cfa 8 - ^
STACK CFI f8c40 .cfa: $rsp 8 +
STACK CFI INIT f8c90 6 .cfa: $rsp .ra: .cfa 8 - ^
STACK CFI f8c90 .cfa: $rsp 8 +
STACK CFI INIT f8ca0 6 .cfa: $rsp .ra: .cfa 8 - ^
STACK CFI f8ca0 .cfa: $rsp 8 +
STACK CFI INIT f8cb0 1eb .cfa: $rsp .ra: .cfa 8 - ^
STACK CFI f8cb0 .cfa: $rsp 112 +
STACK CFI INIT f8ea0 30 .cfa: $rsp .ra: .cfa 8 - ^
STACK CFI f8ea0 .cfa: $rsp 48 +
STACK CFI INIT f8ed0 7f .cfa: $rsp .ra: .cfa 8 - ^
STACK CFI f8ed0 .cfa: $rsp 64 +
STACK CFI INIT f8f50 8d .cfa: $rsp .ra: .cfa 8 - ^
STACK CFI f8f50 .cfa: $rsp 80 +
STACK CFI INIT f8fe0 23 .cfa: $rsp .ra: .cfa 8 - ^
STACK CFI f8fe0 .cfa: $rsp 48 +
STACK CFI INIT f9010 88 .cfa: $rsp .ra: .cfa 8 - ^
STACK CFI f9010 .cfa: $rsp 80 +
STACK CFI INIT f90a0 95 .cfa: $rsp .ra: .cfa 8 - ^
STACK CFI f90a0 .cfa: $rsp 64 +
STACK CFI INIT f9140 5b .cfa: $rsp .ra: .cfa 8 - ^
STACK CFI f9140 .cfa: $rsp 64 +
STACK CFI INIT f91a0 3229 .cfa: $rsp .ra: .cfa 8 - ^
STACK CFI f91a0 .cfa: $rsp 384 +
STACK CFI INIT fc3d0 39 .cfa: $rsp .ra: .cfa 8 - ^
STACK CFI fc3d0 .cfa: $rsp 4176 +
STACK CFI INIT fc410 41 .cfa: $rsp .ra: .cfa 8 - ^
STACK CFI fc410 .cfa: $rsp 4176 +
STACK CFI INIT fc460 a4 .cfa: $rsp .ra: .cfa 8 - ^
STACK CFI fc460 .cfa: $rsp 96 +
STACK CFI INIT fc510 be .cfa: $rsp .ra: .cfa 8 - ^
STACK CFI fc510 .cfa: $rsp 96 +
STACK CFI INIT fc5d0 17f .cfa: $rsp .ra: .cfa 8 - ^
STACK CFI fc5d0 .cfa: $rsp 112 +
STACK CFI INIT fc750 66 .cfa: $rsp .ra: .cfa 8 - ^
STACK CFI fc750 .cfa: $rsp 128 +
STACK CFI INIT fc7c0 ed .cfa: $rsp .ra: .cfa 8 - ^
STACK CFI fc7c0 .cfa: $rsp 128 +
STACK CFI INIT fc8b0 58 .cfa: $rsp .ra: .cfa 8 - ^
STACK CFI fc8b0 .cfa: $rsp 112 +
STACK CFI INIT fc910 222 .cfa: $rsp .ra: .cfa 8 - ^
STACK CFI fc910 .cfa: $rsp 112 +
STACK CFI INIT fcb40 ac .cfa: $rsp .ra: .cfa 8 - ^
STACK CFI fcb40 .cfa: $rsp 64 +
STACK CFI INIT fcbf0 384 .cfa: $rsp .ra: .cfa 8 - ^
STACK CFI fcbf0 .cfa: $rsp 144 +
STACK CFI INIT fcf80 2c .cfa: $rsp .ra: .cfa 8 - ^
STACK CFI fcf80 .cfa: $rsp 8 +
STACK CFI INIT fcfb0 8b .cfa: $rsp .ra: .cfa 8 - ^
STACK CFI fcfb0 .cfa: $rsp 64 +
STACK CFI INIT fd040 1b63 .cfa: $rsp .ra: .cfa 8 - ^
STACK CFI fd040 .cfa: $rsp 320 +
STACK CFI INIT febb0 148 .cfa: $rsp .ra: .cfa 8 - ^
STACK CFI febb0 .cfa: $rsp 96 +
STACK CFI INIT fed00 90f .cfa: $rsp .ra: .cfa 8 - ^
STACK CFI fed00 .cfa: $rsp 128 +
STACK CFI INIT ff610 f3 .cfa: $rsp .ra: .cfa 8 - ^
STACK CFI ff610 .cfa: $rsp 48 +
STACK CFI INIT ff710 43 .cfa: $rsp .ra: .cfa 8 - ^
STACK CFI ff710 .cfa: $rsp 8 +
STACK CFI INIT ff760 96 .cfa: $rsp .ra: .cfa 8 - ^
STACK CFI ff760 .cfa: $rsp 8 +
STACK CFI INIT ff800 399 .cfa: $rsp .ra: .cfa 8 - ^
STACK CFI ff800 .cfa: $rsp 144 +
STACK CFI INIT ffba0 c2 .cfa: $rsp .ra: .cfa 8 - ^
STACK CFI ffba0 .cfa: $rsp 64 +
STACK CFI INIT ffc70 42 .cfa: $rsp .ra: .cfa 8 - ^
STACK CFI ffc70 .cfa: $rsp 48 +
STACK CFI INIT ffcc0 f5 .cfa: $rsp .ra: .cfa 8 - ^
STACK CFI ffcc0 .cfa: $rsp 80 +
STACK CFI INIT ffdc0 63 .cfa: $rsp .ra: .cfa 8 - ^
STACK CFI ffdc0 .cfa: $rsp 48 +
STACK CFI INIT ffe30 a9 .cfa: $rsp .ra: .cfa 8 - ^
STACK CFI ffe30 .cfa: $rsp 80 +
STACK CFI INIT ffee0 26 .cfa: $rsp .ra: .cfa 8 - ^
STACK CFI ffee0 .cfa: $rsp 48 +
STACK CFI INIT fff10 121 .cfa: $rsp .ra: .cfa 8 - ^
STACK CFI fff10 .cfa: $rsp 96 +
STACK CFI INIT 100040 179 .cfa: $rsp .ra: .cfa 8 - ^
STACK CFI 100040 .cfa: $rsp 80 +
STACK CFI INIT 1001c0 fe .cfa: $rsp .ra: .cfa 8 - ^
STACK CFI 1001c0 .cfa: $rsp 96 +
STACK CFI INIT 1002c0 3e .cfa: $rsp .ra: .cfa 8 - ^
STACK CFI 1002c0 .cfa: $rsp 8 +
STACK CFI INIT 100300 16d .cfa: $rsp .ra: .cfa 8 - ^
STACK CFI 100300 .cfa: $rsp 80 +
STACK CFI INIT 100470 105 .cfa: $rsp .ra: .cfa 8 - ^
STACK CFI 100470 .cfa: $rsp 32 +
STACK CFI INIT 100580 118 .cfa: $rsp .ra: .cfa 8 - ^
STACK CFI 100580 .cfa: $rsp 64 +
STACK CFI INIT 1006a0 23 .cfa: $rsp .ra: .cfa 8 - ^
STACK CFI 1006a0 .cfa: $rsp 8 +
STACK CFI INIT 1006d0 f7 .cfa: $rsp .ra: .cfa 8 - ^
STACK CFI 1006d0 .cfa: $rsp 96 +
STACK CFI INIT 1007d0 a4 .cfa: $rsp .ra: .cfa 8 - ^
STACK CFI 1007d0 .cfa: $rsp 112 +
STACK CFI INIT 100880 43 .cfa: $rsp .ra: .cfa 8 - ^
STACK CFI 100880 .cfa: $rsp 8 +
STACK CFI INIT 1008d0 53 .cfa: $rsp .ra: .cfa 8 - ^
STACK CFI 1008d0 .cfa: $rsp 24 +
STACK CFI INIT 100930 93 .cfa: $rsp .ra: .cfa 8 - ^
STACK CFI 100930 .cfa: $rsp 8 +
STACK CFI INIT 100ae0 25 .cfa: $rsp .ra: .cfa 8 - ^
STACK CFI 100ae0 .cfa: $rsp 8 +
STACK CFI INIT 100b10 c8 .cfa: $rsp .ra: .cfa 8 - ^
STACK CFI 100b10 .cfa: $rsp 80 +
STACK CFI INIT 100be0 6f .cfa: $rsp .ra: .cfa 8 - ^
STACK CFI 100be0 .cfa: $rsp 64 +
STACK CFI INIT 100c50 1f .cfa: $rsp .ra: .cfa 8 - ^
STACK CFI 100c50 .cfa: $rsp 48 +
STACK CFI INIT 100de0 e3 .cfa: $rsp .ra: .cfa 8 - ^
STACK CFI 100de0 .cfa: $rsp 112 +
STACK CFI INIT 100ed0 396 .cfa: $rsp .ra: .cfa 8 - ^
STACK CFI 100ed0 .cfa: $rsp 128 +
STACK CFI INIT 101270 4e6 .cfa: $rsp .ra: .cfa 8 - ^
STACK CFI 101270 .cfa: $rsp 176 +
STACK CFI INIT 101760 334 .cfa: $rsp .ra: .cfa 8 - ^
STACK CFI 101760 .cfa: $rsp 160 +
STACK CFI INIT 101aa0 2a .cfa: $rsp .ra: .cfa 8 - ^
STACK CFI 101aa0 .cfa: $rsp 8 +
STACK CFI INIT 101ad0 42c .cfa: $rsp .ra: .cfa 8 - ^
STACK CFI 101ad0 .cfa: $rsp 64 +
STACK CFI INIT 101f00 3c6 .cfa: $rsp .ra: .cfa 8 - ^
STACK CFI 101f00 .cfa: $rsp 80 +
STACK CFI INIT 1022d0 1fc .cfa: $rsp .ra: .cfa 8 - ^
STACK CFI 1022d0 .cfa: $rsp 112 +
STACK CFI INIT 1024d0 a3 .cfa: $rsp .ra: .cfa 8 - ^
STACK CFI 1024d0 .cfa: $rsp 96 +
STACK CFI INIT 102580 2a .cfa: $rsp .ra: .cfa 8 - ^
STACK CFI 102580 .cfa: $rsp 48 +
STACK CFI INIT 1025b0 11 .cfa: $rsp .ra: .cfa 8 - ^
STACK CFI 1025b0 .cfa: $rsp 8 +
STACK CFI INIT 1025d0 2a .cfa: $rsp .ra: .cfa 8 - ^
STACK CFI 1025d0 .cfa: $rsp 48 +
STACK CFI INIT 102600 11 .cfa: $rsp .ra: .cfa 8 - ^
STACK CFI 102600 .cfa: $rsp 8 +
STACK CFI INIT 102620 2a .cfa: $rsp .ra: .cfa 8 - ^
STACK CFI 102620 .cfa: $rsp 48 +
STACK CFI INIT 102650 11 .cfa: $rsp .ra: .cfa 8 - ^
STACK CFI 102650 .cfa: $rsp 8 +
STACK CFI INIT 102670 60 .cfa: $rsp .ra: .cfa 8 - ^
STACK CFI 102670 .cfa: $rsp 64 +
STACK CFI INIT 1026d0 11 .cfa: $rsp .ra: .cfa 8 - ^
STACK CFI 1026d0 .cfa: $rsp 8 +
STACK CFI INIT 1026f0 56 .cfa: $rsp .ra: .cfa 8 - ^
STACK CFI 1026f0 .cfa: $rsp 48 +
STACK CFI INIT 102750 a .cfa: $rsp .ra: .cfa 8 - ^
STACK CFI 102750 .cfa: $rsp 8 +
STACK CFI INIT 102760 2a .cfa: $rsp .ra: .cfa 8 - ^
STACK CFI 102760 .cfa: $rsp 48 +
STACK CFI INIT 102790 11 .cfa: $rsp .ra: .cfa 8 - ^
STACK CFI 102790 .cfa: $rsp 8 +
STACK CFI INIT 1027b0 f8 .cfa: $rsp .ra: .cfa 8 - ^
STACK CFI 1027b0 .cfa: $rsp 112 +
STACK CFI INIT 1028b0 4a .cfa: $rsp .ra: .cfa 8 - ^
STACK CFI 1028b0 .cfa: $rsp 48 +
STACK CFI INIT 102900 3e .cfa: $rsp .ra: .cfa 8 - ^
STACK CFI 102900 .cfa: $rsp 48 +
STACK CFI INIT 102940 92 .cfa: $rsp .ra: .cfa 8 - ^
STACK CFI 102940 .cfa: $rsp 80 +
STACK CFI INIT 1029e0 b .cfa: $rsp .ra: .cfa 8 - ^
STACK CFI 1029e0 .cfa: $rsp 8 +
STACK CFI INIT 1029f0 b .cfa: $rsp .ra: .cfa 8 - ^
STACK CFI 1029f0 .cfa: $rsp 8 +
STACK CFI INIT 102a00 1 .cfa: $rsp .ra: .cfa 8 - ^
STACK CFI 102a00 .cfa: $rsp 8 +
STACK CFI INIT 102a10 1 .cfa: $rsp .ra: .cfa 8 - ^
STACK CFI 102a10 .cfa: $rsp 8 +
STACK CFI INIT 102a20 9 .cfa: $rsp .ra: .cfa 8 - ^
STACK CFI 102a20 .cfa: $rsp 8 +
STACK CFI INIT 102a30 1 .cfa: $rsp .ra: .cfa 8 - ^
STACK CFI 102a30 .cfa: $rsp 8 +
STACK CFI INIT 102a40 9 .cfa: $rsp .ra: .cfa 8 - ^
STACK CFI 102a40 .cfa: $rsp 8 +
STACK CFI INIT 102a50 1 .cfa: $rsp .ra: .cfa 8 - ^
STACK CFI 102a50 .cfa: $rsp 8 +
STACK CFI INIT 102a60 20 .cfa: $rsp .ra: .cfa 8 - ^
STACK CFI 102a60 .cfa: $rsp 48 +
STACK CFI INIT 102a80 1 .cfa: $rsp .ra: .cfa 8 - ^
STACK CFI 102a80 .cfa: $rsp 8 +
STACK CFI INIT 102a90 161 .cfa: $rsp .ra: .cfa 8 - ^
STACK CFI 102a90 .cfa: $rsp 64 +
STACK CFI INIT 102c00 141 .cfa: $rsp .ra: .cfa 8 - ^
STACK CFI 102c00 .cfa: $rsp 64 +
STACK CFI INIT 102d50 151 .cfa: $rsp .ra: .cfa 8 - ^
STACK CFI 102d50 .cfa: $rsp 64 +
STACK CFI INIT 102eb0 1a1 .cfa: $rsp .ra: .cfa 8 - ^
STACK CFI 102eb0 .cfa: $rsp 64 +
STACK CFI INIT 103060 184 .cfa: $rsp .ra: .cfa 8 - ^
STACK CFI 103060 .cfa: $rsp 64 +
STACK CFI INIT 1031f0 f7 .cfa: $rsp .ra: .cfa 8 - ^
STACK CFI 1031f0 .cfa: $rsp 48 +
STACK CFI INIT 1032f0 f4 .cfa: $rsp .ra: .cfa 8 - ^
STACK CFI 1032f0 .cfa: $rsp 48 +
STACK CFI INIT 1033f0 97 .cfa: $rsp .ra: .cfa 8 - ^
STACK CFI 1033f0 .cfa: $rsp 48 +
STACK CFI INIT 103490 94 .cfa: $rsp .ra: .cfa 8 - ^
STACK CFI 103490 .cfa: $rsp 48 +
STACK CFI INIT 103530 7 .cfa: $rsp .ra: .cfa 8 - ^
STACK CFI 103530 .cfa: $rsp 8 +
STACK CFI INIT 103540 1 .cfa: $rsp .ra: .cfa 8 - ^
STACK CFI 103540 .cfa: $rsp 8 +
STACK CFI INIT 103550 1 .cfa: $rsp .ra: .cfa 8 - ^
STACK CFI 103550 .cfa: $rsp 8 +
STACK CFI INIT 103560 1 .cfa: $rsp .ra: .cfa 8 - ^
STACK CFI 103560 .cfa: $rsp 8 +
STACK CFI INIT 103570 1 .cfa: $rsp .ra: .cfa 8 - ^
STACK CFI 103570 .cfa: $rsp 8 +
STACK CFI INIT 103580 36 .cfa: $rsp .ra: .cfa 8 - ^
STACK CFI 103580 .cfa: $rsp 48 +
STACK CFI INIT 1035c0 1c .cfa: $rsp .ra: .cfa 8 - ^
STACK CFI 1035c0 .cfa: $rsp 8 +
STACK CFI INIT 1035e0 36 .cfa: $rsp .ra: .cfa 8 - ^
STACK CFI 1035e0 .cfa: $rsp 48 +
STACK CFI INIT 103620 1c .cfa: $rsp .ra: .cfa 8 - ^
STACK CFI 103620 .cfa: $rsp 8 +
STACK CFI INIT 103640 10 .cfa: $rsp .ra: .cfa 8 - ^
STACK CFI 103640 .cfa: $rsp 8 +
STACK CFI INIT 103650 29 .cfa: $rsp .ra: .cfa 8 - ^
STACK CFI 103650 .cfa: $rsp 64 +
STACK CFI INIT 103680 e .cfa: $rsp .ra: .cfa 8 - ^
STACK CFI 103680 .cfa: $rsp 8 +
STACK CFI INIT 103690 d .cfa: $rsp .ra: .cfa 8 - ^
STACK CFI 103690 .cfa: $rsp 8 +
STACK CFI INIT 1036a0 10 .cfa: $rsp .ra: .cfa 8 - ^
STACK CFI 1036a0 .cfa: $rsp 8 +
STACK CFI INIT 1036b0 29 .cfa: $rsp .ra: .cfa 8 - ^
STACK CFI 1036b0 .cfa: $rsp 64 +
STACK CFI INIT 1036e0 e .cfa: $rsp .ra: .cfa 8 - ^
STACK CFI 1036e0 .cfa: $rsp 8 +
STACK CFI INIT 1036f0 d .cfa: $rsp .ra: .cfa 8 - ^
STACK CFI 1036f0 .cfa: $rsp 8 +
STACK CFI INIT 103700 5 .cfa: $rsp .ra: .cfa 8 - ^
STACK CFI 103700 .cfa: $rsp 8 +
STACK CFI INIT 103710 2e .cfa: $rsp .ra: .cfa 8 - ^
STACK CFI 103710 .cfa: $rsp 48 +
STACK CFI INIT 103740 5 .cfa: $rsp .ra: .cfa 8 - ^
STACK CFI 103740 .cfa: $rsp 8 +
STACK CFI INIT 103750 a3 .cfa: $rsp .ra: .cfa 8 - ^
STACK CFI 103750 .cfa: $rsp 64 +
STACK CFI INIT 103800 3d .cfa: $rsp .ra: .cfa 8 - ^
STACK CFI 103800 .cfa: $rsp 48 +
STACK CFI INIT 103840 40 .cfa: $rsp .ra: .cfa 8 - ^
STACK CFI 103840 .cfa: $rsp 8 +
STACK CFI INIT 103880 3d .cfa: $rsp .ra: .cfa 8 - ^
STACK CFI 103880 .cfa: $rsp 48 +
STACK CFI INIT 1038c0 40 .cfa: $rsp .ra: .cfa 8 - ^
STACK CFI 1038c0 .cfa: $rsp 8 +
STACK CFI INIT 103900 7d .cfa: $rsp .ra: .cfa 8 - ^
STACK CFI 103900 .cfa: $rsp 48 +
STACK CFI INIT 103980 d9 .cfa: $rsp .ra: .cfa 8 - ^
STACK CFI 103980 .cfa: $rsp 64 +
STACK CFI INIT 103a60 5 .cfa: $rsp .ra: .cfa 8 - ^
STACK CFI 103a60 .cfa: $rsp 8 +
STACK CFI INIT 103a70 5c .cfa: $rsp .ra: .cfa 8 - ^
STACK CFI 103a70 .cfa: $rsp 80 +
STACK CFI INIT 103ad0 5 .cfa: $rsp .ra: .cfa 8 - ^
STACK CFI 103ad0 .cfa: $rsp 8 +
STACK CFI INIT 103ae0 6e .cfa: $rsp .ra: .cfa 8 - ^
STACK CFI 103ae0 .cfa: $rsp 64 +
STACK CFI INIT 103b50 5 .cfa: $rsp .ra: .cfa 8 - ^
STACK CFI 103b50 .cfa: $rsp 8 +
STACK CFI INIT 103b60 2e .cfa: $rsp .ra: .cfa 8 - ^
STACK CFI 103b60 .cfa: $rsp 48 +
STACK CFI INIT 103b90 6 .cfa: $rsp .ra: .cfa 8 - ^
STACK CFI 103b90 .cfa: $rsp 8 +
STACK CFI INIT 103ba0 58 .cfa: $rsp .ra: .cfa 8 - ^
STACK CFI 103ba0 .cfa: $rsp 80 +
STACK CFI INIT 103c00 5 .cfa: $rsp .ra: .cfa 8 - ^
STACK CFI 103c00 .cfa: $rsp 8 +
STACK CFI INIT 103c10 2e .cfa: $rsp .ra: .cfa 8 - ^
STACK CFI 103c10 .cfa: $rsp 48 +
STACK CFI INIT 103c40 127 .cfa: $rsp .ra: .cfa 8 - ^
STACK CFI 103c40 .cfa: $rsp 80 +
STACK CFI INIT 103d70 28 .cfa: $rsp .ra: .cfa 8 - ^
STACK CFI 103d70 .cfa: $rsp 8 +
STACK CFI INIT 103da0 5 .cfa: $rsp .ra: .cfa 8 - ^
STACK CFI 103da0 .cfa: $rsp 8 +
STACK CFI INIT 103db0 b5 .cfa: $rsp .ra: .cfa 8 - ^
STACK CFI 103db0 .cfa: $rsp 80 +
STACK CFI INIT 103e70 124 .cfa: $rsp .ra: .cfa 8 - ^
STACK CFI 103e70 .cfa: $rsp 96 +
STACK CFI INIT 103fa0 e6 .cfa: $rsp .ra: .cfa 8 - ^
STACK CFI 103fa0 .cfa: $rsp 80 +
STACK CFI INIT 104090 62 .cfa: $rsp .ra: .cfa 8 - ^
STACK CFI 104090 .cfa: $rsp 64 +
STACK CFI INIT 104100 b5 .cfa: $rsp .ra: .cfa 8 - ^
STACK CFI 104100 .cfa: $rsp 80 +
STACK CFI INIT 1041c0 77 .cfa: $rsp .ra: .cfa 8 - ^
STACK CFI 1041c0 .cfa: $rsp 48 +
STACK CFI INIT 104240 4c .cfa: $rsp .ra: .cfa 8 - ^
STACK CFI 104240 .cfa: $rsp 8 +
STACK CFI INIT 104290 1 .cfa: $rsp .ra: .cfa 8 - ^
STACK CFI 104290 .cfa: $rsp 8 +
STACK CFI INIT 1042a0 17 .cfa: $rsp .ra: .cfa 8 - ^
STACK CFI 1042a0 .cfa: $rsp 8 +
STACK CFI INIT 1042c0 97 .cfa: $rsp .ra: .cfa 8 - ^
STACK CFI 1042c0 .cfa: $rsp 48 +
STACK CFI INIT 104360 a5 .cfa: $rsp .ra: .cfa 8 - ^
STACK CFI 104360 .cfa: $rsp 64 +
STACK CFI INIT 104410 1 .cfa: $rsp .ra: .cfa 8 - ^
STACK CFI 104410 .cfa: $rsp 8 +
STACK CFI INIT 104420 d .cfa: $rsp .ra: .cfa 8 - ^
STACK CFI 104420 .cfa: $rsp 8 +
STACK CFI INIT 104430 1 .cfa: $rsp .ra: .cfa 8 - ^
STACK CFI 104430 .cfa: $rsp 8 +
STACK CFI INIT 104440 d .cfa: $rsp .ra: .cfa 8 - ^
STACK CFI 104440 .cfa: $rsp 8 +
STACK CFI INIT 104450 1 .cfa: $rsp .ra: .cfa 8 - ^
STACK CFI 104450 .cfa: $rsp 8 +
STACK CFI INIT 104460 d .cfa: $rsp .ra: .cfa 8 - ^
STACK CFI 104460 .cfa: $rsp 8 +
STACK CFI INIT 104470 1 .cfa: $rsp .ra: .cfa 8 - ^
STACK CFI 104470 .cfa: $rsp 8 +
STACK CFI INIT 104480 d .cfa: $rsp .ra: .cfa 8 - ^
STACK CFI 104480 .cfa: $rsp 8 +
STACK CFI INIT 104490 1 .cfa: $rsp .ra: .cfa 8 - ^
STACK CFI 104490 .cfa: $rsp 8 +
STACK CFI INIT 1044a0 d .cfa: $rsp .ra: .cfa 8 - ^
STACK CFI 1044a0 .cfa: $rsp 8 +
STACK CFI INIT 1044b0 1 .cfa: $rsp .ra: .cfa 8 - ^
STACK CFI 1044b0 .cfa: $rsp 8 +
STACK CFI INIT 1044c0 d .cfa: $rsp .ra: .cfa 8 - ^
STACK CFI 1044c0 .cfa: $rsp 8 +
STACK CFI INIT 1044d0 1 .cfa: $rsp .ra: .cfa 8 - ^
STACK CFI 1044d0 .cfa: $rsp 8 +
STACK CFI INIT 1044e0 d .cfa: $rsp .ra: .cfa 8 - ^
STACK CFI 1044e0 .cfa: $rsp 8 +
STACK CFI INIT 1044f0 1 .cfa: $rsp .ra: .cfa 8 - ^
STACK CFI 1044f0 .cfa: $rsp 8 +
STACK CFI INIT 104500 ac .cfa: $rsp .ra: .cfa 8 - ^
STACK CFI 104500 .cfa: $rsp 8 +
STACK CFI INIT 1045b0 1 .cfa: $rsp .ra: .cfa 8 - ^
STACK CFI 1045b0 .cfa: $rsp 8 +
STACK CFI INIT 1045c0 49 .cfa: $rsp .ra: .cfa 8 - ^
STACK CFI 1045c0 .cfa: $rsp 8 +
STACK CFI INIT 104610 1 .cfa: $rsp .ra: .cfa 8 - ^
STACK CFI 104610 .cfa: $rsp 8 +
STACK CFI INIT 104620 f .cfa: $rsp .ra: .cfa 8 - ^
STACK CFI 104620 .cfa: $rsp 8 +
STACK CFI INIT 104630 1 .cfa: $rsp .ra: .cfa 8 - ^
STACK CFI 104630 .cfa: $rsp 8 +
STACK CFI INIT 104640 f .cfa: $rsp .ra: .cfa 8 - ^
STACK CFI 104640 .cfa: $rsp 8 +
STACK CFI INIT 104650 1 .cfa: $rsp .ra: .cfa 8 - ^
STACK CFI 104650 .cfa: $rsp 8 +
STACK CFI INIT 104660 f .cfa: $rsp .ra: .cfa 8 - ^
STACK CFI 104660 .cfa: $rsp 8 +
STACK CFI INIT 104670 2c .cfa: $rsp .ra: .cfa 8 - ^
STACK CFI 104670 .cfa: $rsp 64 +
STACK CFI INIT 1046a0 2c .cfa: $rsp .ra: .cfa 8 - ^
STACK CFI 1046a0 .cfa: $rsp 64 +
STACK CFI INIT 1046d0 2c .cfa: $rsp .ra: .cfa 8 - ^
STACK CFI 1046d0 .cfa: $rsp 64 +
STACK CFI INIT 104700 2c .cfa: $rsp .ra: .cfa 8 - ^
STACK CFI 104700 .cfa: $rsp 64 +
STACK CFI INIT 104730 13 .cfa: $rsp .ra: .cfa 8 - ^
STACK CFI 104730 .cfa: $rsp 8 +
STACK CFI INIT 104750 13 .cfa: $rsp .ra: .cfa 8 - ^
STACK CFI 104750 .cfa: $rsp 8 +
STACK CFI INIT 104770 15 .cfa: $rsp .ra: .cfa 8 - ^
STACK CFI 104770 .cfa: $rsp 8 +
STACK CFI INIT 104790 18 .cfa: $rsp .ra: .cfa 8 - ^
STACK CFI 104790 .cfa: $rsp 8 +
STACK CFI INIT 1047b0 a .cfa: $rsp .ra: .cfa 8 - ^
STACK CFI 1047b0 .cfa: $rsp 8 +
STACK CFI INIT 1047c0 a .cfa: $rsp .ra: .cfa 8 - ^
STACK CFI 1047c0 .cfa: $rsp 8 +
STACK CFI INIT 1047d0 12 .cfa: $rsp .ra: .cfa 8 - ^
STACK CFI 1047d0 .cfa: $rsp 8 +
STACK CFI INIT 1047f0 16 .cfa: $rsp .ra: .cfa 8 - ^
STACK CFI 1047f0 .cfa: $rsp 8 +
STACK CFI INIT 104810 77 .cfa: $rsp .ra: .cfa 8 - ^
STACK CFI 104810 .cfa: $rsp 48 +
STACK CFI INIT 104890 68 .cfa: $rsp .ra: .cfa 8 - ^
STACK CFI 104890 .cfa: $rsp 48 +
STACK CFI INIT 104900 2a .cfa: $rsp .ra: .cfa 8 - ^
STACK CFI 104900 .cfa: $rsp 48 +
STACK CFI INIT 104930 11 .cfa: $rsp .ra: .cfa 8 - ^
STACK CFI 104930 .cfa: $rsp 8 +
STACK CFI INIT 104950 44e .cfa: $rsp .ra: .cfa 8 - ^
STACK CFI 104950 .cfa: $rsp 112 +
STACK CFI INIT 104da0 84 .cfa: $rsp .ra: .cfa 8 - ^
STACK CFI 104da0 .cfa: $rsp 64 +
STACK CFI INIT 104e30 18a .cfa: $rsp .ra: .cfa 8 - ^
STACK CFI 104e30 .cfa: $rsp 64 +
STACK CFI INIT 104fc0 27a .cfa: $rsp .ra: .cfa 8 - ^
STACK CFI 104fc0 .cfa: $rsp 64 +
STACK CFI INIT 105240 256 .cfa: $rsp .ra: .cfa 8 - ^
STACK CFI 105240 .cfa: $rsp 80 +
STACK CFI INIT 1054a0 127 .cfa: $rsp .ra: .cfa 8 - ^
STACK CFI 1054a0 .cfa: $rsp 64 +
STACK CFI INIT 1055d0 3e6 .cfa: $rsp .ra: .cfa 8 - ^
STACK CFI 1055d0 .cfa: $rsp 64 +
STACK CFI INIT 1059c0 57 .cfa: $rsp .ra: .cfa 8 - ^
STACK CFI 1059c0 .cfa: $rsp 64 +
STACK CFI INIT 105a20 117 .cfa: $rsp .ra: .cfa 8 - ^
STACK CFI 105a20 .cfa: $rsp 64 +
STACK CFI INIT 105b40 c7 .cfa: $rsp .ra: .cfa 8 - ^
STACK CFI 105b40 .cfa: $rsp 80 +
STACK CFI INIT 105c10 156 .cfa: $rsp .ra: .cfa 8 - ^
STACK CFI 105c10 .cfa: $rsp 80 +
STACK CFI INIT 105d70 117 .cfa: $rsp .ra: .cfa 8 - ^
STACK CFI 105d70 .cfa: $rsp 64 +
STACK CFI INIT 105e90 137 .cfa: $rsp .ra: .cfa 8 - ^
STACK CFI 105e90 .cfa: $rsp 80 +
STACK CFI INIT 105fd0 18a .cfa: $rsp .ra: .cfa 8 - ^
STACK CFI 105fd0 .cfa: $rsp 64 +
STACK CFI INIT 106160 1c6 .cfa: $rsp .ra: .cfa 8 - ^
STACK CFI 106160 .cfa: $rsp 80 +
STACK CFI INIT 106330 1b6 .cfa: $rsp .ra: .cfa 8 - ^
STACK CFI 106330 .cfa: $rsp 80 +
STACK CFI INIT 1064f0 37 .cfa: $rsp .ra: .cfa 8 - ^
STACK CFI 1064f0 .cfa: $rsp 48 +
STACK CFI INIT 106530 2b .cfa: $rsp .ra: .cfa 8 - ^
STACK CFI 106530 .cfa: $rsp 48 +
STACK CFI INIT 106560 29 .cfa: $rsp .ra: .cfa 8 - ^
STACK CFI 106560 .cfa: $rsp 48 +
STACK CFI INIT 106590 f .cfa: $rsp .ra: .cfa 8 - ^
STACK CFI 106590 .cfa: $rsp 8 +
STACK CFI INIT 1065a0 274 .cfa: $rsp .ra: .cfa 8 - ^
STACK CFI 1065a0 .cfa: $rsp 112 +
STACK CFI INIT 106820 264 .cfa: $rsp .ra: .cfa 8 - ^
STACK CFI 106820 .cfa: $rsp 112 +
STACK CFI INIT 106a90 e .cfa: $rsp .ra: .cfa 8 - ^
STACK CFI 106a90 .cfa: $rsp 8 +
STACK CFI INIT 106aa0 1 .cfa: $rsp .ra: .cfa 8 - ^
STACK CFI 106aa0 .cfa: $rsp 8 +
STACK CFI INIT 106ab0 8 .cfa: $rsp .ra: .cfa 8 - ^
STACK CFI 106ab0 .cfa: $rsp 8 +
STACK CFI INIT 106ac0 1f .cfa: $rsp .ra: .cfa 8 - ^
STACK CFI 106ac0 .cfa: $rsp 48 +
STACK CFI INIT 106ae0 ca8 .cfa: $rsp .ra: .cfa 8 - ^
STACK CFI 106ae0 .cfa: $rsp 176 +
STACK CFI INIT 107790 ea .cfa: $rsp .ra: .cfa 8 - ^
STACK CFI 107790 .cfa: $rsp 64 +
STACK CFI INIT 107880 ea .cfa: $rsp .ra: .cfa 8 - ^
STACK CFI 107880 .cfa: $rsp 64 +
STACK CFI INIT 107970 1 .cfa: $rsp .ra: .cfa 8 - ^
STACK CFI 107970 .cfa: $rsp 8 +
STACK CFI INIT 107980 3 .cfa: $rsp .ra: .cfa 8 - ^
STACK CFI 107980 .cfa: $rsp 8 +
STACK CFI INIT 107990 3 .cfa: $rsp .ra: .cfa 8 - ^
STACK CFI 107990 .cfa: $rsp 8 +
STACK CFI INIT 1079a0 7 .cfa: $rsp .ra: .cfa 8 - ^
STACK CFI 1079a0 .cfa: $rsp 8 +
STACK CFI INIT 1079b0 5 .cfa: $rsp .ra: .cfa 8 - ^
STACK CFI 1079b0 .cfa: $rsp 8 +
STACK CFI INIT 1079c0 7 .cfa: $rsp .ra: .cfa 8 - ^
STACK CFI 1079c0 .cfa: $rsp 8 +
STACK CFI INIT 1079d0 1 .cfa: $rsp .ra: .cfa 8 - ^
STACK CFI 1079d0 .cfa: $rsp 8 +
STACK CFI INIT 1079e0 43 .cfa: $rsp .ra: .cfa 8 - ^
STACK CFI 1079e0 .cfa: $rsp 96 +
STACK CFI INIT 107a30 55 .cfa: $rsp .ra: .cfa 8 - ^
STACK CFI 107a30 .cfa: $rsp 64 +
STACK CFI INIT 107a90 36 .cfa: $rsp .ra: .cfa 8 - ^
STACK CFI 107a90 .cfa: $rsp 48 +
STACK CFI INIT 107ad0 2a .cfa: $rsp .ra: .cfa 8 - ^
STACK CFI 107ad0 .cfa: $rsp 48 +
STACK CFI INIT 107b00 1 .cfa: $rsp .ra: .cfa 8 - ^
STACK CFI 107b00 .cfa: $rsp 8 +
STACK CFI INIT 107b10 1e9e .cfa: $rsp .ra: .cfa 8 - ^
STACK CFI 107b10 .cfa: $rsp 96 +
STACK CFI INIT 1099b0 29 .cfa: $rsp .ra: .cfa 8 - ^
STACK CFI 1099b0 .cfa: $rsp 48 +
STACK CFI INIT 1099e0 f .cfa: $rsp .ra: .cfa 8 - ^
STACK CFI 1099e0 .cfa: $rsp 8 +
STACK CFI INIT 1099f0 36 .cfa: $rsp .ra: .cfa 8 - ^
STACK CFI 1099f0 .cfa: $rsp 48 +
STACK CFI INIT 109a30 2a .cfa: $rsp .ra: .cfa 8 - ^
STACK CFI 109a30 .cfa: $rsp 48 +
STACK CFI INIT 109a60 189 .cfa: $rsp .ra: .cfa 8 - ^
STACK CFI 109a60 .cfa: $rsp 80 +
STACK CFI INIT 109bf0 179 .cfa: $rsp .ra: .cfa 8 - ^
STACK CFI 109bf0 .cfa: $rsp 80 +
STACK CFI INIT 109d70 2bc .cfa: $rsp .ra: .cfa 8 - ^
STACK CFI 109d70 .cfa: $rsp 80 +
STACK CFI INIT 10a030 29c .cfa: $rsp .ra: .cfa 8 - ^
STACK CFI 10a030 .cfa: $rsp 80 +
STACK CFI INIT 10a2d0 17a .cfa: $rsp .ra: .cfa 8 - ^
STACK CFI 10a2d0 .cfa: $rsp 48 +
STACK CFI INIT 10a450 29 .cfa: $rsp .ra: .cfa 8 - ^
STACK CFI 10a450 .cfa: $rsp 48 +
STACK CFI INIT 10a480 f .cfa: $rsp .ra: .cfa 8 - ^
STACK CFI 10a480 .cfa: $rsp 8 +
STACK CFI INIT 10a490 7 .cfa: $rsp .ra: .cfa 8 - ^
STACK CFI 10a490 .cfa: $rsp 8 +
STACK CFI INIT 10a4a0 4b .cfa: $rsp .ra: .cfa 8 - ^
STACK CFI 10a4a0 .cfa: $rsp 48 +
STACK CFI INIT 10a4f0 40 .cfa: $rsp .ra: .cfa 8 - ^
STACK CFI 10a4f0 .cfa: $rsp 48 +
STACK CFI INIT 10a530 41 .cfa: $rsp .ra: .cfa 8 - ^
STACK CFI 10a530 .cfa: $rsp 48 +
STACK CFI INIT 10a580 35 .cfa: $rsp .ra: .cfa 8 - ^
STACK CFI 10a580 .cfa: $rsp 48 +
STACK CFI INIT 10a5c0 2a .cfa: $rsp .ra: .cfa 8 - ^
STACK CFI 10a5c0 .cfa: $rsp 48 +
STACK CFI INIT 10a5f0 11 .cfa: $rsp .ra: .cfa 8 - ^
STACK CFI 10a5f0 .cfa: $rsp 8 +
STACK CFI INIT 10a610 77 .cfa: $rsp .ra: .cfa 8 - ^
STACK CFI 10a610 .cfa: $rsp 48 +
STACK CFI INIT 10a690 74 .cfa: $rsp .ra: .cfa 8 - ^
STACK CFI 10a690 .cfa: $rsp 48 +
STACK CFI INIT 10a710 c7 .cfa: $rsp .ra: .cfa 8 - ^
STACK CFI 10a710 .cfa: $rsp 64 +
STACK CFI INIT 10a7e0 3e6 .cfa: $rsp .ra: .cfa 8 - ^
STACK CFI 10a7e0 .cfa: $rsp 64 +
STACK CFI INIT 10abd0 18c .cfa: $rsp .ra: .cfa 8 - ^
STACK CFI 10abd0 .cfa: $rsp 64 +
STACK CFI INIT 10ad60 146 .cfa: $rsp .ra: .cfa 8 - ^
STACK CFI 10ad60 .cfa: $rsp 64 +
STACK CFI INIT 10aeb0 116 .cfa: $rsp .ra: .cfa 8 - ^
STACK CFI 10aeb0 .cfa: $rsp 64 +
STACK CFI INIT 10afd0 2b4 .cfa: $rsp .ra: .cfa 8 - ^
STACK CFI 10afd0 .cfa: $rsp 112 +
STACK CFI INIT 10b290 2a4 .cfa: $rsp .ra: .cfa 8 - ^
STACK CFI 10b290 .cfa: $rsp 112 +
STACK CFI INIT 10b540 88 .cfa: $rsp .ra: .cfa 8 - ^
STACK CFI 10b540 .cfa: $rsp 48 +
STACK CFI INIT 10b5d0 86 .cfa: $rsp .ra: .cfa 8 - ^
STACK CFI 10b5d0 .cfa: $rsp 48 +
STACK CFI INIT 10b660 1ec .cfa: $rsp .ra: .cfa 8 - ^
STACK CFI 10b660 .cfa: $rsp 80 +
STACK CFI INIT 10b850 1dc .cfa: $rsp .ra: .cfa 8 - ^
STACK CFI 10b850 .cfa: $rsp 80 +
STACK CFI INIT 10ba30 29 .cfa: $rsp .ra: .cfa 8 - ^
STACK CFI 10ba30 .cfa: $rsp 48 +
STACK CFI INIT 10ba60 f .cfa: $rsp .ra: .cfa 8 - ^
STACK CFI 10ba60 .cfa: $rsp 8 +
STACK CFI INIT 10ba70 29 .cfa: $rsp .ra: .cfa 8 - ^
STACK CFI 10ba70 .cfa: $rsp 48 +
STACK CFI INIT 10baa0 f .cfa: $rsp .ra: .cfa 8 - ^
STACK CFI 10baa0 .cfa: $rsp 8 +
STACK CFI INIT 10bab0 51 .cfa: $rsp .ra: .cfa 8 - ^
STACK CFI 10bab0 .cfa: $rsp 96 +
STACK CFI INIT 10bb10 3c .cfa: $rsp .ra: .cfa 8 - ^
STACK CFI 10bb10 .cfa: $rsp 48 +
STACK CFI INIT 10bb50 2f .cfa: $rsp .ra: .cfa 8 - ^
STACK CFI 10bb50 .cfa: $rsp 48 +
STACK CFI INIT 10bb80 7 .cfa: $rsp .ra: .cfa 8 - ^
STACK CFI 10bb80 .cfa: $rsp 8 +
STACK CFI INIT 10bb90 3c .cfa: $rsp .ra: .cfa 8 - ^
STACK CFI 10bb90 .cfa: $rsp 48 +
STACK CFI INIT 10bbd0 2f .cfa: $rsp .ra: .cfa 8 - ^
STACK CFI 10bbd0 .cfa: $rsp 48 +
STACK CFI INIT 10bc00 60 .cfa: $rsp .ra: .cfa 8 - ^
STACK CFI 10bc00 .cfa: $rsp 48 +
STACK CFI INIT 10bc60 37 .cfa: $rsp .ra: .cfa 8 - ^
STACK CFI 10bc60 .cfa: $rsp 48 +
STACK CFI INIT 10bca0 55 .cfa: $rsp .ra: .cfa 8 - ^
STACK CFI 10bca0 .cfa: $rsp 64 +
STACK CFI INIT 10bd00 59 .cfa: $rsp .ra: .cfa 8 - ^
STACK CFI 10bd00 .cfa: $rsp 48 +
STACK CFI INIT 10bd60 64 .cfa: $rsp .ra: .cfa 8 - ^
STACK CFI 10bd60 .cfa: $rsp 48 +
STACK CFI INIT 10bdd0 1eb8 .cfa: $rsp .ra: .cfa 8 - ^
STACK CFI 10bdd0 .cfa: $rsp 128 +
STACK CFI INIT 10dc90 1136 .cfa: $rsp .ra: .cfa 8 - ^
STACK CFI 10dc90 .cfa: $rsp 96 +
STACK CFI INIT 10edd0 bc6 .cfa: $rsp .ra: .cfa 8 - ^
STACK CFI 10edd0 .cfa: $rsp 128 +
STACK CFI INIT 10f9a0 45f .cfa: $rsp .ra: .cfa 8 - ^
STACK CFI 10f9a0 .cfa: $rsp 112 +
STACK CFI INIT 10fe00 17f .cfa: $rsp .ra: .cfa 8 - ^
STACK CFI 10fe00 .cfa: $rsp 128 +
STACK CFI INIT 10ff80 145c .cfa: $rsp .ra: .cfa 8 - ^
STACK CFI 10ff80 .cfa: $rsp 128 +
STACK CFI INIT 1113e0 d76 .cfa: $rsp .ra: .cfa 8 - ^
STACK CFI 1113e0 .cfa: $rsp 112 +
STACK CFI INIT 112160 1786 .cfa: $rsp .ra: .cfa 8 - ^
STACK CFI 112160 .cfa: $rsp 128 +
STACK CFI INIT 1138f0 1759 .cfa: $rsp .ra: .cfa 8 - ^
STACK CFI 1138f0 .cfa: $rsp 128 +
STACK CFI INIT 115050 1f7 .cfa: $rsp .ra: .cfa 8 - ^
STACK CFI 115050 .cfa: $rsp 128 +
STACK CFI INIT 115250 d8d .cfa: $rsp .ra: .cfa 8 - ^
STACK CFI 115250 .cfa: $rsp 160 +
STACK CFI INIT 115fe0 1516 .cfa: $rsp .ra: .cfa 8 - ^
STACK CFI 115fe0 .cfa: $rsp 128 +
STACK CFI INIT 117500 d2 .cfa: $rsp .ra: .cfa 8 - ^
STACK CFI 117500 .cfa: $rsp 80 +
STACK CFI INIT 1175e0 149 .cfa: $rsp .ra: .cfa 8 - ^
STACK CFI 1175e0 .cfa: $rsp 96 +
STACK CFI INIT 117730 6b .cfa: $rsp .ra: .cfa 8 - ^
STACK CFI 117730 .cfa: $rsp 64 +
STACK CFI INIT 1177a0 279 .cfa: $rsp .ra: .cfa 8 - ^
STACK CFI 1177a0 .cfa: $rsp 96 +
STACK CFI INIT 117a20 2944 .cfa: $rsp .ra: .cfa 8 - ^
STACK CFI 117a20 .cfa: $rsp 128 +
STACK CFI INIT 11a370 b6 .cfa: $rsp .ra: .cfa 8 - ^
STACK CFI 11a370 .cfa: $rsp 64 +
STACK CFI INIT 11a430 96 .cfa: $rsp .ra: .cfa 8 - ^
STACK CFI 11a430 .cfa: $rsp 64 +
STACK CFI INIT 11a4d0 221 .cfa: $rsp .ra: .cfa 8 - ^
STACK CFI 11a4d0 .cfa: $rsp 128 +
STACK CFI INIT 11a700 86 .cfa: $rsp .ra: .cfa 8 - ^
STACK CFI 11a700 .cfa: $rsp 48 +
STACK CFI INIT 11a790 47 .cfa: $rsp .ra: .cfa 8 - ^
STACK CFI 11a790 .cfa: $rsp 8 +
STACK CFI INIT 11a7e0 1f .cfa: $rsp .ra: .cfa 8 - ^
STACK CFI 11a7e0 .cfa: $rsp 48 +
STACK CFI INIT 11a800 39 .cfa: $rsp .ra: .cfa 8 - ^
STACK CFI 11a800 .cfa: $rsp 64 +
STACK CFI INIT 11a840 33 .cfa: $rsp .ra: .cfa 8 - ^
STACK CFI 11a840 .cfa: $rsp 48 +
STACK CFI INIT 11a880 46 .cfa: $rsp .ra: .cfa 8 - ^
STACK CFI 11a880 .cfa: $rsp 64 +
STACK CFI INIT 11a8d0 4b .cfa: $rsp .ra: .cfa 8 - ^
STACK CFI 11a8d0 .cfa: $rsp 48 +
STACK CFI INIT 11a920 40 .cfa: $rsp .ra: .cfa 8 - ^
STACK CFI 11a920 .cfa: $rsp 8 +
STACK CFI INIT 11a960 39 .cfa: $rsp .ra: .cfa 8 - ^
STACK CFI 11a960 .cfa: $rsp 8 +
STACK CFI INIT 11a9a0 25 .cfa: $rsp .ra: .cfa 8 - ^
STACK CFI 11a9a0 .cfa: $rsp 8 +
STACK CFI INIT 11a9d0 170 .cfa: $rsp .ra: .cfa 8 - ^
STACK CFI 11a9d0 .cfa: $rsp 128 +
STACK CFI INIT 11ab40 18a .cfa: $rsp .ra: .cfa 8 - ^
STACK CFI 11ab40 .cfa: $rsp 96 +
STACK CFI INIT 11acd0 4b .cfa: $rsp .ra: .cfa 8 - ^
STACK CFI 11acd0 .cfa: $rsp 48 +
STACK CFI INIT 11ad20 44 .cfa: $rsp .ra: .cfa 8 - ^
STACK CFI 11ad20 .cfa: $rsp 8 +
STACK CFI INIT 11ad70 1f7 .cfa: $rsp .ra: .cfa 8 - ^
STACK CFI 11ad70 .cfa: $rsp 96 +
STACK CFI INIT 11af70 33d .cfa: $rsp .ra: .cfa 8 - ^
STACK CFI 11af70 .cfa: $rsp 96 +
STACK CFI INIT 11b2b0 118 .cfa: $rsp .ra: .cfa 8 - ^
STACK CFI 11b2b0 .cfa: $rsp 96 +
STACK CFI INIT 11b3d0 39 .cfa: $rsp .ra: .cfa 8 - ^
STACK CFI 11b3d0 .cfa: $rsp 8 +
STACK CFI INIT 11b410 47 .cfa: $rsp .ra: .cfa 8 - ^
STACK CFI 11b410 .cfa: $rsp 8 +
STACK CFI INIT 11b460 170 .cfa: $rsp .ra: .cfa 8 - ^
STACK CFI 11b460 .cfa: $rsp 128 +
STACK CFI INIT 11b5d0 b .cfa: $rsp .ra: .cfa 8 - ^
STACK CFI 11b5d0 .cfa: $rsp 8 +
STACK CFI INIT 11b5e0 25 .cfa: $rsp .ra: .cfa 8 - ^
STACK CFI 11b5e0 .cfa: $rsp 8 +
STACK CFI INIT 11b610 14c .cfa: $rsp .ra: .cfa 8 - ^
STACK CFI 11b610 .cfa: $rsp 112 +
STACK CFI INIT 11b760 b .cfa: $rsp .ra: .cfa 8 - ^
STACK CFI 11b760 .cfa: $rsp 8 +
STACK CFI INIT 11b770 25 .cfa: $rsp .ra: .cfa 8 - ^
STACK CFI 11b770 .cfa: $rsp 8 +
STACK CFI INIT 11b7a0 14c .cfa: $rsp .ra: .cfa 8 - ^
STACK CFI 11b7a0 .cfa: $rsp 112 +
STACK CFI INIT 11b8f0 1 .cfa: $rsp .ra: .cfa 8 - ^
STACK CFI 11b8f0 .cfa: $rsp 8 +
STACK CFI INIT 11b900 16 .cfa: $rsp .ra: .cfa 8 - ^
STACK CFI 11b900 .cfa: $rsp 8 +
STACK CFI INIT 11b920 139 .cfa: $rsp .ra: .cfa 8 - ^
STACK CFI 11b920 .cfa: $rsp 96 +
STACK CFI INIT 11ba60 1 .cfa: $rsp .ra: .cfa 8 - ^
STACK CFI 11ba60 .cfa: $rsp 8 +
STACK CFI INIT 11ba70 1e .cfa: $rsp .ra: .cfa 8 - ^
STACK CFI 11ba70 .cfa: $rsp 8 +
STACK CFI INIT 11ba90 120 .cfa: $rsp .ra: .cfa 8 - ^
STACK CFI 11ba90 .cfa: $rsp 96 +
STACK CFI INIT 11bbb0 1 .cfa: $rsp .ra: .cfa 8 - ^
STACK CFI 11bbb0 .cfa: $rsp 8 +
STACK CFI INIT 11bbc0 1c .cfa: $rsp .ra: .cfa 8 - ^
STACK CFI 11bbc0 .cfa: $rsp 8 +
STACK CFI INIT 11bbe0 120 .cfa: $rsp .ra: .cfa 8 - ^
STACK CFI 11bbe0 .cfa: $rsp 96 +
STACK CFI INIT 11bd00 9 .cfa: $rsp .ra: .cfa 8 - ^
STACK CFI 11bd00 .cfa: $rsp 8 +
STACK CFI INIT 11bd10 3b .cfa: $rsp .ra: .cfa 8 - ^
STACK CFI 11bd10 .cfa: $rsp 64 +
STACK CFI INIT 11bd50 15b .cfa: $rsp .ra: .cfa 8 - ^
STACK CFI 11bd50 .cfa: $rsp 96 +
STACK CFI INIT 11beb0 53 .cfa: $rsp .ra: .cfa 8 - ^
STACK CFI 11beb0 .cfa: $rsp 48 +
STACK CFI INIT 11bf10 70 .cfa: $rsp .ra: .cfa 8 - ^
STACK CFI 11bf10 .cfa: $rsp 64 +
STACK CFI INIT 11bf80 199 .cfa: $rsp .ra: .cfa 8 - ^
STACK CFI 11bf80 .cfa: $rsp 112 +
STACK CFI INIT 11c120 16e .cfa: $rsp .ra: .cfa 8 - ^
STACK CFI 11c120 .cfa: $rsp 128 +
STACK CFI INIT 11c290 199 .cfa: $rsp .ra: .cfa 8 - ^
STACK CFI 11c290 .cfa: $rsp 160 +
STACK CFI INIT 11c430 9e .cfa: $rsp .ra: .cfa 8 - ^
STACK CFI 11c430 .cfa: $rsp 64 +
STACK CFI INIT 11c4d0 11a .cfa: $rsp .ra: .cfa 8 - ^
STACK CFI 11c4d0 .cfa: $rsp 64 +
STACK CFI INIT 11c5f0 35 .cfa: $rsp .ra: .cfa 8 - ^
STACK CFI 11c5f0 .cfa: $rsp 64 +
STACK CFI INIT 11c630 76 .cfa: $rsp .ra: .cfa 8 - ^
STACK CFI 11c630 .cfa: $rsp 48 +
STACK CFI INIT 11c6b0 2b6 .cfa: $rsp .ra: .cfa 8 - ^
STACK CFI 11c6b0 .cfa: $rsp 128 +
STACK CFI INIT 11c970 86 .cfa: $rsp .ra: .cfa 8 - ^
STACK CFI 11c970 .cfa: $rsp 64 +
STACK CFI INIT 11ca00 1d .cfa: $rsp .ra: .cfa 8 - ^
STACK CFI 11ca00 .cfa: $rsp 8 +
STACK CFI INIT 11ca20 fc .cfa: $rsp .ra: .cfa 8 - ^
STACK CFI 11ca20 .cfa: $rsp 96 +
STACK CFI INIT 11cb20 62 .cfa: $rsp .ra: .cfa 8 - ^
STACK CFI 11cb20 .cfa: $rsp 80 +
STACK CFI INIT 11cb90 91 .cfa: $rsp .ra: .cfa 8 - ^
STACK CFI 11cb90 .cfa: $rsp 64 +
STACK CFI INIT 11cc30 62 .cfa: $rsp .ra: .cfa 8 - ^
STACK CFI 11cc30 .cfa: $rsp 64 +
STACK CFI INIT 11cca0 a2 .cfa: $rsp .ra: .cfa 8 - ^
STACK CFI 11cca0 .cfa: $rsp 80 +
STACK CFI INIT 11cd50 171 .cfa: $rsp .ra: .cfa 8 - ^
STACK CFI 11cd50 .cfa: $rsp 112 +
STACK CFI INIT 11ced0 35 .cfa: $rsp .ra: .cfa 8 - ^
STACK CFI 11ced0 .cfa: $rsp 64 +
STACK CFI INIT 11cf10 58 .cfa: $rsp .ra: .cfa 8 - ^
STACK CFI 11cf10 .cfa: $rsp 64 +
STACK CFI INIT 11cf70 a4 .cfa: $rsp .ra: .cfa 8 - ^
STACK CFI 11cf70 .cfa: $rsp 80 +
STACK CFI INIT 11d020 79 .cfa: $rsp .ra: .cfa 8 - ^
STACK CFI 11d020 .cfa: $rsp 80 +
STACK CFI INIT 11d0a0 184 .cfa: $rsp .ra: .cfa 8 - ^
STACK CFI 11d0a0 .cfa: $rsp 112 +
STACK CFI INIT 11d230 fc .cfa: $rsp .ra: .cfa 8 - ^
STACK CFI 11d230 .cfa: $rsp 96 +
STACK CFI INIT 11d330 35 .cfa: $rsp .ra: .cfa 8 - ^
STACK CFI 11d330 .cfa: $rsp 64 +
STACK CFI INIT 11d370 62 .cfa: $rsp .ra: .cfa 8 - ^
STACK CFI 11d370 .cfa: $rsp 80 +
STACK CFI INIT 11d3e0 91 .cfa: $rsp .ra: .cfa 8 - ^
STACK CFI 11d3e0 .cfa: $rsp 64 +
STACK CFI INIT 11d480 1d .cfa: $rsp .ra: .cfa 8 - ^
STACK CFI 11d480 .cfa: $rsp 8 +
STACK CFI INIT 11d4a0 12c .cfa: $rsp .ra: .cfa 8 - ^
STACK CFI 11d4a0 .cfa: $rsp 96 +
STACK CFI INIT 11d5d0 84 .cfa: $rsp .ra: .cfa 8 - ^
STACK CFI 11d5d0 .cfa: $rsp 64 +
STACK CFI INIT 11d660 e7 .cfa: $rsp .ra: .cfa 8 - ^
STACK CFI 11d660 .cfa: $rsp 80 +
STACK CFI INIT 11d750 84 .cfa: $rsp .ra: .cfa 8 - ^
STACK CFI 11d750 .cfa: $rsp 80 +
STACK CFI INIT 11d7e0 fa .cfa: $rsp .ra: .cfa 8 - ^
STACK CFI 11d7e0 .cfa: $rsp 80 +
STACK CFI INIT 11d8e0 62 .cfa: $rsp .ra: .cfa 8 - ^
STACK CFI 11d8e0 .cfa: $rsp 80 +
STACK CFI INIT 11d950 84 .cfa: $rsp .ra: .cfa 8 - ^
STACK CFI 11d950 .cfa: $rsp 64 +
STACK CFI INIT 11d9e0 62 .cfa: $rsp .ra: .cfa 8 - ^
STACK CFI 11d9e0 .cfa: $rsp 64 +
STACK CFI INIT 11da50 de .cfa: $rsp .ra: .cfa 8 - ^
STACK CFI 11da50 .cfa: $rsp 80 +
STACK CFI INIT 11db30 fa .cfa: $rsp .ra: .cfa 8 - ^
STACK CFI 11db30 .cfa: $rsp 80 +
STACK CFI INIT 11dc30 35 .cfa: $rsp .ra: .cfa 8 - ^
STACK CFI 11dc30 .cfa: $rsp 64 +
STACK CFI INIT 11dc70 62 .cfa: $rsp .ra: .cfa 8 - ^
STACK CFI 11dc70 .cfa: $rsp 80 +
STACK CFI INIT 11dce0 85 .cfa: $rsp .ra: .cfa 8 - ^
STACK CFI 11dce0 .cfa: $rsp 64 +
STACK CFI INIT 11dd70 1d .cfa: $rsp .ra: .cfa 8 - ^
STACK CFI 11dd70 .cfa: $rsp 8 +
STACK CFI INIT 11dd90 de .cfa: $rsp .ra: .cfa 8 - ^
STACK CFI 11dd90 .cfa: $rsp 80 +
STACK CFI INIT 11de70 83 .cfa: $rsp .ra: .cfa 8 - ^
STACK CFI 11de70 .cfa: $rsp 64 +
STACK CFI INIT 11df00 fa .cfa: $rsp .ra: .cfa 8 - ^
STACK CFI 11df00 .cfa: $rsp 80 +
STACK CFI INIT 11e000 84 .cfa: $rsp .ra: .cfa 8 - ^
STACK CFI 11e000 .cfa: $rsp 64 +
STACK CFI INIT 11e090 1d .cfa: $rsp .ra: .cfa 8 - ^
STACK CFI 11e090 .cfa: $rsp 8 +
STACK CFI INIT 11e0b0 fa .cfa: $rsp .ra: .cfa 8 - ^
STACK CFI 11e0b0 .cfa: $rsp 80 +
STACK CFI INIT 11e1b0 a0 .cfa: $rsp .ra: .cfa 8 - ^
STACK CFI 11e1b0 .cfa: $rsp 64 +
STACK CFI INIT 11e250 62 .cfa: $rsp .ra: .cfa 8 - ^
STACK CFI 11e250 .cfa: $rsp 64 +
STACK CFI INIT 11e2c0 fa .cfa: $rsp .ra: .cfa 8 - ^
STACK CFI 11e2c0 .cfa: $rsp 80 +
STACK CFI INIT 11e3c0 a0 .cfa: $rsp .ra: .cfa 8 - ^
STACK CFI 11e3c0 .cfa: $rsp 64 +
STACK CFI INIT 11e460 1d .cfa: $rsp .ra: .cfa 8 - ^
STACK CFI 11e460 .cfa: $rsp 8 +
STACK CFI INIT 11e480 12c .cfa: $rsp .ra: .cfa 8 - ^
STACK CFI 11e480 .cfa: $rsp 96 +
STACK CFI INIT 11e5b0 62 .cfa: $rsp .ra: .cfa 8 - ^
STACK CFI 11e5b0 .cfa: $rsp 80 +
STACK CFI INIT 11e620 84 .cfa: $rsp .ra: .cfa 8 - ^
STACK CFI 11e620 .cfa: $rsp 64 +
STACK CFI INIT 11e6b0 120 .cfa: $rsp .ra: .cfa 8 - ^
STACK CFI 11e6b0 .cfa: $rsp 96 +
STACK CFI INIT 11e7d0 c6 .cfa: $rsp .ra: .cfa 8 - ^
STACK CFI 11e7d0 .cfa: $rsp 96 +
STACK CFI INIT 11e8a0 12c .cfa: $rsp .ra: .cfa 8 - ^
STACK CFI 11e8a0 .cfa: $rsp 96 +
STACK CFI INIT 11e9d0 c9 .cfa: $rsp .ra: .cfa 8 - ^
STACK CFI 11e9d0 .cfa: $rsp 80 +
STACK CFI INIT 11eaa0 1d .cfa: $rsp .ra: .cfa 8 - ^
STACK CFI 11eaa0 .cfa: $rsp 8 +
STACK CFI INIT 11eac0 12c .cfa: $rsp .ra: .cfa 8 - ^
STACK CFI 11eac0 .cfa: $rsp 96 +
STACK CFI INIT 11ebf0 62 .cfa: $rsp .ra: .cfa 8 - ^
STACK CFI 11ebf0 .cfa: $rsp 80 +
STACK CFI INIT 11ec60 84 .cfa: $rsp .ra: .cfa 8 - ^
STACK CFI 11ec60 .cfa: $rsp 64 +
STACK CFI INIT 11ecf0 e7 .cfa: $rsp .ra: .cfa 8 - ^
STACK CFI 11ecf0 .cfa: $rsp 80 +
STACK CFI INIT 11ede0 2f6 .cfa: $rsp .ra: .cfa 8 - ^
STACK CFI 11ede0 .cfa: $rsp 112 +
STACK CFI INIT 11f0e0 62 .cfa: $rsp .ra: .cfa 8 - ^
STACK CFI 11f0e0 .cfa: $rsp 80 +
STACK CFI INIT 11f150 62 .cfa: $rsp .ra: .cfa 8 - ^
STACK CFI 11f150 .cfa: $rsp 64 +
STACK CFI INIT 11f1c0 83 .cfa: $rsp .ra: .cfa 8 - ^
STACK CFI 11f1c0 .cfa: $rsp 64 +
STACK CFI INIT 11f250 fa .cfa: $rsp .ra: .cfa 8 - ^
STACK CFI 11f250 .cfa: $rsp 80 +
STACK CFI INIT 11f350 84 .cfa: $rsp .ra: .cfa 8 - ^
STACK CFI 11f350 .cfa: $rsp 64 +
STACK CFI INIT 11f3e0 1d .cfa: $rsp .ra: .cfa 8 - ^
STACK CFI 11f3e0 .cfa: $rsp 8 +
STACK CFI INIT 11f400 c8 .cfa: $rsp .ra: .cfa 8 - ^
STACK CFI 11f400 .cfa: $rsp 96 +
STACK CFI INIT 11f4d0 18a .cfa: $rsp .ra: .cfa 8 - ^
STACK CFI 11f4d0 .cfa: $rsp 128 +
STACK CFI INIT 11f660 76 .cfa: $rsp .ra: .cfa 8 - ^
STACK CFI 11f660 .cfa: $rsp 64 +
STACK CFI INIT 11f6e0 fc .cfa: $rsp .ra: .cfa 8 - ^
STACK CFI 11f6e0 .cfa: $rsp 96 +
STACK CFI INIT 11f7e0 b2 .cfa: $rsp .ra: .cfa 8 - ^
STACK CFI 11f7e0 .cfa: $rsp 80 +
STACK CFI INIT 11f8a0 d0 .cfa: $rsp .ra: .cfa 8 - ^
STACK CFI 11f8a0 .cfa: $rsp 80 +
STACK CFI INIT 11f970 18a .cfa: $rsp .ra: .cfa 8 - ^
STACK CFI 11f970 .cfa: $rsp 96 +
STACK CFI INIT 11fb00 35 .cfa: $rsp .ra: .cfa 8 - ^
STACK CFI 11fb00 .cfa: $rsp 64 +
STACK CFI INIT 11fb40 86 .cfa: $rsp .ra: .cfa 8 - ^
STACK CFI 11fb40 .cfa: $rsp 64 +
STACK CFI INIT 11fbd0 ff .cfa: $rsp .ra: .cfa 8 - ^
STACK CFI 11fbd0 .cfa: $rsp 80 +
STACK CFI INIT 11fcd0 c6 .cfa: $rsp .ra: .cfa 8 - ^
STACK CFI 11fcd0 .cfa: $rsp 64 +
STACK CFI INIT 11fda0 1d .cfa: $rsp .ra: .cfa 8 - ^
STACK CFI 11fda0 .cfa: $rsp 8 +
STACK CFI INIT 11fdc0 b4 .cfa: $rsp .ra: .cfa 8 - ^
STACK CFI 11fdc0 .cfa: $rsp 96 +
STACK CFI INIT 11fe80 14a .cfa: $rsp .ra: .cfa 8 - ^
STACK CFI 11fe80 .cfa: $rsp 128 +
STACK CFI INIT 11ffd0 5a .cfa: $rsp .ra: .cfa 8 - ^
STACK CFI 11ffd0 .cfa: $rsp 64 +
STACK CFI INIT 120030 1d .cfa: $rsp .ra: .cfa 8 - ^
STACK CFI 120030 .cfa: $rsp 8 +
STACK CFI INIT 120050 9e .cfa: $rsp .ra: .cfa 8 - ^
STACK CFI 120050 .cfa: $rsp 64 +
STACK CFI INIT 1200f0 11a .cfa: $rsp .ra: .cfa 8 - ^
STACK CFI 1200f0 .cfa: $rsp 64 +
STACK CFI INIT 120210 35 .cfa: $rsp .ra: .cfa 8 - ^
STACK CFI 120210 .cfa: $rsp 64 +
STACK CFI INIT 120250 76 .cfa: $rsp .ra: .cfa 8 - ^
STACK CFI 120250 .cfa: $rsp 48 +
STACK CFI INIT 1202d0 25 .cfa: $rsp .ra: .cfa 8 - ^
STACK CFI 1202d0 .cfa: $rsp 8 +
STACK CFI INIT 120300 1d .cfa: $rsp .ra: .cfa 8 - ^
STACK CFI 120300 .cfa: $rsp 8 +
STACK CFI INIT 120320 1d .cfa: $rsp .ra: .cfa 8 - ^
STACK CFI 120320 .cfa: $rsp 8 +
STACK CFI INIT 120340 16d .cfa: $rsp .ra: .cfa 8 - ^
STACK CFI 120340 .cfa: $rsp 80 +
STACK CFI INIT 1204b0 14a .cfa: $rsp .ra: .cfa 8 - ^
STACK CFI 1204b0 .cfa: $rsp 128 +
STACK CFI INIT 120600 58 .cfa: $rsp .ra: .cfa 8 - ^
STACK CFI 120600 .cfa: $rsp 64 +
STACK CFI INIT 120660 83 .cfa: $rsp .ra: .cfa 8 - ^
STACK CFI 120660 .cfa: $rsp 64 +
STACK CFI INIT 1206f0 fa .cfa: $rsp .ra: .cfa 8 - ^
STACK CFI 1206f0 .cfa: $rsp 80 +
STACK CFI INIT 1207f0 84 .cfa: $rsp .ra: .cfa 8 - ^
STACK CFI 1207f0 .cfa: $rsp 80 +
STACK CFI INIT 120880 fc .cfa: $rsp .ra: .cfa 8 - ^
STACK CFI 120880 .cfa: $rsp 96 +
STACK CFI INIT 120980 62 .cfa: $rsp .ra: .cfa 8 - ^
STACK CFI 120980 .cfa: $rsp 80 +
STACK CFI INIT 1209f0 27 .cfa: $rsp .ra: .cfa 8 - ^
STACK CFI 1209f0 .cfa: $rsp 8 +
STACK CFI INIT 120a20 91 .cfa: $rsp .ra: .cfa 8 - ^
STACK CFI 120a20 .cfa: $rsp 64 +
STACK CFI INIT 120ac0 62 .cfa: $rsp .ra: .cfa 8 - ^
STACK CFI 120ac0 .cfa: $rsp 64 +
STACK CFI INIT 120b30 a2 .cfa: $rsp .ra: .cfa 8 - ^
STACK CFI 120b30 .cfa: $rsp 80 +
STACK CFI INIT 120be0 13a .cfa: $rsp .ra: .cfa 8 - ^
STACK CFI 120be0 .cfa: $rsp 96 +
STACK CFI INIT 120d20 89 .cfa: $rsp .ra: .cfa 8 - ^
STACK CFI 120d20 .cfa: $rsp 64 +
STACK CFI INIT 120db0 1d .cfa: $rsp .ra: .cfa 8 - ^
STACK CFI 120db0 .cfa: $rsp 8 +
STACK CFI INIT 120dd0 7f .cfa: $rsp .ra: .cfa 8 - ^
STACK CFI 120dd0 .cfa: $rsp 64 +
STACK CFI INIT 120e50 100 .cfa: $rsp .ra: .cfa 8 - ^
STACK CFI 120e50 .cfa: $rsp 80 +
STACK CFI INIT 120f50 35 .cfa: $rsp .ra: .cfa 8 - ^
STACK CFI 120f50 .cfa: $rsp 64 +
STACK CFI INIT 120f90 41 .cfa: $rsp .ra: .cfa 8 - ^
STACK CFI 120f90 .cfa: $rsp 48 +
STACK CFI INIT 120fe0 1f .cfa: $rsp .ra: .cfa 8 - ^
STACK CFI 120fe0 .cfa: $rsp 8 +
STACK CFI INIT 121000 1f .cfa: $rsp .ra: .cfa 8 - ^
STACK CFI 121000 .cfa: $rsp 8 +
STACK CFI INIT 121020 7f .cfa: $rsp .ra: .cfa 8 - ^
STACK CFI 121020 .cfa: $rsp 64 +
STACK CFI INIT 1210a0 100 .cfa: $rsp .ra: .cfa 8 - ^
STACK CFI 1210a0 .cfa: $rsp 80 +
STACK CFI INIT 1211a0 42 .cfa: $rsp .ra: .cfa 8 - ^
STACK CFI 1211a0 .cfa: $rsp 48 +
STACK CFI INIT 1211f0 1f .cfa: $rsp .ra: .cfa 8 - ^
STACK CFI 1211f0 .cfa: $rsp 8 +
STACK CFI INIT 121210 7f .cfa: $rsp .ra: .cfa 8 - ^
STACK CFI 121210 .cfa: $rsp 64 +
STACK CFI INIT 121290 100 .cfa: $rsp .ra: .cfa 8 - ^
STACK CFI 121290 .cfa: $rsp 80 +
STACK CFI INIT 121390 7f .cfa: $rsp .ra: .cfa 8 - ^
STACK CFI 121390 .cfa: $rsp 64 +
STACK CFI INIT 121410 100 .cfa: $rsp .ra: .cfa 8 - ^
STACK CFI 121410 .cfa: $rsp 80 +
STACK CFI INIT 121510 1f .cfa: $rsp .ra: .cfa 8 - ^
STACK CFI 121510 .cfa: $rsp 8 +
STACK CFI INIT 121530 100 .cfa: $rsp .ra: .cfa 8 - ^
STACK CFI 121530 .cfa: $rsp 80 +
STACK CFI INIT 121630 42 .cfa: $rsp .ra: .cfa 8 - ^
STACK CFI 121630 .cfa: $rsp 48 +
STACK CFI INIT 121680 75 .cfa: $rsp .ra: .cfa 8 - ^
STACK CFI 121680 .cfa: $rsp 64 +
STACK CFI INIT 121700 1f .cfa: $rsp .ra: .cfa 8 - ^
STACK CFI 121700 .cfa: $rsp 8 +
STACK CFI INIT 121720 7f .cfa: $rsp .ra: .cfa 8 - ^
STACK CFI 121720 .cfa: $rsp 64 +
STACK CFI INIT 1217a0 100 .cfa: $rsp .ra: .cfa 8 - ^
STACK CFI 1217a0 .cfa: $rsp 80 +
STACK CFI INIT 1218a0 35 .cfa: $rsp .ra: .cfa 8 - ^
STACK CFI 1218a0 .cfa: $rsp 64 +
STACK CFI INIT 1218e0 fa .cfa: $rsp .ra: .cfa 8 - ^
STACK CFI 1218e0 .cfa: $rsp 96 +
STACK CFI INIT 1219e0 42 .cfa: $rsp .ra: .cfa 8 - ^
STACK CFI 1219e0 .cfa: $rsp 48 +
STACK CFI INIT 121a30 b5 .cfa: $rsp .ra: .cfa 8 - ^
STACK CFI 121a30 .cfa: $rsp 80 +
STACK CFI INIT 121af0 1f .cfa: $rsp .ra: .cfa 8 - ^
STACK CFI 121af0 .cfa: $rsp 8 +
STACK CFI INIT 121b10 100 .cfa: $rsp .ra: .cfa 8 - ^
STACK CFI 121b10 .cfa: $rsp 80 +
STACK CFI INIT 121c10 146 .cfa: $rsp .ra: .cfa 8 - ^
STACK CFI 121c10 .cfa: $rsp 80 +
STACK CFI INIT 121d60 100 .cfa: $rsp .ra: .cfa 8 - ^
STACK CFI 121d60 .cfa: $rsp 80 +
STACK CFI INIT 121e60 1f .cfa: $rsp .ra: .cfa 8 - ^
STACK CFI 121e60 .cfa: $rsp 8 +
STACK CFI INIT 121e80 100 .cfa: $rsp .ra: .cfa 8 - ^
STACK CFI 121e80 .cfa: $rsp 80 +
STACK CFI INIT 121f80 146 .cfa: $rsp .ra: .cfa 8 - ^
STACK CFI 121f80 .cfa: $rsp 80 +
STACK CFI INIT 1220d0 100 .cfa: $rsp .ra: .cfa 8 - ^
STACK CFI 1220d0 .cfa: $rsp 80 +
STACK CFI INIT 1221d0 146 .cfa: $rsp .ra: .cfa 8 - ^
STACK CFI 1221d0 .cfa: $rsp 80 +
STACK CFI INIT 122320 100 .cfa: $rsp .ra: .cfa 8 - ^
STACK CFI 122320 .cfa: $rsp 80 +
STACK CFI INIT 122420 1f .cfa: $rsp .ra: .cfa 8 - ^
STACK CFI 122420 .cfa: $rsp 8 +
STACK CFI INIT 122440 b0 .cfa: $rsp .ra: .cfa 8 - ^
STACK CFI 122440 .cfa: $rsp 80 +
STACK CFI INIT 1224f0 1bc .cfa: $rsp .ra: .cfa 8 - ^
STACK CFI 1224f0 .cfa: $rsp 64 +
STACK CFI INIT 1226b0 1ac .cfa: $rsp .ra: .cfa 8 - ^
STACK CFI 1226b0 .cfa: $rsp 64 +
STACK CFI INIT 122860 98 .cfa: $rsp .ra: .cfa 8 - ^
STACK CFI 122860 .cfa: $rsp 48 +
STACK CFI INIT 122900 96 .cfa: $rsp .ra: .cfa 8 - ^
STACK CFI 122900 .cfa: $rsp 48 +
STACK CFI INIT 1229a0 2a .cfa: $rsp .ra: .cfa 8 - ^
STACK CFI 1229a0 .cfa: $rsp 8 +
STACK CFI INIT 1229d0 14a .cfa: $rsp .ra: .cfa 8 - ^
STACK CFI 1229d0 .cfa: $rsp 80 +
STACK CFI INIT 122b20 2ab .cfa: $rsp .ra: .cfa 8 - ^
STACK CFI 122b20 .cfa: $rsp 128 +
STACK CFI INIT 122dd0 cd .cfa: $rsp .ra: .cfa 8 - ^
STACK CFI 122dd0 .cfa: $rsp 96 +
STACK CFI INIT 122ea0 2f6 .cfa: $rsp .ra: .cfa 8 - ^
STACK CFI 122ea0 .cfa: $rsp 112 +
STACK CFI INIT 1231a0 123 .cfa: $rsp .ra: .cfa 8 - ^
STACK CFI 1231a0 .cfa: $rsp 64 +
STACK CFI INIT 1232d0 133 .cfa: $rsp .ra: .cfa 8 - ^
STACK CFI 1232d0 .cfa: $rsp 80 +
STACK CFI INIT 123410 9b .cfa: $rsp .ra: .cfa 8 - ^
STACK CFI 123410 .cfa: $rsp 64 +
STACK CFI INIT 1234b0 24 .cfa: $rsp .ra: .cfa 8 - ^
STACK CFI 1234b0 .cfa: $rsp 8 +
STACK CFI INIT 1234e0 17b .cfa: $rsp .ra: .cfa 8 - ^
STACK CFI 1234e0 .cfa: $rsp 64 +
STACK CFI INIT 123660 133 .cfa: $rsp .ra: .cfa 8 - ^
STACK CFI 123660 .cfa: $rsp 80 +
STACK CFI INIT 1237a0 4c9 .cfa: $rsp .ra: .cfa 8 - ^
STACK CFI 1237a0 .cfa: $rsp 128 +
STACK CFI INIT 123c70 239 .cfa: $rsp .ra: .cfa 8 - ^
STACK CFI 123c70 .cfa: $rsp 96 +
STACK CFI INIT 123eb0 7c .cfa: $rsp .ra: .cfa 8 - ^
STACK CFI 123eb0 .cfa: $rsp 64 +
STACK CFI INIT 123f30 429 .cfa: $rsp .ra: .cfa 8 - ^
STACK CFI 123f30 .cfa: $rsp 128 +
STACK CFI INIT 124360 177 .cfa: $rsp .ra: .cfa 8 - ^
STACK CFI 124360 .cfa: $rsp 64 +
STACK CFI INIT 1244e0 133 .cfa: $rsp .ra: .cfa 8 - ^
STACK CFI 1244e0 .cfa: $rsp 80 +
STACK CFI INIT 124620 133 .cfa: $rsp .ra: .cfa 8 - ^
STACK CFI 124620 .cfa: $rsp 80 +
STACK CFI INIT 124760 1146 .cfa: $rsp .ra: .cfa 8 - ^
STACK CFI 124760 .cfa: $rsp 96 +
STACK CFI INIT 1258b0 b8a .cfa: $rsp .ra: .cfa 8 - ^
STACK CFI 1258b0 .cfa: $rsp 96 +
STACK CFI INIT 126440 1620 .cfa: $rsp .ra: .cfa 8 - ^
STACK CFI 126440 .cfa: $rsp 112 +
STACK CFI INIT 127a60 2271 .cfa: $rsp .ra: .cfa 8 - ^
STACK CFI 127a60 .cfa: $rsp 112 +
STACK CFI INIT 129ce0 b3 .cfa: $rsp .ra: .cfa 8 - ^
STACK CFI 129ce0 .cfa: $rsp 80 +
STACK CFI INIT 129da0 b3 .cfa: $rsp .ra: .cfa 8 - ^
STACK CFI 129da0 .cfa: $rsp 80 +
STACK CFI INIT 129e60 69 .cfa: $rsp .ra: .cfa 8 - ^
STACK CFI 129e60 .cfa: $rsp 64 +
STACK CFI INIT 129ed0 69 .cfa: $rsp .ra: .cfa 8 - ^
STACK CFI 129ed0 .cfa: $rsp 64 +
STACK CFI INIT 129f40 68 .cfa: $rsp .ra: .cfa 8 - ^
STACK CFI 129f40 .cfa: $rsp 64 +
STACK CFI INIT 129fb0 67 .cfa: $rsp .ra: .cfa 8 - ^
STACK CFI 129fb0 .cfa: $rsp 64 +
STACK CFI INIT 12a020 67 .cfa: $rsp .ra: .cfa 8 - ^
STACK CFI 12a020 .cfa: $rsp 64 +
STACK CFI INIT 12a090 1f6 .cfa: $rsp .ra: .cfa 8 - ^
STACK CFI 12a090 .cfa: $rsp 80 +
STACK CFI INIT 12a290 87 .cfa: $rsp .ra: .cfa 8 - ^
STACK CFI 12a290 .cfa: $rsp 8 +
STACK CFI INIT 12a320 87 .cfa: $rsp .ra: .cfa 8 - ^
STACK CFI 12a320 .cfa: $rsp 8 +
STACK CFI INIT 12a3b0 77 .cfa: $rsp .ra: .cfa 8 - ^
STACK CFI 12a3b0 .cfa: $rsp 8 +
STACK CFI INIT 12a430 7a .cfa: $rsp .ra: .cfa 8 - ^
STACK CFI 12a430 .cfa: $rsp 8 +
STACK CFI INIT 12a4b0 c .cfa: $rsp .ra: .cfa 8 - ^
STACK CFI 12a4b0 .cfa: $rsp 8 +
STACK CFI INIT 12a4c0 13c .cfa: $rsp .ra: .cfa 8 - ^
STACK CFI 12a4c0 .cfa: $rsp 96 +
STACK CFI INIT 12a600 252 .cfa: $rsp .ra: .cfa 8 - ^
STACK CFI 12a600 .cfa: $rsp 144 +
STACK CFI INIT 12a860 2f .cfa: $rsp .ra: .cfa 8 - ^
STACK CFI 12a860 .cfa: $rsp 8 +
STACK CFI INIT 12a890 77 .cfa: $rsp .ra: .cfa 8 - ^
STACK CFI 12a890 .cfa: $rsp 8 +
STACK CFI INIT 12a910 1e8 .cfa: $rsp .ra: .cfa 8 - ^
STACK CFI 12a910 .cfa: $rsp 160 +
STACK CFI INIT 12ab00 18 .cfa: $rsp .ra: .cfa 8 - ^
STACK CFI 12ab00 .cfa: $rsp 8 +
STACK CFI INIT 12ab20 1a .cfa: $rsp .ra: .cfa 8 - ^
STACK CFI 12ab20 .cfa: $rsp 8 +
STACK CFI INIT 12ab40 9f .cfa: $rsp .ra: .cfa 8 - ^
STACK CFI 12ab40 .cfa: $rsp 96 +
STACK CFI INIT 12abe0 3 .cfa: $rsp .ra: .cfa 8 - ^
STACK CFI 12abe0 .cfa: $rsp 8 +
STACK CFI INIT 12abf0 3 .cfa: $rsp .ra: .cfa 8 - ^
STACK CFI 12abf0 .cfa: $rsp 8 +
STACK CFI INIT 12ac00 1b .cfa: $rsp .ra: .cfa 8 - ^
STACK CFI 12ac00 .cfa: $rsp 48 +
STACK CFI INIT 12ac20 1e .cfa: $rsp .ra: .cfa 8 - ^
STACK CFI 12ac20 .cfa: $rsp 48 +
STACK CFI INIT 12ac40 8 .cfa: $rsp .ra: .cfa 8 - ^
STACK CFI 12ac40 .cfa: $rsp 8 +
STACK CFI INIT 12ac50 5 .cfa: $rsp .ra: .cfa 8 - ^
STACK CFI 12ac50 .cfa: $rsp 8 +
STACK CFI INIT 12ac60 5 .cfa: $rsp .ra: .cfa 8 - ^
STACK CFI 12ac60 .cfa: $rsp 8 +
STACK CFI INIT 12ac70 15 .cfa: $rsp .ra: .cfa 8 - ^
STACK CFI 12ac70 .cfa: $rsp 8 +
STACK CFI INIT 12ac90 1ad .cfa: $rsp .ra: .cfa 8 - ^
STACK CFI 12ac90 .cfa: $rsp 96 +
STACK CFI INIT 12ae40 127 .cfa: $rsp .ra: .cfa 8 - ^
STACK CFI 12ae40 .cfa: $rsp 112 +
STACK CFI INIT 12af70 8f .cfa: $rsp .ra: .cfa 8 - ^
STACK CFI 12af70 .cfa: $rsp 80 +
STACK CFI INIT 12b000 66 .cfa: $rsp .ra: .cfa 8 - ^
STACK CFI 12b000 .cfa: $rsp 64 +
STACK CFI INIT 12b070 85 .cfa: $rsp .ra: .cfa 8 - ^
STACK CFI 12b070 .cfa: $rsp 80 +
STACK CFI INIT 12b100 66 .cfa: $rsp .ra: .cfa 8 - ^
STACK CFI 12b100 .cfa: $rsp 64 +
STACK CFI INIT 12b170 85 .cfa: $rsp .ra: .cfa 8 - ^
STACK CFI 12b170 .cfa: $rsp 80 +
STACK CFI INIT 12b200 65 .cfa: $rsp .ra: .cfa 8 - ^
STACK CFI 12b200 .cfa: $rsp 80 +
STACK CFI INIT 12b270 65 .cfa: $rsp .ra: .cfa 8 - ^
STACK CFI 12b270 .cfa: $rsp 80 +
STACK CFI INIT 12b2e0 66 .cfa: $rsp .ra: .cfa 8 - ^
STACK CFI 12b2e0 .cfa: $rsp 64 +
STACK CFI INIT 12b350 6e .cfa: $rsp .ra: .cfa 8 - ^
STACK CFI 12b350 .cfa: $rsp 80 +
STACK CFI INIT 12b3c0 66 .cfa: $rsp .ra: .cfa 8 - ^
STACK CFI 12b3c0 .cfa: $rsp 64 +
STACK CFI INIT 12b430 6e .cfa: $rsp .ra: .cfa 8 - ^
STACK CFI 12b430 .cfa: $rsp 80 +
STACK CFI INIT 12b4a0 bb .cfa: $rsp .ra: .cfa 8 - ^
STACK CFI 12b4a0 .cfa: $rsp 96 +
STACK CFI INIT 12b560 66 .cfa: $rsp .ra: .cfa 8 - ^
STACK CFI 12b560 .cfa: $rsp 64 +
STACK CFI INIT 12b5d0 6e .cfa: $rsp .ra: .cfa 8 - ^
STACK CFI 12b5d0 .cfa: $rsp 80 +
STACK CFI INIT 12b640 1fa .cfa: $rsp .ra: .cfa 8 - ^
STACK CFI 12b640 .cfa: $rsp 128 +
STACK CFI INIT 12b840 66 .cfa: $rsp .ra: .cfa 8 - ^
STACK CFI 12b840 .cfa: $rsp 64 +
STACK CFI INIT 12b8b0 6e .cfa: $rsp .ra: .cfa 8 - ^
STACK CFI 12b8b0 .cfa: $rsp 80 +
STACK CFI INIT 12b920 66 .cfa: $rsp .ra: .cfa 8 - ^
STACK CFI 12b920 .cfa: $rsp 64 +
STACK CFI INIT 12b990 6e .cfa: $rsp .ra: .cfa 8 - ^
STACK CFI 12b990 .cfa: $rsp 80 +
STACK CFI INIT 12ba00 7a .cfa: $rsp .ra: .cfa 8 - ^
STACK CFI 12ba00 .cfa: $rsp 16 +
STACK CFI INIT 12ba80 7a .cfa: $rsp .ra: .cfa 8 - ^
STACK CFI 12ba80 .cfa: $rsp 16 +
STACK CFI INIT 12bb00 1ab .cfa: $rsp .ra: .cfa 8 - ^
STACK CFI 12bb00 .cfa: $rsp 144 +
STACK CFI INIT 12bcb0 89 .cfa: $rsp .ra: .cfa 8 - ^
STACK CFI 12bcb0 .cfa: $rsp 16 +
STACK CFI INIT 12bd40 89 .cfa: $rsp .ra: .cfa 8 - ^
STACK CFI 12bd40 .cfa: $rsp 16 +
STACK CFI INIT 12bdd0 7a .cfa: $rsp .ra: .cfa 8 - ^
STACK CFI 12bdd0 .cfa: $rsp 16 +
STACK CFI INIT 12be50 7a .cfa: $rsp .ra: .cfa 8 - ^
STACK CFI 12be50 .cfa: $rsp 16 +
STACK CFI INIT 12bed0 7a .cfa: $rsp .ra: .cfa 8 - ^
STACK CFI 12bed0 .cfa: $rsp 16 +
STACK CFI INIT 12bf50 b8 .cfa: $rsp .ra: .cfa 8 - ^
STACK CFI 12bf50 .cfa: $rsp 64 +
STACK CFI INIT 12c010 9c .cfa: $rsp .ra: .cfa 8 - ^
STACK CFI 12c010 .cfa: $rsp 64 +
STACK CFI INIT 12c0b0 8d .cfa: $rsp .ra: .cfa 8 - ^
STACK CFI 12c0b0 .cfa: $rsp 64 +
STACK CFI INIT 12c140 ef .cfa: $rsp .ra: .cfa 8 - ^
STACK CFI 12c140 .cfa: $rsp 80 +
STACK CFI INIT 12c230 6e .cfa: $rsp .ra: .cfa 8 - ^
STACK CFI 12c230 .cfa: $rsp 80 +
STACK CFI INIT 12c2a0 182 .cfa: $rsp .ra: .cfa 8 - ^
STACK CFI 12c2a0 .cfa: $rsp 112 +
STACK CFI INIT 12c430 f9 .cfa: $rsp .ra: .cfa 8 - ^
STACK CFI 12c430 .cfa: $rsp 80 +
STACK CFI INIT 12c530 f9 .cfa: $rsp .ra: .cfa 8 - ^
STACK CFI 12c530 .cfa: $rsp 80 +
STACK CFI INIT 12c630 f9 .cfa: $rsp .ra: .cfa 8 - ^
STACK CFI 12c630 .cfa: $rsp 96 +
STACK CFI INIT 12c730 ed .cfa: $rsp .ra: .cfa 8 - ^
STACK CFI 12c730 .cfa: $rsp 80 +
STACK CFI INIT 12c820 109 .cfa: $rsp .ra: .cfa 8 - ^
STACK CFI 12c820 .cfa: $rsp 96 +
STACK CFI INIT 12c930 dd .cfa: $rsp .ra: .cfa 8 - ^
STACK CFI 12c930 .cfa: $rsp 80 +
STACK CFI INIT 12ca10 da .cfa: $rsp .ra: .cfa 8 - ^
STACK CFI 12ca10 .cfa: $rsp 80 +
STACK CFI INIT 12caf0 d4 .cfa: $rsp .ra: .cfa 8 - ^
STACK CFI 12caf0 .cfa: $rsp 80 +
STACK CFI INIT 12cbd0 d0 .cfa: $rsp .ra: .cfa 8 - ^
STACK CFI 12cbd0 .cfa: $rsp 80 +
STACK CFI INIT 12cca0 4b .cfa: $rsp .ra: .cfa 8 - ^
STACK CFI 12cca0 .cfa: $rsp 64 +
STACK CFI INIT 12ccf0 1ff .cfa: $rsp .ra: .cfa 8 - ^
STACK CFI 12ccf0 .cfa: $rsp 40 +
STACK CFI INIT 12cef0 1af .cfa: $rsp .ra: .cfa 8 - ^
STACK CFI 12cef0 .cfa: $rsp 96 +
STACK CFI INIT 12d0a0 589 .cfa: $rsp .ra: .cfa 8 - ^
STACK CFI 12d0a0 .cfa: $rsp 320 +
STACK CFI INIT 12d630 86 .cfa: $rsp .ra: .cfa 8 - ^
STACK CFI 12d630 .cfa: $rsp 64 +
STACK CFI INIT 12d6c0 158 .cfa: $rsp .ra: .cfa 8 - ^
STACK CFI 12d6c0 .cfa: $rsp 112 +
STACK CFI INIT 12d820 3e6 .cfa: $rsp .ra: .cfa 8 - ^
STACK CFI 12d820 .cfa: $rsp 352 +
STACK CFI INIT 12dc10 5ac .cfa: $rsp .ra: .cfa 8 - ^
STACK CFI 12dc10 .cfa: $rsp 368 +
STACK CFI INIT 12e1c0 59 .cfa: $rsp .ra: .cfa 8 - ^
STACK CFI 12e1c0 .cfa: $rsp 48 +
STACK CFI INIT 12e220 221 .cfa: $rsp .ra: .cfa 8 - ^
STACK CFI 12e220 .cfa: $rsp 128 +
STACK CFI INIT 12e450 38d .cfa: $rsp .ra: .cfa 8 - ^
STACK CFI 12e450 .cfa: $rsp 128 +
STACK CFI INIT 12e7e0 162 .cfa: $rsp .ra: .cfa 8 - ^
STACK CFI 12e7e0 .cfa: $rsp 112 +
STACK CFI INIT 12e950 172 .cfa: $rsp .ra: .cfa 8 - ^
STACK CFI 12e950 .cfa: $rsp 80 +
STACK CFI INIT 12ead0 7d .cfa: $rsp .ra: .cfa 8 - ^
STACK CFI 12ead0 .cfa: $rsp 48 +
STACK CFI INIT 12eb50 272 .cfa: $rsp .ra: .cfa 8 - ^
STACK CFI 12eb50 .cfa: $rsp 128 +
STACK CFI INIT 12edd0 202 .cfa: $rsp .ra: .cfa 8 - ^
STACK CFI 12edd0 .cfa: $rsp 128 +
STACK CFI INIT 12efe0 ea .cfa: $rsp .ra: .cfa 8 - ^
STACK CFI 12efe0 .cfa: $rsp 96 +
STACK CFI INIT 12f0d0 22a .cfa: $rsp .ra: .cfa 8 - ^
STACK CFI 12f0d0 .cfa: $rsp 128 +
STACK CFI INIT 12f300 230 .cfa: $rsp .ra: .cfa 8 - ^
STACK CFI 12f300 .cfa: $rsp 144 +
STACK CFI INIT 12f530 118 .cfa: $rsp .ra: .cfa 8 - ^
STACK CFI 12f530 .cfa: $rsp 96 +
STACK CFI INIT 12f650 122 .cfa: $rsp .ra: .cfa 8 - ^
STACK CFI 12f650 .cfa: $rsp 128 +
STACK CFI INIT 12f780 145 .cfa: $rsp .ra: .cfa 8 - ^
STACK CFI 12f780 .cfa: $rsp 96 +
STACK CFI INIT 12f8d0 3a .cfa: $rsp .ra: .cfa 8 - ^
STACK CFI 12f8d0 .cfa: $rsp 64 +
STACK CFI INIT 12f910 27a .cfa: $rsp .ra: .cfa 8 - ^
STACK CFI 12f910 .cfa: $rsp 144 +
STACK CFI INIT 12fb90 27a .cfa: $rsp .ra: .cfa 8 - ^
STACK CFI 12fb90 .cfa: $rsp 144 +
STACK CFI INIT 12fe10 586 .cfa: $rsp .ra: .cfa 8 - ^
STACK CFI 12fe10 .cfa: $rsp 192 +
STACK CFI INIT 1303a0 586 .cfa: $rsp .ra: .cfa 8 - ^
STACK CFI 1303a0 .cfa: $rsp 192 +
STACK CFI INIT 130930 21f .cfa: $rsp .ra: .cfa 8 - ^
STACK CFI 130930 .cfa: $rsp 112 +
STACK CFI INIT 130b50 184 .cfa: $rsp .ra: .cfa 8 - ^
STACK CFI 130b50 .cfa: $rsp 128 +
STACK CFI INIT 130ce0 184 .cfa: $rsp .ra: .cfa 8 - ^
STACK CFI 130ce0 .cfa: $rsp 128 +
STACK CFI INIT 130e70 402 .cfa: $rsp .ra: .cfa 8 - ^
STACK CFI 130e70 .cfa: $rsp 176 +
STACK CFI INIT 131280 402 .cfa: $rsp .ra: .cfa 8 - ^
STACK CFI 131280 .cfa: $rsp 176 +
STACK CFI INIT 131690 19b .cfa: $rsp .ra: .cfa 8 - ^
STACK CFI 131690 .cfa: $rsp 160 +
STACK CFI INIT 131830 19b .cfa: $rsp .ra: .cfa 8 - ^
STACK CFI 131830 .cfa: $rsp 160 +
STACK CFI INIT 1319d0 fc .cfa: $rsp .ra: .cfa 8 - ^
STACK CFI 1319d0 .cfa: $rsp 96 +
STACK CFI INIT 131ad0 fc .cfa: $rsp .ra: .cfa 8 - ^
STACK CFI 131ad0 .cfa: $rsp 96 +
STACK CFI INIT 131bd0 1b3 .cfa: $rsp .ra: .cfa 8 - ^
STACK CFI 131bd0 .cfa: $rsp 112 +
STACK CFI INIT 131d90 1cb .cfa: $rsp .ra: .cfa 8 - ^
STACK CFI 131d90 .cfa: $rsp 96 +
STACK CFI INIT 131f60 103 .cfa: $rsp .ra: .cfa 8 - ^
STACK CFI 131f60 .cfa: $rsp 80 +
STACK CFI INIT 132070 f .cfa: $rsp .ra: .cfa 8 - ^
STACK CFI 132070 .cfa: $rsp 8 +
STACK CFI INIT 132080 1 .cfa: $rsp .ra: .cfa 8 - ^
STACK CFI 132080 .cfa: $rsp 8 +
STACK CFI INIT 132090 1 .cfa: $rsp .ra: .cfa 8 - ^
STACK CFI 132090 .cfa: $rsp 8 +
STACK CFI INIT 1320a0 1 .cfa: $rsp .ra: .cfa 8 - ^
STACK CFI 1320a0 .cfa: $rsp 8 +
STACK CFI INIT 1320b0 1 .cfa: $rsp .ra: .cfa 8 - ^
STACK CFI 1320b0 .cfa: $rsp 8 +
STACK CFI INIT 1320c0 79 .cfa: $rsp .ra: .cfa 8 - ^
STACK CFI 1320c0 .cfa: $rsp 64 +
STACK CFI INIT 132140 77 .cfa: $rsp .ra: .cfa 8 - ^
STACK CFI 132140 .cfa: $rsp 64 +
STACK CFI INIT 1321c0 23 .cfa: $rsp .ra: .cfa 8 - ^
STACK CFI 1321c0 .cfa: $rsp 48 +
STACK CFI INIT 132200 52 .cfa: $rsp .ra: .cfa 8 - ^
STACK CFI 132200 .cfa: $rsp 96 +
STACK CFI INIT 132260 3a .cfa: $rsp .ra: .cfa 8 - ^
STACK CFI 132260 .cfa: $rsp 48 +
STACK CFI INIT 1322a0 2d .cfa: $rsp .ra: .cfa 8 - ^
STACK CFI 1322a0 .cfa: $rsp 48 +
STACK CFI INIT 1322d0 f .cfa: $rsp .ra: .cfa 8 - ^
STACK CFI 1322d0 .cfa: $rsp 8 +
STACK CFI INIT 1322e0 3a .cfa: $rsp .ra: .cfa 8 - ^
STACK CFI 1322e0 .cfa: $rsp 48 +
STACK CFI INIT 132320 2d .cfa: $rsp .ra: .cfa 8 - ^
STACK CFI 132320 .cfa: $rsp 48 +
STACK CFI INIT 132350 3d .cfa: $rsp .ra: .cfa 8 - ^
STACK CFI 132350 .cfa: $rsp 48 +
STACK CFI INIT 132390 27 .cfa: $rsp .ra: .cfa 8 - ^
STACK CFI 132390 .cfa: $rsp 8 +
STACK CFI INIT 1323c0 3d .cfa: $rsp .ra: .cfa 8 - ^
STACK CFI 1323c0 .cfa: $rsp 48 +
STACK CFI INIT 132400 27 .cfa: $rsp .ra: .cfa 8 - ^
STACK CFI 132400 .cfa: $rsp 8 +
STACK CFI INIT 132430 15 .cfa: $rsp .ra: .cfa 8 - ^
STACK CFI 132430 .cfa: $rsp 8 +
STACK CFI INIT 132450 c .cfa: $rsp .ra: .cfa 8 - ^
STACK CFI 132450 .cfa: $rsp 8 +
STACK CFI INIT 132460 15 .cfa: $rsp .ra: .cfa 8 - ^
STACK CFI 132460 .cfa: $rsp 8 +
STACK CFI INIT 132480 1 .cfa: $rsp .ra: .cfa 8 - ^
STACK CFI 132480 .cfa: $rsp 8 +
STACK CFI INIT 132490 46 .cfa: $rsp .ra: .cfa 8 - ^
STACK CFI 132490 .cfa: $rsp 96 +
STACK CFI INIT 1324e0 2d .cfa: $rsp .ra: .cfa 8 - ^
STACK CFI 1324e0 .cfa: $rsp 48 +
STACK CFI INIT 132510 fc .cfa: $rsp .ra: .cfa 8 - ^
STACK CFI 132510 .cfa: $rsp 64 +
STACK CFI INIT 132610 150 .cfa: $rsp .ra: .cfa 8 - ^
STACK CFI 132610 .cfa: $rsp 80 +
STACK CFI INIT 132760 14c .cfa: $rsp .ra: .cfa 8 - ^
STACK CFI 132760 .cfa: $rsp 80 +
STACK CFI INIT 1328b0 a .cfa: $rsp .ra: .cfa 8 - ^
STACK CFI 1328b0 .cfa: $rsp 176 +
STACK CFI INIT 1328c0 f .cfa: $rsp .ra: .cfa 8 - ^
STACK CFI 1328c0 .cfa: $rsp 8 +
STACK CFI INIT 1328d0 14 .cfa: $rsp .ra: .cfa 8 - ^
STACK CFI 1328d0 .cfa: $rsp 112 +
STACK CFI INIT 1328e4 14 .cfa: $rsp .ra: .cfa 8 - ^
STACK CFI 1328e4 .cfa: $rsp 112 +
STACK CFI INIT 1328f8 a .cfa: $rsp .ra: .cfa 8 - ^
STACK CFI 1328f8 .cfa: $rsp 64 +
STACK CFI INIT 132910 a .cfa: $rsp .ra: .cfa 8 - ^
STACK CFI 132910 .cfa: $rsp 96 +
STACK CFI INIT 13291a a .cfa: $rsp .ra: .cfa 8 - ^
STACK CFI 13291a .cfa: $rsp 80 +
STACK CFI INIT 132924 14 .cfa: $rsp .ra: .cfa 8 - ^
STACK CFI 132924 .cfa: $rsp 48 +
STACK CFI INIT 132938 1e .cfa: $rsp .ra: .cfa 8 - ^
STACK CFI 132938 .cfa: $rsp 208 +
STACK CFI INIT 132956 a .cfa: $rsp .ra: .cfa 8 - ^
STACK CFI 132956 .cfa: $rsp 336 +
STACK CFI INIT 132960 a .cfa: $rsp .ra: .cfa 8 - ^
STACK CFI 132960 .cfa: $rsp 336 +
STACK CFI INIT 13296a a .cfa: $rsp .ra: .cfa 8 - ^
STACK CFI 13296a .cfa: $rsp 160 +
STACK CFI INIT 132974 a .cfa: $rsp .ra: .cfa 8 - ^
STACK CFI 132974 .cfa: $rsp 96 +
STACK CFI INIT 13297e a .cfa: $rsp .ra: .cfa 8 - ^
STACK CFI 13297e .cfa: $rsp 192 +
STACK CFI INIT 132990 a .cfa: $rsp .ra: .cfa 8 - ^
STACK CFI 132990 .cfa: $rsp 112 +
STACK CFI INIT 13299a 14 .cfa: $rsp .ra: .cfa 8 - ^
STACK CFI 13299a .cfa: $rsp 560 +
STACK CFI INIT 1329ae a .cfa: $rsp .ra: .cfa 8 - ^
STACK CFI 1329ae .cfa: $rsp 336 +
STACK CFI INIT 1329b8 a .cfa: $rsp .ra: .cfa 8 - ^
STACK CFI 1329b8 .cfa: $rsp 64 +
STACK CFI INIT 1329d0 1d .cfa: $rsp .ra: .cfa 8 - ^
STACK CFI 1329d0 .cfa: $rsp 8 +
STACK CFI INIT 1329f0 a .cfa: $rsp .ra: .cfa 8 - ^
STACK CFI 1329f0 .cfa: $rsp 112 +
STACK CFI INIT 132a00 1b16 .cfa: $rsp .ra: .cfa 8 - ^
STACK CFI 132a00 .cfa: $rsp 8 +
STACK CFI INIT 134520 41 .cfa: $rsp .ra: .cfa 8 - ^
STACK CFI 134520 .cfa: $rsp 8 +
STACK CFI INIT 134570 f .cfa: $rsp .ra: .cfa 8 - ^
STACK CFI 134570 .cfa: $rsp 8 +
STACK CFI INIT 134580 a .cfa: $rsp .ra: .cfa 8 - ^
STACK CFI 134580 .cfa: $rsp 160 +
STACK CFI INIT 13458a a .cfa: $rsp .ra: .cfa 8 - ^
STACK CFI 13458a .cfa: $rsp 64 +
STACK CFI INIT 134594 8c .cfa: $rsp .ra: .cfa 8 - ^
STACK CFI 134594 .cfa: $rsp 368 +
STACK CFI INIT 134620 a .cfa: $rsp .ra: .cfa 8 - ^
STACK CFI 134620 .cfa: $rsp 64 +
STACK CFI INIT 13462a a .cfa: $rsp .ra: .cfa 8 - ^
STACK CFI 13462a .cfa: $rsp 336 +
STACK CFI INIT 134634 1e .cfa: $rsp .ra: .cfa 8 - ^
STACK CFI 134634 .cfa: $rsp 352 +
STACK CFI INIT 134652 a .cfa: $rsp .ra: .cfa 8 - ^
STACK CFI 134652 .cfa: $rsp 96 +
STACK CFI INIT 13465c 32 .cfa: $rsp .ra: .cfa 8 - ^
STACK CFI 13465c .cfa: $rsp 368 +
STACK CFI INIT 13468e 1e .cfa: $rsp .ra: .cfa 8 - ^
STACK CFI 13468e .cfa: $rsp 96 +
STACK CFI INIT 1346ac 1e .cfa: $rsp .ra: .cfa 8 - ^
STACK CFI 1346ac .cfa: $rsp 96 +
STACK CFI INIT 1346ca a .cfa: $rsp .ra: .cfa 8 - ^
STACK CFI 1346ca .cfa: $rsp 352 +
STACK CFI INIT 1346d4 a .cfa: $rsp .ra: .cfa 8 - ^
STACK CFI 1346d4 .cfa: $rsp 400 +
STACK CFI INIT 1346de a .cfa: $rsp .ra: .cfa 8 - ^
STACK CFI 1346de .cfa: $rsp 96 +
STACK CFI INIT 1346e8 5a .cfa: $rsp .ra: .cfa 8 - ^
STACK CFI 1346e8 .cfa: $rsp 368 +
STACK CFI INIT 134742 50 .cfa: $rsp .ra: .cfa 8 - ^
STACK CFI 134742 .cfa: $rsp 176 +
STACK CFI INIT 1347a0 f .cfa: $rsp .ra: .cfa 8 - ^
STACK CFI 1347a0 .cfa: $rsp 8 +
STACK CFI INIT 1347b0 a .cfa: $rsp .ra: .cfa 8 - ^
STACK CFI 1347b0 .cfa: $rsp 8 +
STACK CFI INIT 1347ba a .cfa: $rsp .ra: .cfa 8 - ^
STACK CFI 1347ba .cfa: $rsp 8 +
STACK CFI INIT 1347c4 a .cfa: $rsp .ra: .cfa 8 - ^
STACK CFI 1347c4 .cfa: $rsp 8 +
STACK CFI INIT 1347ce a .cfa: $rsp .ra: .cfa 8 - ^
STACK CFI 1347ce .cfa: $rsp 64 +
STACK CFI INIT 1347d8 a .cfa: $rsp .ra: .cfa 8 - ^
STACK CFI 1347d8 .cfa: $rsp 48 +
STACK CFI INIT 1347e2 a .cfa: $rsp .ra: .cfa 8 - ^
STACK CFI 1347e2 .cfa: $rsp 96 +
STACK CFI INIT 1347f0 28 .cfa: $rsp .ra: .cfa 8 - ^
STACK CFI 1347f0 .cfa: $rsp 48 +
STACK CFI INIT 134820 f .cfa: $rsp .ra: .cfa 8 - ^
STACK CFI 134820 .cfa: $rsp 8 +
STACK CFI INIT 134830 f .cfa: $rsp .ra: .cfa 8 - ^
STACK CFI 134830 .cfa: $rsp 8 +
STACK CFI INIT 134840 f .cfa: $rsp .ra: .cfa 8 - ^
STACK CFI 134840 .cfa: $rsp 8 +
STACK CFI INIT 134850 28 .cfa: $rsp .ra: .cfa 8 - ^
STACK CFI 134850 .cfa: $rsp 48 +
STACK CFI INIT 134880 f .cfa: $rsp .ra: .cfa 8 - ^
STACK CFI 134880 .cfa: $rsp 8 +
STACK CFI INIT 134890 a .cfa: $rsp .ra: .cfa 8 - ^
STACK CFI 134890 .cfa: $rsp 224 +
STACK CFI INIT 1348a0 a .cfa: $rsp .ra: .cfa 8 - ^
STACK CFI 1348a0 .cfa: $rsp 48 +
STACK CFI INIT 1348b0 14 .cfa: $rsp .ra: .cfa 8 - ^
STACK CFI 1348b0 .cfa: $rsp 112 +
STACK CFI INIT 1348c4 14 .cfa: $rsp .ra: .cfa 8 - ^
STACK CFI 1348c4 .cfa: $rsp 112 +
STACK CFI INIT 1348d8 a .cfa: $rsp .ra: .cfa 8 - ^
STACK CFI 1348d8 .cfa: $rsp 64 +
STACK CFI INIT 1348f0 f .cfa: $rsp .ra: .cfa 8 - ^
STACK CFI 1348f0 .cfa: $rsp 8 +
STACK CFI INIT 134900 f .cfa: $rsp .ra: .cfa 8 - ^
STACK CFI 134900 .cfa: $rsp 8 +
STACK CFI INIT 134910 f .cfa: $rsp .ra: .cfa 8 - ^
STACK CFI 134910 .cfa: $rsp 8 +
STACK CFI INIT 134920 f .cfa: $rsp .ra: .cfa 8 - ^
STACK CFI 134920 .cfa: $rsp 8 +
STACK CFI INIT 134930 a .cfa: $rsp .ra: .cfa 8 - ^
STACK CFI 134930 .cfa: $rsp 112 +
STACK CFI INIT 13493a a .cfa: $rsp .ra: .cfa 8 - ^
STACK CFI 13493a .cfa: $rsp 96 +
STACK CFI INIT 134944 14 .cfa: $rsp .ra: .cfa 8 - ^
STACK CFI 134944 .cfa: $rsp 112 +
STACK CFI INIT 134958 a .cfa: $rsp .ra: .cfa 8 - ^
STACK CFI 134958 .cfa: $rsp 96 +
STACK CFI INIT 134962 14 .cfa: $rsp .ra: .cfa 8 - ^
STACK CFI 134962 .cfa: $rsp 112 +
STACK CFI INIT 134976 14 .cfa: $rsp .ra: .cfa 8 - ^
STACK CFI 134976 .cfa: $rsp 112 +
STACK CFI INIT 13498a 14 .cfa: $rsp .ra: .cfa 8 - ^
STACK CFI 13498a .cfa: $rsp 112 +
STACK CFI INIT 13499e 14 .cfa: $rsp .ra: .cfa 8 - ^
STACK CFI 13499e .cfa: $rsp 112 +
STACK CFI INIT 1349b2 14 .cfa: $rsp .ra: .cfa 8 - ^
STACK CFI 1349b2 .cfa: $rsp 112 +
STACK CFI INIT 1349c6 14 .cfa: $rsp .ra: .cfa 8 - ^
STACK CFI 1349c6 .cfa: $rsp 112 +
STACK CFI INIT 1349da 14 .cfa: $rsp .ra: .cfa 8 - ^
STACK CFI 1349da .cfa: $rsp 112 +
STACK CFI INIT 1349f0 a .cfa: $rsp .ra: .cfa 8 - ^
STACK CFI 1349f0 .cfa: $rsp 208 +
STACK CFI INIT 1349fa a .cfa: $rsp .ra: .cfa 8 - ^
STACK CFI 1349fa .cfa: $rsp 176 +
STACK CFI INIT 134a10 f .cfa: $rsp .ra: .cfa 8 - ^
STACK CFI 134a10 .cfa: $rsp 8 +
STACK CFI INIT 134a20 f .cfa: $rsp .ra: .cfa 8 - ^
STACK CFI 134a20 .cfa: $rsp 8 +
STACK CFI INIT 134a30 f .cfa: $rsp .ra: .cfa 8 - ^
STACK CFI 134a30 .cfa: $rsp 8 +
STACK CFI INIT 134a40 f .cfa: $rsp .ra: .cfa 8 - ^
STACK CFI 134a40 .cfa: $rsp 8 +
STACK CFI INIT 134a50 f .cfa: $rsp .ra: .cfa 8 - ^
STACK CFI 134a50 .cfa: $rsp 8 +
STACK CFI INIT 134a60 f .cfa: $rsp .ra: .cfa 8 - ^
STACK CFI 134a60 .cfa: $rsp 8 +
STACK CFI INIT 134a70 f .cfa: $rsp .ra: .cfa 8 - ^
STACK CFI 134a70 .cfa: $rsp 8 +
STACK CFI INIT 134a80 f .cfa: $rsp .ra: .cfa 8 - ^
STACK CFI 134a80 .cfa: $rsp 8 +
STACK CFI INIT 134a90 f .cfa: $rsp .ra: .cfa 8 - ^
STACK CFI 134a90 .cfa: $rsp 8 +
STACK CFI INIT 134aa0 1d .cfa: $rsp .ra: .cfa 8 - ^
STACK CFI 134aa0 .cfa: $rsp 8 +
STACK CFI INIT 134ac0 f .cfa: $rsp .ra: .cfa 8 - ^
STACK CFI 134ac0 .cfa: $rsp 8 +
STACK CFI INIT 134ad0 f .cfa: $rsp .ra: .cfa 8 - ^
STACK CFI 134ad0 .cfa: $rsp 8 +
STACK CFI INIT 134ae0 f .cfa: $rsp .ra: .cfa 8 - ^
STACK CFI 134ae0 .cfa: $rsp 8 +
STACK CFI INIT 134af0 f .cfa: $rsp .ra: .cfa 8 - ^
STACK CFI 134af0 .cfa: $rsp 8 +
STACK CFI INIT 134b00 1d .cfa: $rsp .ra: .cfa 8 - ^
STACK CFI 134b00 .cfa: $rsp 8 +
STACK CFI INIT 134b20 1d .cfa: $rsp .ra: .cfa 8 - ^
STACK CFI 134b20 .cfa: $rsp 8 +
STACK CFI INIT 134b40 f .cfa: $rsp .ra: .cfa 8 - ^
STACK CFI 134b40 .cfa: $rsp 8 +
STACK CFI INIT 134b50 f .cfa: $rsp .ra: .cfa 8 - ^
STACK CFI 134b50 .cfa: $rsp 8 +
STACK CFI INIT 134b60 69 .cfa: $rsp .ra: .cfa 8 - ^
STACK CFI 134b60 .cfa: $rsp 80 +
STACK CFI INIT 134bd0 5 .cfa: $rsp .ra: .cfa 8 - ^
STACK CFI 134bd0 .cfa: $rsp 8 +
