MODULE windows x86_64 9AEBFEBB66BC4BF78C866E69735DBA821 Qt5Script.pdb
INFO CODE_ID 5C53FEE81BE000 Qt5Script.dll
FUNC 1000 c 0 pre_c_init
FUNC 1200 12b 0 _DllMainCRTStartup
FUNC 1330 4f 0 DllMainCRTStartup
FUNC 1380 f 0 atexit
FUNC 13b0 379 0 checkEscape
FUNC 1730 d8 0 readRepeatCounts
FUNC 1810 86 0 encodeUTF8
FUNC 18a0 44 0 bracketIsAnchored
FUNC 18f0 35 0 branchIsAnchored
FUNC 1930 4c 0 bracketNeedsLineStart
FUNC 1980 a6 0 branchNeedsLineStart
FUNC 1a30 5f 0 bracketFindFirstAssertedCharacter
FUNC 1a90 d7 0 branchFindFirstAssertedCharacter
FUNC 1b70 82 0 getOthercaseRange
FUNC 1cc0 cbb 0 calculateCompiledPatternLength
FUNC 2980 1a32 0 compileBranch
FUNC 43c0 2b5 0 compileBracket
FUNC 4680 46f 0 jsRegExpCompile
FUNC 4af0 11 0 jsRegExpFree
FUNC 4b10 ad 0 matchRef
FUNC 8380 5ce 0 jsRegExpExecute
FUNC 8950 d8 0 jsc_pcre_ucp_othercase
FUNC 8a30 234 0 jsc_pcre_xclass
FUNC 8c70 3f7 0 JSEvaluateScript
FUNC 9070 3cf 0 JSCheckScriptSyntax
FUNC 9440 210 0 JSGarbageCollect
FUNC 9650 21d 0 JSReportExtraMemoryCost
FUNC 9870 14 0 getConstructData
FUNC 9950 358 0 constructJSCallback
FUNC 9d00 10 0 getCallData
FUNC 9d10 394 0 call
FUNC a140 16 0 clearReferenceToPrototype
FUNC b070 36 0 createNoAutomaticPrototype
FUNC b0b0 11e 0 create
FUNC bb90 339 0 contextData
FUNC c130 1d 0 JSContextGroupCreate
FUNC c150 7 0 JSContextGroupRetain
FUNC c160 32 0 JSContextGroupRelease
FUNC c1a0 23e 0 JSGlobalContextRetain
FUNC c3e0 26d 0 JSGlobalContextRelease
FUNC c650 1fe 0 JSContextGetGlobalObject
FUNC c850 9 0 JSContextGetGroup
FUNC c860 1fd 0 JSContextGetGlobalContext
FUNC ca60 53e 0 JSGlobalContextCreateInGroup
FUNC cfa0 1c 0 JSGlobalContextCreate
FUNC cfc0 40 0 JSClassCreate
FUNC d050 2b0 0 JSObjectMakeFunctionWithCallback
FUNC d300 5f8 0 JSObjectMakeConstructor
FUNC d900 1fd 0 JSObjectGetPrototype
FUNC db00 280 0 JSObjectSetPrototype
FUNC dd80 260 0 JSObjectHasProperty
FUNC dfe0 508 0 JSObjectGetProperty
FUNC e4f0 318 0 JSObjectSetProperty
FUNC e810 395 0 JSObjectGetPropertyAtIndex
FUNC ebb0 259 0 JSObjectSetPropertyAtIndex
FUNC ee10 2b0 0 JSObjectDeleteProperty
FUNC f0c0 81 0 JSObjectGetPrivate
FUNC f150 97 0 JSObjectSetPrivate
FUNC f1f0 1c 0 JSObjectIsFunction
FUNC f210 1c 0 JSObjectIsConstructor
FUNC f240 2f2 0 JSPropertyNameArrayRelease
FUNC f540 5 0 JSPropertyNameArrayGetCount
FUNC f550 b 0 JSPropertyNameArrayGetNameAtIndex
FUNC f560 28b 0 JSPropertyNameAccumulatorAddName
FUNC f7f0 4d5 0 JSObjectCopyPropertyNames
FUNC fcd0 309 0 JSObjectMake
FUNC ffe0 987 0 JSObjectMakeFunction
FUNC 10970 4a2 0 JSObjectMakeDate
FUNC 10e20 4a2 0 JSObjectMakeError
FUNC 112d0 4a2 0 JSObjectMakeRegExp
FUNC 11780 532 0 JSObjectCallAsFunction
FUNC 11cc0 4f9 0 JSObjectCallAsConstructor
FUNC 121c0 5a1 0 JSObjectMakeArray
FUNC 12770 52 0 JSStringCreateWithCharacters
FUNC 127d0 1b0 0 JSStringCreateWithUTF8CString
FUNC 12980 8 0 JSStringRetain
FUNC 129d0 4 0 JSStringGetLength
FUNC 129e0 5 0 JSStringGetCharactersPtr
FUNC 129f0 8 0 JSStringGetMaximumUTF8CStringSize
FUNC 12a00 6a 0 JSStringGetUTF8CString
FUNC 12a70 2a 0 JSStringIsEqual
FUNC 12aa0 6f 0 JSStringIsEqualToUTF8CString
FUNC 12b10 27b 0 JSValueGetType
FUNC 12d90 1fd 0 JSValueIsUndefined
FUNC 12f90 1fd 0 JSValueIsNull
FUNC 13190 20d 0 JSValueIsBoolean
FUNC 133a0 1fd 0 JSValueIsNumber
FUNC 135a0 1fd 0 JSValueIsString
FUNC 137a0 1fd 0 JSValueIsObject
FUNC 139a0 2e3 0 JSValueIsObjectOfClass
FUNC 13c90 281 0 JSValueIsEqual
FUNC 13f20 3a9 0 JSValueIsStrictEqual
FUNC 142d0 546 0 JSValueIsInstanceOfConstructor
FUNC 14820 1ed 0 JSValueMakeUndefined
FUNC 14a10 1ed 0 JSValueMakeNull
FUNC 14c00 1fd 0 JSValueMakeBoolean
FUNC 14e00 22d 0 JSValueMakeNumber
FUNC 15030 39d 0 JSValueMakeString
FUNC 153d0 2a0 0 JSValueToBoolean
FUNC 15670 2f1 0 JSValueToNumber
FUNC 15970 719 0 JSValueToStringCopy
FUNC 16090 274 0 JSValueToObject
FUNC 16310 20d 0 JSValueProtect
FUNC 16520 20d 0 JSValueUnprotect
FUNC 16730 75 0 create
FUNC 167b0 52 0 ustring
FUNC 16810 56 0 identifier
FUNC 16bf0 c 0 dumpStatistics
FUNC 16de0 37f 0 derefStructures
FUNC 17160 76 0 refStructures
FUNC 171e0 188 0 markAggregate
FUNC 17390 3c 0 handlerForBytecodeOffset
FUNC 173d0 9b 0 lineNumberForBytecodeOffset
FUNC 17470 144 0 expressionRangeForBytecodeOffset
FUNC 175c0 db 0 getByIdExceptionInfoForBytecodeOffset
FUNC 176a0 79 0 hasGlobalResolveInstructionAtBytecodeOffset
FUNC 17c70 760 0 shrinkToFit
FUNC 183d0 22 0 offsetForValue
FUNC 18400 6d 0 threadStartFunc
FUNC 18490 31 0 start
FUNC 184d0 14 0 stop
FUNC 184f0 69 0 sample
FUNC 18560 134 0 doRun
FUNC 186a0 c 0 sample
FUNC 186c0 8 0 setup
FUNC 186d0 1 0 dump
FUNC 18a30 1 0 setDumpsGeneratedCode
FUNC 18a40 3 0 dumpsGeneratedCode
FUNC 18a50 71 0 preserveLastVar
FUNC 18ad0 f7 0 willResolveToArguments
FUNC 18bd0 190 0 uncheckedRegisterForArguments
FUNC 18d60 a4 0 constRegisterFor
FUNC 18e10 c9 0 isLocal
FUNC 18ee0 93 0 isLocalConstant
FUNC 19220 10 0 popFinallyContext
FUNC 19230 1ae 0 generate
FUNC 19780 ef 0 emitLabel
FUNC 19900 1d4 0 breakTarget
FUNC 19ae0 1ca 0 continueTarget
FUNC 19cb0 d4 0 emitBinaryOp
FUNC 19d90 3ea 0 emitEqualityOp
FUNC 1a180 1e1 0 emitGetByVal
FUNC 1a370 56 0 createArgumentsIfNecessary
FUNC 1a3d0 ea 0 registerFor
FUNC 1a4c0 2a6 0 emitCallVarargs
FUNC 1a770 3e4 0 emitJumpIfTrue
FUNC 1ab60 491 0 emitJumpIfFalse
FUNC 1b000 11d 0 emitGetPropertyNames
FUNC 1b120 13d 0 emitNextPropertyName
FUNC 1b2d0 6c 0 emitMethodCheck
FUNC 1b340 7c 0 emitPopScope
FUNC 1b3c0 170 0 emitPutScopedVar
FUNC 1b530 173 0 emitGetScopedVar
FUNC 1b6b0 bc 0 emitPreDec
FUNC 1b770 bc 0 emitSubroutineReturn
FUNC 1b830 bc 0 emitPreInc
FUNC 1b8f0 bc 0 emitUnaryNoDstOp
FUNC 1b9b0 bc 0 emitReturn
FUNC 1ba70 bc 0 emitNewObject
FUNC 1bb30 112 0 emitJump
FUNC 1bc50 113 0 emitPostDec
FUNC 1bd70 113 0 emitPostInc
FUNC 1be90 113 0 emitMove
FUNC 1bfb0 113 0 emitToPrimitive
FUNC 1c0d0 113 0 emitUnaryOp
FUNC 1c1f0 113 0 emitLoadVarargs
FUNC 1c310 176 0 emitPutByIndex
FUNC 1c490 176 0 emitStrcat
FUNC 1c610 176 0 emitPutByVal
FUNC 1c790 176 0 emitDeleteByVal
FUNC 1c910 1e1 0 emitNewFunction
FUNC 1cb00 1e1 0 emitNewFunctionExpression
FUNC 1ccf0 f4 0 emitInstanceOf
FUNC 1cdf0 18d 0 emitDebugHook
FUNC 1cf80 1fe 0 emitCatch
FUNC 1d180 194 0 emitNewRegExp
FUNC 1d320 1a2 0 emitJumpIfNotFunctionCall
FUNC 1d4d0 1d1 0 emitJumpIfNotFunctionApply
FUNC 1d6b0 8a 0 pushFinallyContext
FUNC 1d740 9c 0 emitPushScope
FUNC 1d7e0 1e1 0 beginSwitch
FUNC 1d9d0 150 0 newRegister
FUNC 1db20 8e 0 newTemporary
FUNC 1dbb0 7c 0 highestUsedRegister
FUNC 1dc30 30b 0 newLabel
FUNC 1df40 10a 0 emitJumpSubroutine
FUNC 1e050 22e 0 emitComplexJumpScopes
FUNC 1e280 181 0 emitJumpScopes
FUNC 1ec40 30c 0 newLabelScope
FUNC 1ef50 1a9 0 addParameter
FUNC 1f190 161 0 addGlobalVar
FUNC 1fae0 39a 0 addConstant
FUNC 1fe80 37e 0 emitResolve
FUNC 20200 16e 0 emitGetById
FUNC 20370 16e 0 emitPutById
FUNC 204e0 11a 0 emitPutGetter
FUNC 20600 11a 0 emitPutSetter
FUNC 20720 117 0 emitDeleteById
FUNC 20840 168 0 emitPushNewScope
FUNC 209b0 415 0 addConstantValue
FUNC 20dd0 37 0 emitLoad
FUNC 20e10 11 0 emitLoad
FUNC 21940 f1 0 emitResolveBase
FUNC 21a40 304 0 emitResolveWithBase
FUNC 21d50 e3 0 emitNewError
FUNC 21e40 27b 0 emitThrowExpressionTooDeepException
FUNC 220c0 935 0 emitConstruct
FUNC 22a00 30a 0 emitNewArray
FUNC 22d10 696 0 emitCall
FUNC 233b0 4c 0 emitCall
FUNC 23400 68 0 emitCallEval
FUNC 23470 44f 0 emitLoad
FUNC 238c0 38d 0 emitLoad
FUNC 23c50 a1e 0 endSwitch
FUNC 24670 2f 0 emitBytecode
FUNC 246a0 14 0 emitBytecode
FUNC 246c0 23 0 emitBytecode
FUNC 246f0 23 0 emitBytecode
FUNC 24720 23 0 emitBytecode
FUNC 24750 23 0 emitBytecode
FUNC 24780 33 0 emitBytecode
FUNC 247c0 f 0 isPure
FUNC 247d0 15 0 emitPreIncOrDec
FUNC 247f0 29 0 emitBytecode
FUNC 24820 29 0 emitBytecode
FUNC 248c0 3d 0 emitBytecode
FUNC 24a70 c5 0 toArgumentList
FUNC 24cc0 102 0 tryOptimizedSwitch
FUNC 24dd0 223 0 emitBytecode
FUNC 25110 3fb 0 emitThrowError
FUNC 25510 117 0 emitBytecode
FUNC 256f0 34d 0 emitBytecode
FUNC 25a40 303 0 emitBytecode
FUNC 25e70 396 0 emitBytecode
FUNC 26210 2e0 0 emitThrowError
FUNC 264f0 28 0 emitBytecode
FUNC 26520 28 0 emitBytecode
FUNC 26550 16 0 emitBytecode
FUNC 266f0 17c 0 emitBytecode
FUNC 26870 9d 0 emitBytecode
FUNC 26910 10c 0 emitBytecode
FUNC 26a20 18b 0 emitBytecode
FUNC 26bb0 180 0 emitBytecode
FUNC 26d30 380 0 emitBytecode
FUNC 270b0 19c 0 emitBytecode
FUNC 27250 17c 0 emitBytecode
FUNC 273d0 154 0 emitBytecode
FUNC 27530 35a 0 emitBytecode
FUNC 27890 152 0 emitBytecode
FUNC 279f0 1df 0 emitBytecode
FUNC 27bd0 283 0 emitBytecode
FUNC 27e60 3d8 0 emitBytecode
FUNC 28240 5d8 0 emitBytecode
FUNC 28820 1ad 0 emitBytecode
FUNC 289d0 125 0 emitBytecode
FUNC 28b00 217 0 emitBytecode
FUNC 28d20 240 0 emitBytecode
FUNC 29220 167 0 emitBytecode
FUNC 29470 498 0 emitBytecode
FUNC 29910 1c8 0 emitBytecodeInConditionContext
FUNC 29ae0 1e8 0 emitBytecode
FUNC 29cd0 125 0 emitBytecode
FUNC 29e00 1a8 0 emitBytecode
FUNC 29fb0 168 0 emitBytecode
FUNC 2a120 188 0 emitBytecode
FUNC 2a2b0 238 0 emitBytecode
FUNC 2a4f0 1cc 0 emitBytecode
FUNC 2a6c0 1ef 0 emitBytecode
FUNC 2a8b0 1d9 0 emitBytecode
FUNC 2aa90 240 0 emitBytecode
FUNC 2acd0 2a8 0 emitBytecode
FUNC 2af80 c2 0 emitBytecode
FUNC 2b050 f4 0 emitBytecodeInConditionContext
FUNC 2b150 10f 0 emitBytecode
FUNC 2b260 124 0 emitBytecode
FUNC 2b390 d4 0 emitBytecode
FUNC 2b470 d4 0 emitBytecode
FUNC 2b550 e2 0 emitBytecode
FUNC 2b640 1fa 0 emitBytecode
FUNC 2b840 217 0 emitBytecode
FUNC 2ba60 217 0 emitBytecode
FUNC 2bda0 108 0 emitBytecode
FUNC 2beb0 1c6 0 emitBytecode
FUNC 2c080 270 0 emitBytecode
FUNC 2c2f0 135 0 emitBytecode
FUNC 2c430 108 0 emitBytecode
FUNC 2c540 185 0 emitBytecode
FUNC 2c6d0 7bf 0 emitBytecode
FUNC 2ce90 4a4 0 emitStrcat
FUNC 2d340 258 0 emitBytecode
FUNC 2d5a0 2aa 0 emitReadModifyAssignment
FUNC 2d850 5cc 0 emitBytecode
FUNC 2de20 26d 0 emitBytecode
FUNC 2e090 2e0 0 emitBytecode
FUNC 2e370 742 0 emitBytecodeForBlock
FUNC 2eac0 e8 0 emitBytecode
FUNC 2ebb0 1e 0 className
FUNC 2ebd0 e 0 getOwnPropertySlot
FUNC 2ebe0 e 0 put
FUNC 2ebf0 e 0 putWithAttributes
FUNC 2ec00 e 0 deleteProperty
FUNC 2ec10 e 0 getOwnPropertyNames
FUNC 2ec20 e 0 getOwnPropertyDescriptor
FUNC 2ec30 e 0 defineGetter
FUNC 2ec40 e 0 defineSetter
FUNC 2ec50 e 0 lookupGetter
FUNC 2ec60 e 0 lookupSetter
FUNC 2ec70 d8 0 markChildren
FUNC 2edb0 23 0 functionName
FUNC 2ede0 43 0 calculatedFunctionName
FUNC 2ee30 f 0 type
FUNC 2ee70 23e 0 evaluate
FUNC 2f170 220 0 evaluateInGlobalCallFrame
FUNC 2f390 186 0 attach
FUNC 2f520 8c 0 detach
FUNC 2f5b0 652 0 recompileAllJSFunctions
FUNC 2fc10 d 0 thisValue
FUNC 2fc20 5d 0 isInvalidParamForInstanceOf
FUNC 2fc80 54 0 isInvalidParamForIn
FUNC 2fd10 39a 0 resolve
FUNC 300b0 3bb 0 resolveSkip
FUNC 30470 4af 0 resolveGlobal
FUNC 30920 266 0 resolveBase
FUNC 30b90 3b8 0 resolveBaseAndProperty
FUNC 30f50 f4 0 isOpcode
FUNC 31050 3eb 0 unwindCallFrame
FUNC 31440 9ea 0 throwException
FUNC 31e30 24b 0 prepareForRepeatCall
FUNC 32080 2e 0 endRepeatCall
FUNC 320b0 11f 0 debug
FUNC 321d0 1ed 0 tryCachePutByID
FUNC 323c0 30 0 uncachePutByID
FUNC 323f0 39b 0 tryCacheGetByID
FUNC 32790 30 0 uncacheGetByID
FUNC 327c0 1f5 0 retrieveArguments
FUNC 329c0 42 0 retrieveCaller
FUNC 32a10 175 0 retrieveLastCaller
FUNC 32be0 1 0 dumpSampleData
FUNC 32c10 169 0 createExceptionScope
FUNC 32d80 81f0 0 privateExecute
FUNC 3b360 2db 0 execute
FUNC 3b640 2e6 0 execute
FUNC 3b930 ad 0 execute
FUNC 3b9e0 53f 0 execute
FUNC 3bf20 991 0 callEval
FUNC 3c8c0 94 0 execute
FUNC 3c980 31 0 releaseExcessCapacity
FUNC 3c9c0 21 0 isNonASCIIIdentPart
FUNC 3c9f0 21 0 isNonASCIIIdentStart
FUNC 3cc10 99 0 shiftLineTerminator
FUNC 3ccb0 17d 0 skipRegExp
FUNC 3ce30 b2 0 clear
FUNC 3cef0 14e 0 sourceCode
FUNC 3d040 e7 0 copyCodeWithoutBOMs
FUNC 3d130 141 0 setCode
FUNC 3d280 64a 0 scanRegExp
FUNC 3d8d0 31ba 0 lex
FUNC 40a90 8 0 setLoc
FUNC 40e90 21 0 singleStatement
FUNC 40ec0 99 0 create
FUNC 40f60 99 0 create
FUNC 41000 120 0 finishParsing
FUNC 41120 60 0 create
FUNC 41180 b8 0 create
FUNC 41240 19e 0 finishParsing
FUNC 41470 86 0 append
FUNC 41500 38 0 contains
FUNC 41540 e 0 last
FUNC 41550 31 0 isEmpty
FUNC 41590 f2 0 derefWithArena
FUNC 41690 11 0 removeLast
FUNC 41780 a0 0 operator new
FUNC 41ad0 27b 0 reset
FUNC 41d50 95 0 allocateFreeablePool
FUNC 41df0 42 0 operator new
FUNC 41e40 110 0 parse
FUNC 41f50 2e 0 didFinishParsing
FUNC 41f80 a5 0 forEach
FUNC 42030 69 0 focus
FUNC 420a0 67 0 exclude
FUNC 42110 29 0 restoreAll
FUNC 430f0 3b 0 create
FUNC 43130 9 0 title
FUNC 43140 7d 0 removeProfileStart
FUNC 431c0 8d 0 removeProfileEnd
FUNC 43250 71b 0 willExecute
FUNC 43970 d7e 0 didExecute
FUNC 446f0 e96 0 addParentForConsoleStart
FUNC 464d0 45 0 create
FUNC 46520 dcb 0 stopProfiling
FUNC 472f0 4f 0 getCount
FUNC 474e0 1a1 0 findChild
FUNC 47690 35 0 traverseNextNodePostOrder
FUNC 47700 6a 0 setTreeVisible
FUNC 47770 4f 0 calculateVisibleTotalTime
FUNC 477c0 1a1 0 focus
FUNC 47970 1a1 0 exclude
FUNC 47b20 19 0 restore
FUNC 47b40 3d 0 endAndRecordCall
FUNC 47b80 17 0 didExecute
FUNC 47ba0 6c 0 stopProfiling
FUNC 47ca0 7d0 0 removeChild
FUNC 48470 82f 0 willExecute
FUNC 48ca0 62d 0 addChild
FUNC 492d0 14c9 0 insertNode
FUNC 4a7a0 43 0 profiler
FUNC 4a7f0 326 0 createCallIdentifier
FUNC 4ab20 134 0 willExecute
FUNC 4ac60 e2 0 willExecute
FUNC 4ad50 134 0 didExecute
FUNC 4ae90 e2 0 didExecute
FUNC 4af80 a11 0 stopProfiling
FUNC 4b9a0 b68 0 startProfiling
FUNC 4c510 2d 0 getSlice
FUNC 4c540 147 0 markLists
FUNC 4c690 1ed 0 slowAppend
FUNC 4c880 150 0 getOwnPropertyDescriptor
FUNC 4c9d0 11a 0 deleteProperty
FUNC 4caf0 33d 0 markChildren
FUNC 4cf40 16a 0 getOwnPropertyNames
FUNC 4d0b0 16a 0 deleteProperty
FUNC 4d220 145 0 put
FUNC 4d6f0 343 0 getOwnPropertySlot
FUNC 4da40 3ae 0 put
FUNC 4ddf0 92d 0 copyToRegisters
FUNC 4e720 a6b 0 fillArgList
FUNC 4f190 14 0 getConstructData
FUNC 4f1b0 10 0 getCallData
FUNC 4f1c0 6a 0 arrayConstructorIsArray
FUNC 4f230 246 0 callArrayConstructor
FUNC 4f480 246 0 constructWithArrayConstructor
FUNC 4f9f0 166 0 getProperty
FUNC 4fb60 71a 0 arrayProtoFuncConcat
FUNC 50280 619 0 arrayProtoFuncPop
FUNC 508a0 654 0 arrayProtoFuncShift
FUNC 50f00 4b4 0 arrayProtoFuncPush
FUNC 513c0 659 0 arrayProtoFuncLastIndexOf
FUNC 51a20 5d0 0 arrayProtoFuncSlice
FUNC 51ff0 6da 0 arrayProtoFuncIndexOf
FUNC 526d0 4d3 0 arrayProtoFuncUnShift
FUNC 52bb0 428 0 arrayProtoFuncReverse
FUNC 52fe0 62e 0 arrayProtoFuncSplice
FUNC 53680 1070 0 arrayProtoFuncToLocaleString
FUNC 546f0 ccf 0 arrayProtoFuncJoin
FUNC 553c0 1050 0 arrayProtoFuncToString
FUNC 56410 b90 0 arrayProtoFuncSome
FUNC 56fa0 b0d 0 arrayProtoFuncForEach
FUNC 57ab0 1386 0 arrayProtoFuncSort
FUNC 58e40 9e8 0 arrayProtoFuncMap
FUNC 59830 b2b 0 arrayProtoFuncFilter
FUNC 5a360 905 0 arrayProtoFuncReduce
FUNC 5ac70 8d1 0 arrayProtoFuncReduceRight
FUNC 5b550 c92 0 arrayProtoFuncEvery
FUNC 5c1f0 c4 0 getOwnPropertySlot
FUNC 5c2c0 132 0 getOwnPropertyDescriptor
FUNC 5c400 14 0 getConstructData
FUNC 5c420 10 0 getCallData
FUNC 5c430 aa 0 callBooleanConstructor
FUNC 5c6d0 171 0 constructBoolean
FUNC 5c850 8 0 constructWithBooleanConstructor
FUNC 5c860 b2 0 constructBooleanFromImmediateBoolean
FUNC 5ca70 433 0 booleanProtoFuncToString
FUNC 5d0b0 d1 0 operator()
FUNC 5d190 43 0 call
FUNC 5d1f0 110 0 allocateBlock
FUNC 5d370 a 0 freeBlockPtr
FUNC 5d380 b1 0 freeBlock
FUNC 5d470 c1 0 shrinkBlocks
FUNC 5d540 1 0 registerThread
FUNC 5d550 1b4 0 markConservatively
FUNC 5d710 21 0 markCurrentThreadConservativelyInternal
FUNC 5d740 39 0 markCurrentThreadConservatively
FUNC 5d790 144 0 markProtectedObjects
FUNC 5d8e0 5f 0 clearMarkBits
FUNC 5d980 15a 0 markedCells
FUNC 5dae0 11e 0 resizeBlocks
FUNC 5dc00 119 0 sweep
FUNC 5dd20 23a 0 markRoots
FUNC 5df60 77 0 recordExtraCost
FUNC 5dfe0 c0 0 allocate
FUNC 5e0a0 35 0 objectCount
FUNC 5e0e0 36 0 addToStatistics
FUNC 5e120 2b 0 statistics
FUNC 5e150 27 0 globalObjectCount
FUNC 5e180 102 0 protectedGlobalObjectCount
FUNC 5e290 5 0 protectedObjectCount
FUNC 5e2a0 9 0 isBusy
FUNC 5e2f0 57 0 collectAllGarbage
FUNC 5e350 a5 0 primaryHeapBegin
FUNC 5e400 17 0 primaryHeapEnd
FUNC 5e420 2b5 0 freeBlocks
FUNC 5e6e0 77 0 destroy
FUNC 5e760 1df 0 protect
FUNC 5e940 9d 0 unprotect
FUNC 5e9e0 433 0 protectedObjectTypeCounts
FUNC 5f4e0 e1 0 checkSyntax
FUNC 5f5d0 23c 0 evaluate
FUNC 5f810 cc 0 operator()
FUNC 5f8e0 2d 0 construct
FUNC 5f910 14 0 getConstructData
FUNC 5f930 10 0 getCallData
FUNC 5f940 b6 0 dateNow
FUNC 5fa00 4d5 0 dateParse
FUNC 5fee0 ae8 0 dateUTC
FUNC 60dd0 cd7 0 constructDate
FUNC 61ab0 8 0 constructWithDateConstructor
FUNC 61ac0 1b2 0 callDate
FUNC 61cb0 167 0 parseDate
FUNC 61e20 81 0 formatDate
FUNC 61eb0 81 0 formatDateUTCVariant
FUNC 61f40 ff 0 formatTime
FUNC 62040 32 0 formatTimeUTC
FUNC 62340 2ee 0 calculateGregorianDateTime
FUNC 62630 30e 0 calculateGregorianDateTimeUTC
FUNC 62940 6d 0 dateProtoFuncGetTime
FUNC 629b0 1d 0 snprintf
FUNC 629d0 3f8 0 dateProtoFuncToJSON
FUNC 62dd0 132 0 getOwnPropertyDescriptor
FUNC 637c0 2bc 0 getOwnPropertySlot
FUNC 63a80 171 0 dateProtoFuncSetTime
FUNC 649d0 9a 0 dateProtoFuncToLocaleTimeString
FUNC 64a70 9a 0 dateProtoFuncToLocaleDateString
FUNC 64b10 97 0 dateProtoFuncToLocaleString
FUNC 64bb0 407 0 dateProtoFuncToISOString
FUNC 64fc0 192 0 dateProtoFuncGetTimezoneOffset
FUNC 65160 33d 0 dateProtoFuncToTimeString
FUNC 654a0 33d 0 dateProtoFuncToDateString
FUNC 657e0 1cc 0 dateProtoFuncGetMilliSeconds
FUNC 659c0 8bb 0 setNewValueFromDateArgs
FUNC 66280 22 0 dateProtoFuncSetUTCFullYear
FUNC 662b0 22 0 dateProtoFuncSetFullYear
FUNC 662e0 22 0 dateProtoFuncSetUTCMonth
FUNC 66310 22 0 dateProtoFuncSetMonth
FUNC 66340 22 0 dateProtoFuncSetUTCDate
FUNC 66370 22 0 dateProtoFuncSetDate
FUNC 663a0 52c 0 dateProtoFuncSetYear
FUNC 668d0 9b8 0 setNewValueFromTimeArgs
FUNC 67290 22 0 dateProtoFuncSetUTCHours
FUNC 672c0 22 0 dateProtoFuncSetHours
FUNC 672f0 22 0 dateProtoFuncSetUTCMinutes
FUNC 67320 22 0 dateProtoFuncSetMinutes
FUNC 67350 22 0 dateProtoFuncSetUTCSeconds
FUNC 67380 22 0 dateProtoFuncSetSeconds
FUNC 673b0 22 0 dateProtoFuncSetUTCMilliseconds
FUNC 673e0 22 0 dateProtoFuncSetMilliSeconds
FUNC 67480 38d 0 dateProtoFuncToGMTString
FUNC 67820 38d 0 dateProtoFuncToString
FUNC 67bb0 14 0 getConstructData
FUNC 67bd0 10 0 getCallData
FUNC 67dd0 938 0 constructError
FUNC 68710 8 0 constructWithErrorConstructor
FUNC 68720 11 0 callErrorConstructor
FUNC 68740 13 0 throwError
FUNC 68760 9f3 0 create
FUNC 69160 d1 0 create
FUNC 69240 dc 0 throwError
FUNC 69320 8c 0 throwError
FUNC 693b0 dc 0 throwError
FUNC 69490 36 0 throwError
FUNC 69940 1970 0 errorProtoFuncToString
FUNC 6b2b0 d1 0 createError
FUNC 6b390 3c 0 createInterruptedExecutionException
FUNC 6b3d0 11 0 createStackOverflowError
FUNC 6b3f0 d 0 createTypeError
FUNC 6b400 54 0 createNotAnObjectErrorStub
FUNC 6b460 2ba 0 createUndefinedVariableError
FUNC 6c740 345 0 createNotAConstructorError
FUNC 6ca90 2da 0 createNotAFunctionError
FUNC 6cd70 2ea 0 createInvalidParamError
FUNC 6d060 345 0 createNotAnObjectError
FUNC 6d4d0 11 0 markAggregate
FUNC 6d4f0 2c 0 recompile
FUNC 6d520 139 0 checkSyntax
FUNC 6d660 1ac 0 fromGlobalCode
FUNC 6d910 435 0 paramString
FUNC 6dd50 bfb 0 compile
FUNC 6e950 afb 0 reparseExceptionInfo
FUNC 6f450 bc8 0 reparseExceptionInfo
FUNC 70020 b99 0 compile
FUNC 70bc0 bcb 0 compile
FUNC 71790 14 0 getConstructData
FUNC 717b0 10 0 getCallData
FUNC 71990 1949 0 constructFunction
FUNC 732e0 dd 0 constructFunction
FUNC 733c0 8 0 constructWithFunctionConstructor
FUNC 733d0 11 0 callFunctionConstructor
FUNC 733f0 6 0 callFunctionPrototype
FUNC 73400 10 0 getCallData
FUNC 73410 b6 0 functionProtoFuncCall
FUNC 735d0 239 0 addFunctionProperties
FUNC 73810 868 0 functionProtoFuncToString
FUNC 74080 a1c 0 functionProtoFuncApply
FUNC 74aa0 6 0 isGetterSetter
FUNC 74ab0 198 0 markChildren
FUNC 74c50 d8 0 markChildren
FUNC 74f70 43 0 createIdentifierTable
FUNC 75090 2f 0 createIdentifierTableSpecific
FUNC 750c0 c6 0 deleteIdentifierTable
FUNC 75190 18e 0 addSlowCase
FUNC 75320 4d3 0 add
FUNC 75800 1e 0 add
FUNC 75820 1e 0 addSlowCase
FUNC 75840 144 0 remove
FUNC 75990 7c4 0 add
FUNC 76160 1e 0 add
FUNC 76180 2d 0 initializeThreading
FUNC 761b0 8 0 classInfo
FUNC 767e0 19d 0 displayName
FUNC 76980 9c 0 calculatedDisplayName
FUNC 76a20 9 0 toThisObject
FUNC 76a30 f 0 isDynamicScope
FUNC 76a40 23 0 deleteProperty
FUNC 76a70 3c7 0 argumentsGetter
FUNC 76e40 1a8 0 markChildren
FUNC 77190 15b 0 putWithAttributes
FUNC 772f0 44a 0 put
FUNC 777c0 8 0 getArgumentsGetter
FUNC 77a30 d 0 compareByStringPairForQSort
FUNC 77ad0 fa 0 compareNumbersForQSort
FUNC 77cb0 3f7 0 markChildren
FUNC 780b0 2d3 0 getOwnPropertyNames
FUNC 785c0 de 0 increaseVectorLength
FUNC 786a0 286 0 fillArgList
FUNC 78930 1f6 0 copyToRegisters
FUNC 78b30 23c 0 compactForSorting
FUNC 78d70 693 0 sort
FUNC 79410 9 0 lazyCreationData
FUNC 79420 9 0 setLazyCreationData
FUNC 79430 47f 0 getOwnPropertySlot
FUNC 79ca0 8f0 0 putSlowCase
FUNC 7a590 45 0 put
FUNC 7a5e0 9e 0 push
FUNC 7a830 de 0 pop
FUNC 7a910 19d 0 setLength
FUNC 7aab0 278 0 put
FUNC 7ad30 7f8 0 sort
FUNC 7b530 c2 0 sortNumeric
FUNC 7b600 8f 0 getOwnPropertyDescriptor
FUNC 7b690 13f 0 put
FUNC 7b7d0 fd 0 put
FUNC 7b8d0 110 0 getOwnPropertyNames
FUNC 7bce0 253 0 getOwnPropertySlot
FUNC 7c310 47 0 createStructure
FUNC 7c360 3 0 getUInt32
FUNC 7c370 3 0 getCallData
FUNC 7c380 3 0 getConstructData
FUNC 7c390 42 0 put
FUNC 7c3e0 36 0 put
FUNC 7c420 2e 0 deleteProperty
FUNC 7c450 2e 0 deleteProperty
FUNC 7c480 7 0 toThisObject
FUNC 7c490 35 0 toThisString
FUNC 7c4d0 3 0 classInfo
FUNC 7c4e0 3 0 getJSNumber
FUNC 7c500 3 0 toPrimitive
FUNC 7c510 3 0 getPrimitiveNumber
FUNC 7c520 5 0 toNumber
FUNC 7c530 1a 0 toString
FUNC 7c550 3 0 toObject
FUNC 7c830 1dd 0 toThisJSString
FUNC 7ca10 76 0 getString
FUNC 7ca90 67 0 getString
FUNC 7cb00 15 0 getObject
FUNC 7cb30 2d 0 getCallData
FUNC 7cb60 20 0 getConstructData
FUNC 7cb80 105 0 markChildren
FUNC 7cc90 1b 0 argumentsGetter
FUNC 7ccb0 1b 0 callerGetter
FUNC 7ccd0 17b 0 getOwnPropertyDescriptor
FUNC 7ce50 c7 0 getOwnPropertyNames
FUNC 7cf20 41 0 put
FUNC 7cfb0 7b 0 lengthGetter
FUNC 7ddb0 d 0 isHostFunctionNonInline
FUNC 7df50 94 0 call
FUNC 7dff0 37c 0 construct
FUNC 7e370 1f8 0 storeVPtrs
FUNC 7ec00 2d 0 createNonDefault
FUNC 7ec30 18e 0 create
FUNC 7edc0 2f 0 createLeaked
FUNC 7edf0 c 0 sharedInstanceExists
FUNC 7ee00 42 0 sharedInstance
FUNC 7ee80 101 0 resetDateCache
FUNC 7ef90 c 0 startSampling
FUNC 7efa0 c 0 stopSampling
FUNC 7efb0 c 0 dumpSampleData
FUNC 7efc0 2bf 0 numericCompareFunction
FUNC 7f930 6 0 isDynamicScope
FUNC 7f940 af 0 defineSetter
FUNC 7f9f0 af 0 defineGetter
FUNC 7faa0 d5 0 put
FUNC 7fb80 377 0 putWithAttributes
FUNC 801a0 2332 0 markChildren
FUNC 824e0 d7 0 resetPrototype
FUNC 825c0 aa 0 copyGlobalsFrom
FUNC 82670 97 0 copyGlobalsTo
FUNC 82710 12 0 operator new
FUNC 82730 3ca 0 destroyJSGlobalObjectData
FUNC 82b00 4f5d 0 reset
FUNC 87a60 215 0 init
FUNC 87c80 22 0 sprintf
FUNC 87d60 b6 0 parseIntOverflow
FUNC 87e20 2e6 0 parseInt
FUNC 88110 47d 0 globalFuncEval
FUNC 88590 6fd 0 globalFuncParseInt
FUNC 88c90 567 0 globalFuncParseFloat
FUNC 89200 9b 0 globalFuncIsNaN
FUNC 892a0 c2 0 globalFuncIsFinite
FUNC 89370 a35 0 globalFuncEscape
FUNC 89db0 a8f 0 globalFuncUnescape
FUNC 8b380 f 0 globalFuncDecodeURIComponent
FUNC 8b390 f 0 globalFuncDecodeURI
FUNC 8b3a0 9c5 0 encode
FUNC 8bd70 f 0 globalFuncEncodeURI
FUNC 8bd80 f 0 globalFuncEncodeURIComponent
FUNC 8bda0 6 0 lockCount
FUNC 8bdb0 6 0 currentThreadIsHoldingLock
FUNC 8be30 5 0 toPrimitive
FUNC 8be40 3 0 getPrimitiveNumber
FUNC 8be50 3 0 toBoolean
FUNC 8be60 c 0 toNumber
FUNC 8be70 5 0 toObject
FUNC 8be80 3 0 getOwnPropertySlot
FUNC 8be90 1 0 put
FUNC 8bea0 1 0 put
FUNC 8beb0 3 0 deleteProperty
FUNC 8bec0 3 0 deleteProperty
FUNC 8bed0 1 0 getOwnPropertyNames
FUNC 8bee0 1d 0 toString
FUNC 8bf00 d8 0 markChildren
FUNC 8bfe0 3 0 jsNumberCell
FUNC 8bff0 7e 0 getPropertyNames
FUNC 8c070 6 0 toBoolean
FUNC 8c080 4 0 toObject
FUNC 8c0a0 48 0 className
FUNC 8c0f0 df 0 getPrimitiveNumber
FUNC 8c1d0 e9 0 getOwnPropertyNames
FUNC 8c2c0 76 0 getOwnPropertyDescriptor
FUNC 8c540 1db 0 markChildren
FUNC 8c720 d7 0 toNumber
FUNC 8c800 e7 0 deleteProperty
FUNC 8c8f0 f9 0 getOwnPropertySlot
FUNC 8c9f0 f5 0 putWithAttributes
FUNC 8caf0 105 0 put
FUNC 8cc00 14a 0 lookupSetter
FUNC 8cd50 14a 0 lookupGetter
FUNC 8cea0 408 0 toString
FUNC 8d2b0 4e0 0 putWithAttributes
FUNC 8d790 5e5 0 putWithAttributes
FUNC 8dd80 694 0 defineSetter
FUNC 8e420 694 0 defineGetter
FUNC 8eac0 df9 0 defineOwnProperty
FUNC 8f8c0 78 0 hasProperty
FUNC 8f940 32 0 hasOwnProperty
FUNC 8f980 c3 0 findPropertyHashEntry
FUNC 8fa50 58 0 propertyIsEnumerable
FUNC 8fab0 24 0 getPropertySpecificValue
FUNC 8fae0 a5 0 removeDirect
FUNC 8fc20 530 0 putDirectFunction
FUNC 90150 161 0 putDirectFunctionWithoutTransition
FUNC 902c0 40 0 fillGetterPropertySlot
FUNC 90300 1d9 0 hasProperty
FUNC 904e0 c71 0 defaultValue
FUNC 91160 7f 0 createInheritorID
FUNC 91290 5b 0 getPropertyDescriptor
FUNC 912f0 e72 0 put
FUNC 92170 132 0 getOwnPropertyDescriptor
FUNC 92370 2bc 0 getOwnPropertySlot
FUNC 92630 1ab 0 value
FUNC 938f0 11e 0 markAggregate
FUNC 93a10 e 0 markStringifiers
FUNC 93a20 5d9 0 appendQuotedString
FUNC 941c0 1011 0 appendStringifiedValue
FUNC 951e0 801 0 stringify
FUNC 95a90 111a 0 appendNextProperty
FUNC 96bb0 174d 0 walk
FUNC 98a40 c4 0 markChildren
FUNC 98b10 6ac 0 create
FUNC 991c0 23e 0 get
FUNC 99400 9 0 toThisObject
FUNC 99410 3 0 isDynamicScope
FUNC 99420 f8 0 putWithAttributes
FUNC 99520 da 0 markChildren
FUNC 99750 99 0 put
FUNC 997f0 4 0 toPrimitive
FUNC 99800 9 0 toBoolean
FUNC 99810 4 0 toThisJSString
FUNC 99820 84 0 toObject
FUNC 998b0 185 0 destructNonRecursive
FUNC 99a50 41f 0 resolveRope
FUNC 99e70 37 0 getPrimitiveNumber
FUNC 99eb0 33 0 toNumber
FUNC 99ef0 3d 0 toString
FUNC 9a8e0 be 0 toObjectSlowCase
FUNC 9a9a0 3d 0 toThisObjectSlowCase
FUNC 9a9e0 bf 0 synthesizeObject
FUNC 9aaa0 d2 0 synthesizePrototype
FUNC 9ab80 da 0 toInt32SlowCase
FUNC 9ac60 b1 0 toUInt32SlowCase
FUNC 9ad20 9 0 nonInlineNaN
FUNC 9ad30 dd 0 toInteger
FUNC 9ae10 10d 0 toIntegerPreserveNaN
FUNC 9af20 6 0 isVariableObject
FUNC 9af30 e9 0 symbolTableGet
FUNC 9b020 8a 0 deleteProperty
FUNC 9b0b0 145 0 getOwnPropertyNames
FUNC 9b200 e5 0 markChildren
FUNC 9b2f0 328 0 lexNumber
FUNC 9b620 c8f 0 lex
FUNC 9c2b0 1044 0 parse
FUNC 9d300 132 0 createTable
FUNC 9d440 8b 0 deleteTable
FUNC 9d4d0 648 0 setUpStaticFunctionSlot
FUNC 9db20 22 0 initializePagesize
FUNC 9db50 18 0 allocateStack
FUNC 9db70 f 0 releaseStack
FUNC 9db80 87 0 compact
FUNC 9dc10 52 0 mathProtoFuncRandom
FUNC 9dc70 132 0 getOwnPropertyDescriptor
FUNC 9ddb0 2bc 0 getOwnPropertySlot
FUNC 9e070 18e 0 mathProtoFuncMin
FUNC 9e200 19e 0 mathProtoFuncMax
FUNC 9e3a0 a8 0 mathProtoFuncACos
FUNC 9e450 a8 0 mathProtoFuncASin
FUNC 9e500 10a 0 mathProtoFuncCos
FUNC 9e610 a8 0 mathProtoFuncLog
FUNC 9e6c0 a8 0 mathProtoFuncExp
FUNC 9e770 10a 0 mathProtoFuncATan
FUNC 9e880 e4 0 mathProtoFuncSqrt
FUNC 9e970 10a 0 mathProtoFuncTan
FUNC 9ea80 10a 0 mathProtoFuncSin
FUNC 9eb90 f9 0 mathProtoFuncAbs
FUNC 9ec90 153 0 mathProtoFuncCeil
FUNC 9edf0 163 0 mathProtoFuncFloor
FUNC 9ef60 1b0 0 mathProtoFuncATan2
FUNC 9f2a0 36d 0 mathProtoFuncPow
FUNC 9fbd0 14 0 getConstructData
FUNC 9fbf0 10 0 getCallData
FUNC a0590 928 0 construct
FUNC a0ec0 e 0 constructWithNativeErrorConstructor
FUNC a0ed0 1a 0 callNativeErrorConstructor
FUNC a1900 14 0 getConstructData
FUNC a1920 10 0 getCallData
FUNC a1930 101 0 getOwnPropertyDescriptor
FUNC a1a40 b 0 numberConstructorMinValue
FUNC a1a50 b 0 numberConstructorMaxValue
FUNC a1a60 25e 0 getOwnPropertySlot
FUNC a1cc0 52 0 numberConstructorNaNValue
FUNC a1d20 52 0 numberConstructorPosInfinity
FUNC a1d80 60 0 numberConstructorNegInfinity
FUNC a1de0 124 0 callNumberConstructor
FUNC a1f10 1c9 0 constructWithNumberConstructor
FUNC a22a0 5 0 getJSNumber
FUNC a2370 b2 0 constructNumber
FUNC a2bd0 b72 0 numberProtoFuncToExponential
FUNC a3750 c50 0 numberProtoFuncToString
FUNC a4880 53a 0 integerPartNoExp
FUNC a4dc0 1788 0 numberProtoFuncToPrecision
FUNC a6550 fce 0 numberProtoFuncToFixed
FUNC a7520 14 0 getConstructData
FUNC a7540 10 0 getCallData
FUNC a7550 49 0 objectConstructorGetPrototypeOf
FUNC a75a0 c0 0 callObjectConstructor
FUNC a7660 c0 0 constructWithObjectConstructor
FUNC a7df0 1501 0 toPropertyDescriptor
FUNC a9300 65f 0 objectConstructorDefineProperty
FUNC a9960 1734 0 objectConstructorGetOwnPropertyDescriptor
FUNC ab730 9cb 0 defineProperties
FUNC ac2f0 15 0 getOwnPropertySlot
FUNC ac360 3f 0 objectProtoFuncValueOf
FUNC ac3a0 9b 0 objectProtoFuncIsPrototypeOf
FUNC ac440 5d5 0 objectProtoFuncDefineSetter
FUNC aca20 565 0 objectProtoFuncPropertyIsEnumerable
FUNC acf90 565 0 objectProtoFuncHasOwnProperty
FUNC ad500 595 0 objectProtoFuncLookupGetter
FUNC adaa0 595 0 objectProtoFuncLookupSetter
FUNC ae040 576 0 objectProtoFuncToLocaleString
FUNC ae5c0 5d5 0 objectProtoFuncDefineGetter
FUNC af2b0 192 0 objectProtoFuncToString
FUNC af450 5af 0 equalSlowCase
FUNC afa00 110 0 strictEqualSlowCase
FUNC afb10 2b 0 throwOutOfMemoryError
FUNC afb40 10c6 0 jsAddSlowCase
FUNC b0c10 631 0 jsTypeStringForValue
FUNC b1250 59 0 jsIsObjectType
FUNC b12b0 39 0 jsIsFunctionType
FUNC b12f0 c 0 writable
FUNC b1300 d 0 enumerable
FUNC b1310 d 0 configurable
FUNC b1340 26 0 isGenericDescriptor
FUNC b1390 f 0 setUndefined
FUNC b13a0 5 0 getter
FUNC b13b0 5 0 setter
FUNC b13c0 3b 0 setDescriptor
FUNC b1400 18 0 setAccessorDescriptor
FUNC b1420 1b 0 setWritable
FUNC b1440 1b 0 setEnumerable
FUNC b1460 1b 0 setConfigurable
FUNC b1480 11 0 setSetter
FUNC b14a0 11 0 setGetter
FUNC b14c0 3f 0 attributesEqual
FUNC b1500 616 0 equalTo
FUNC b1b20 4a 0 attributesWithOverride
FUNC b1b70 1be 0 add
FUNC b1d30 d4 0 functionGetter
FUNC b1e10 d 0 getCallData
FUNC b2630 20 0 regExpConstructorMultiline
FUNC b2650 a9 0 setRegExpConstructorMultiline
FUNC b2700 14 0 getConstructData
FUNC b2720 10 0 getCallData
FUNC b2730 101 0 getOwnPropertyDescriptor
FUNC b2880 16e 0 regExpConstructorInput
FUNC b29f0 25e 0 getOwnPropertySlot
FUNC b2d50 4f7 0 setRegExpConstructorInput
FUNC b3250 532 0 put
FUNC b39e0 21f 0 getBackref
FUNC b3c00 12 0 regExpConstructorDollar9
FUNC b3c20 12 0 regExpConstructorDollar8
FUNC b3c40 12 0 regExpConstructorDollar7
FUNC b3c60 12 0 regExpConstructorDollar6
FUNC b3c80 12 0 regExpConstructorDollar5
FUNC b3ca0 12 0 regExpConstructorDollar4
FUNC b3cc0 12 0 regExpConstructorDollar3
FUNC b3ce0 12 0 regExpConstructorDollar2
FUNC b3d00 12 0 regExpConstructorDollar1
FUNC b3d20 f 0 regExpConstructorLastMatch
FUNC b3d30 21f 0 getLastParen
FUNC b3f50 c 0 regExpConstructorLastParen
FUNC b4170 c 0 regExpConstructorLeftContext
FUNC b4390 c 0 regExpConstructorRightContext
FUNC b4440 ae9 0 constructRegExp
FUNC b4f30 8 0 constructWithRegExpConstructor
FUNC b4f40 11 0 callRegExpConstructor
FUNC b5200 43 0 arrayOfMatches
FUNC b5250 56d 0 fillArrayInstance
FUNC b5870 51 0 compile
FUNC b58d0 e6 0 create
FUNC b59c0 65 0 create
FUNC b5a30 127 0 match
FUNC b5b60 21 0 regExpObjectGlobal
FUNC b5b90 21 0 regExpObjectIgnoreCase
FUNC b5bc0 21 0 regExpObjectMultiline
FUNC b5bf0 10 0 getCallData
FUNC b5c00 2c 0 setRegExpObjectLastIndex
FUNC b5c30 54 0 regExpObjectLastIndex
FUNC b5c90 101 0 getOwnPropertyDescriptor
FUNC b5da0 16e 0 regExpObjectSource
FUNC b5f10 25e 0 getOwnPropertySlot
FUNC b6330 532 0 put
FUNC b68d0 926 0 match
FUNC b7200 1b 0 test
FUNC b7270 e 0 callRegExpObject
FUNC b7280 78 0 regExpProtoFuncTest
FUNC b7300 78 0 regExpProtoFuncExec
FUNC b8110 13af 0 regExpProtoFuncToString
FUNC b94c0 4d 0 localDepth
FUNC b9650 1b7 0 markChildren
FUNC b9810 25 0 count
FUNC b9840 a8 0 createEmptyString
FUNC b98f0 105 0 createSingleCharacterString
FUNC b9a00 82 0 singleCharacterStringRep
FUNC b9a90 14 0 getConstructData
FUNC b9ab0 10 0 getCallData
FUNC b9ac0 2c5 0 stringFromCharCodeSlowCase
FUNC b9d90 25d 0 stringFromCharCode
FUNC bae80 49 0 getOwnPropertyDescriptor
FUNC baed0 21 0 put
FUNC baf70 143 0 getOwnPropertyNames
FUNC bb0c0 490 0 getOwnPropertySlot
FUNC bbf10 132 0 getOwnPropertyDescriptor
FUNC bc050 c4 0 getOwnPropertySlot
FUNC bc120 576 0 stringProtoFuncCharCodeAt
FUNC bc6a0 780 0 stringProtoFuncCharAt
FUNC bce20 52a 0 stringProtoFuncSubstr
FUNC bd350 51a 0 stringProtoFuncSlice
FUNC bd870 8a2 0 stringProtoFuncConcat
FUNC be120 b56 0 stringProtoFuncSplit
FUNC bec80 4ed 0 stringProtoFuncSubstring
FUNC bf170 595 0 stringProtoFuncLastIndexOf
FUNC bf710 5ff 0 stringProtoFuncIndexOf
FUNC bfd10 589 0 stringProtoFuncLocaleCompare
FUNC c02a0 752 0 stringProtoFuncSearch
FUNC c0a00 2db 0 stringProtoFuncTrimLeft
FUNC c1400 338 0 stringProtoFuncTrim
FUNC c1740 2d0 0 stringProtoFuncTrimRight
FUNC c1b00 1ca 0 stringProtoFuncSup
FUNC c1cd0 1ca 0 stringProtoFuncSub
FUNC c1ea0 1ca 0 stringProtoFuncStrike
FUNC c2070 1ca 0 stringProtoFuncItalics
FUNC c2240 5f6 0 stringProtoFuncFixed
FUNC c2840 1ca 0 stringProtoFuncBold
FUNC c2a10 1ca 0 stringProtoFuncBlink
FUNC c2be0 1ca 0 stringProtoFuncSmall
FUNC c2db0 1ca 0 stringProtoFuncBig
FUNC c2f80 6b5 0 stringProtoFuncAnchor
FUNC c3640 6b5 0 stringProtoFuncFontcolor
FUNC c4640 3b4 0 substituteBackreferencesSlow
FUNC c4a00 88b 0 stringProtoFuncToUpperCase
FUNC c5290 915 0 stringProtoFuncToLowerCase
FUNC c5bb0 a60 0 stringProtoFuncMatch
FUNC c6610 1ed6 0 stringProtoFuncReplace
FUNC c8720 1a 0 comparePropertyMapEntryIndices
FUNC c87d0 9 0 dumpStatistics
FUNC c8890 1be 0 addPropertyTransitionToExistingStructure
FUNC c8a50 120 0 copyPropertyTable
FUNC c8b80 129 0 hasTransition
FUNC c8cb0 b4 0 insertIntoPropertyMapHashTable
FUNC c8de0 b5 0 rehashPropertyMapHashTable
FUNC c8ec0 238 0 put
FUNC c9100 2e1 0 flattenDictionaryStructure
FUNC c93f0 21f 0 materializePropertyMap
FUNC c9610 b9 0 despecifyDictionaryFunction
FUNC c96d0 a9 0 addPropertyWithoutTransition
FUNC c9780 10f 0 get
FUNC c9890 df 0 despecifyFunction
FUNC c9970 6a 0 despecifyAllFunctions
FUNC c99e0 530 0 getPropertyNames
FUNC c9f10 104 0 changePrototypeTransition
FUNC ca020 13b 0 despecifyFunctionTransition
FUNC ca160 105 0 getterSetterTransition
FUNC ca270 114 0 toDictionaryTransition
FUNC ca3d0 210 0 remove
FUNC ca5e0 38 0 removePropertyWithoutTransition
FUNC ca620 43 0 removePropertyTransition
FUNC caaa0 1617 0 addAnonymousSlotsTransition
FUNC cc0c0 1a93 0 addPropertyTransition
FUNC cdd20 13 0 copyTimeoutValues
FUNC cdd40 22 0 sprintf
FUNC cdda0 d8 0 createRep
FUNC cdf70 b 0 adopt
FUNC cdf80 b7 0 append
FUNC ce040 4e 0 operator=
FUNC ce090 72 0 operator=
FUNC ce110 34 0 operator==
FUNC ce150 92 0 initializeUString
FUNC ce420 14d 0 createFromUTF8
FUNC ce570 105 0 from
FUNC ce680 11a 0 from
FUNC ce7a0 85 0 from
FUNC ce830 105 0 from
FUNC ce940 c9 0 from
FUNC cea10 38f 0 spliceSubstringsWithSeparators
FUNC ceda0 1da 0 replaceRange
FUNC cef80 8e 0 ascii
FUNC cf010 36 0 is8Bit
FUNC cf070 9f 0 toStrictUInt32
FUNC cf110 11b 0 find
FUNC cf230 5a 0 find
FUNC cf290 bb 0 rfind
FUNC cf350 5f 0 rfind
FUNC cf3b0 135 0 substr
FUNC cf4f0 56 0 operator==
FUNC cf550 69 0 operator<
FUNC cf5c0 69 0 operator>
FUNC cf630 7d 0 compare
FUNC cf6b0 53 0 equal
FUNC cf710 11a 0 UTF8String
FUNC cf830 49 0 makeNull
FUNC cf880 185 0 operator=
FUNC cfa10 8 0 nullRep
FUNC cfa20 b2 0 getCString
FUNC cfee0 e 0 toDouble
FUNC cff00 47 0 toUInt32
FUNC cff50 46 0 toUInt32
FUNC cffa0 61 0 baseSharedBuffer
FUNC d0010 27 0 sharedBuffer
FUNC d0120 43 0 printf_stderr_common
FUNC d0170 4e 0 WTFReportAssertionFailure
FUNC d01c0 7c 0 WTFReportAssertionFailureWithMessage
FUNC d0240 3f 0 WTFReportArgumentAssertionFailure
FUNC d0280 74 0 WTFReportFatalError
FUNC d0300 74 0 WTFReportError
FUNC d0380 66 0 WTFLog
FUNC d03f0 9e 0 WTFLogVerbose
FUNC d0490 2c 0 create
FUNC d04c0 2aa 0 currentTime
FUNC d07d0 7d 0 findMonth
FUNC d09b0 d74 0 parseDateFromNullTerminatedCharacters
FUNC d1730 27e 0 msToYear
FUNC d19b0 1f4 0 dayInYear
FUNC d1bf0 280 0 dateToDaysFrom1970
FUNC d1e70 f9 0 equivalentYearForDST
FUNC d1f70 38a 0 calculateLocalTimeOffset
FUNC d2300 136 0 localTimeOffset
FUNC d2440 a 0 initializeDates
FUNC d2450 92 0 parseDateFromNullTerminatedCharacters
FUNC d24f0 6a 0 timeClip
FUNC d2560 b0 0 gregorianDateTimeToMS
FUNC d2610 362 0 msToGregorianDateTime
FUNC d2980 95 0 parseDateFromNullTerminatedCharacters
FUNC d2a20 52 0 hi0bits
FUNC d2a80 7b 0 lo0bits
FUNC d2b00 10a 0 b2d
FUNC d2d40 44 0 i2b
FUNC d2d90 b8 0 multadd
FUNC d2e50 1e3 0 mult
FUNC d3040 2590 0 strtod
FUNC d55d0 1e56 0 dtoa
FUNC d7430 378 0 doubleToStringInJavaScriptFormat
FUNC d77b0 3f 0 fastZeroedMalloc
FUNC d77f0 58 0 fastStrDup
FUNC d7850 21 0 tryFastZeroedMalloc
FUNC d78d0 1f 0 tryFastCalloc
FUNC d78f0 2f 0 fastCalloc
FUNC d7920 5 0 fastFree
FUNC d7930 1f 0 tryFastRealloc
FUNC d7950 2f 0 fastRealloc
FUNC d7980 1 0 releaseFastMallocFreeMemory
FUNC d7990 23 0 fastMallocStatistics
FUNC d79c0 7b 0 functionQueue
FUNC d7a40 69 0 mainThreadFunctionQueueMutex
FUNC d7ab0 13 0 initializeMainThread
FUNC d7ad0 11d 0 dispatchFunctionsFromMainThread
FUNC d7bf0 18 0 setMainThreadCallbacksPaused
FUNC d7c10 129 0 callOnMainThreadAndWait
FUNC d7d40 f1 0 callOnMainThread
FUNC d7e60 1a 0 metaObject
FUNC d7e80 3f 0 _tcf_0
FUNC d7f10 1 0 initializeMainThreadPlatform
FUNC d7f20 217 0 scheduleDispatchFunctionsOnMainThread
FUNC d8140 47 0 qt_metacast
FUNC d8190 53 0 qt_metacall
FUNC d81f0 19 0 run
FUNC d8210 c 0 _tcf_1
FUNC d8220 1a 0 metaObject
FUNC d8330 11 0 lockAtomicallyInitializedStaticMutex
FUNC d8350 11 0 unlockAtomicallyInitializedStaticMutex
FUNC d8370 1 0 initializeCurrentThreadInternal
FUNC d8380 2a 0 isMainThread
FUNC d8440 d9 0 identifierByQthreadHandle
FUNC d8560 9 0 _tcf_0
FUNC d8580 c 0 tryLock
FUNC d8630 7f 0 timedWait
FUNC d86b0 a 0 signal
FUNC d86c0 a 0 broadcast
FUNC d86d0 1a9 0 establishIdentifierForThread
FUNC d8880 8a 0 initializeThreading
FUNC d8910 109 0 createThreadInternal
FUNC d8a20 2f 0 currentThread
FUNC d8a50 a0 0 clearThreadForIdentifier
FUNC d8af0 114 0 waitForThreadCompletion
FUNC d8c10 5 0 detachThread
FUNC d8c20 47 0 qt_metacast
FUNC d8c70 64 0 qt_metacall
FUNC d8ce0 9b 0 randomNumber
FUNC d8d80 5 0 weakRandomNumber
FUNC d8df0 50 0 threadEntryPoint
FUNC d8e40 64 0 createThread
FUNC d8ed0 1 0 setOrderLowerFirst
FUNC d8ee0 1e 0 userDefault
FUNC d8f00 6e 0 collate
FUNC d9000 1a3 0 decodeUTF8Sequence
FUNC d91b0 20a 0 convertUTF16ToUTF8
FUNC d93c0 36c 0 convertUTF8ToUTF16
FUNC d9730 1e0 0 makeMultNode
FUNC d9910 f2 0 makeDivNode
FUNC d9a10 11c 0 makeAddNode
FUNC d9b30 f2 0 makeSubNode
FUNC d9c30 3b4 0 makeFunctionCallNode
FUNC d9ff0 e4 0 makeGetterOrSetterPropertyNode
FUNC dac90 290 0 yysyntax_error
FUNC db030 b720 0 qtjscyyparse
FUNC e6750 e 0 name
FUNC e6760 3 0 queryProperty
FUNC e6770 3 0 propertyFlags
FUNC e6780 1 0 setProperty
FUNC e6790 3 0 newIterator
FUNC e67a0 3 0 supportsExtension
FUNC e67b0 12 0 extension
FUNC e67d0 16 0 prototype
FUNC e67f0 16 0 property
FUNC e6910 9 0 engine
FUNC e6920 3 0 id
FUNC e6930 64 0 flags
FUNC e6c00 282 0 callee
FUNC e6e90 4de 0 argumentsObject
FUNC e7370 b0 0 argument
FUNC e7420 1e0 0 parentContext
FUNC e7600 20d 0 isCalledAsConstructor
FUNC e7820 52 0 returnValue
FUNC e7880 352 0 setReturnValue
FUNC e7be0 42a 0 activationObject
FUNC e8010 6c7 0 setActivationObject
FUNC e86e0 2a0 0 thisObject
FUNC e8980 5e0 0 setThisObject
FUNC e8f60 17 0 state
FUNC e8f80 4b9 0 toString
FUNC e9440 65f 0 pushScope
FUNC e9aa0 324 0 popScope
FUNC e9dd0 64f 0 throwValue
FUNC ea420 530 0 throwError
FUNC ea950 500 0 throwError
FUNC eae50 108 0 backtrace
FUNC eaf60 384 0 scopeChain
FUNC eb550 8 0 isNull
FUNC eb560 fe 0 operator==
FUNC eb660 11 0 operator!=
FUNC eb750 65 0 operator=
FUNC eb800 2a8 0 operator<<
FUNC ec230 16c 0 operator>>
FUNC ec3a0 b 0 functionVersion
FUNC ec3b0 14 0 functionQsTranslateNoOp
FUNC ec440 1a 0 metaObject
FUNC ecaf0 1bd 0 _tcf_2
FUNC eccb0 1bd 0 _tcf_1
FUNC ed300 14c 0 MsToDateTime
FUNC ed5e0 7c 0 integerFromString
FUNC ed660 45 0 isFunction
FUNC ed6d0 80 0 getOriginalGlobalObjectProxy
FUNC ed8e0 10 0 isCollecting
FUNC ed8f0 3a 0 collectGarbage
FUNC ed930 23 0 functionGC
FUNC ed9a0 188 0 markQObjectData
FUNC edb30 1db 0 mark
FUNC edd10 9 0 mark
FUNC edd20 cd 0 convertToNativeQObject
FUNC eddf0 13 0 disposeQObject
FUNC ede10 d2 0 detachAllRegisteredScriptPrograms
FUNC ee030 2d4 0 newRegExp
FUNC ee310 147 0 newRegExp
FUNC ee460 121 0 propertyHelper
FUNC ee590 f3 0 propertyHelper
FUNC ee690 413 0 setProperty
FUNC eeab0 142 0 setProperty
FUNC eec00 143 0 propertyFlags
FUNC eed50 c3 0 toStringHandle
FUNC eee40 55 0 globalObject
FUNC eeea0 20 0 nullValue
FUNC eeee0 141 0 newFunction
FUNC ef030 56 0 newRegExp
FUNC ef090 52 0 newActivationObject
FUNC ef0f0 60 0 newRegExp
FUNC ef150 c1 0 newDate
FUNC ef220 d1 0 newDate
FUNC ef300 4e 0 canEvaluate
FUNC ef350 5 0 canEvaluate
FUNC ef360 c9 0 checkSyntax
FUNC ef430 16 0 checkSyntax
FUNC ef4c0 158 0 popContext
FUNC ef620 d6 0 popContext
FUNC ef700 64 0 hasUncaughtException
FUNC ef770 a2 0 uncaughtException
FUNC ef820 50 0 emitSignalHandlerException
FUNC ef870 ba 0 uncaughtExceptionLineNumber
FUNC ef930 a3 0 uncaughtExceptionBacktrace
FUNC ef9e0 1de 0 convertNumber
FUNC efbc0 1bd 0 convertString
FUNC efd80 9 0 collectGarbage
FUNC efd90 21 0 reportAdditionalMemoryCost
FUNC efdc0 2e 0 setProcessEventsInterval
FUNC efdf0 b 0 processEventsInterval
FUNC efe50 bf 0 abortEvaluation
FUNC eff10 ea 0 setAgent
FUNC f0010 a5 0 toStringHandle
FUNC f00c0 af 0 toObject
FUNC f0170 1a 0 objectById
FUNC f0210 16 0 state
FUNC f0230 12 0 errorLineNumber
FUNC f0250 12 0 errorColumnNumber
FUNC f0270 35 0 errorMessage
FUNC f02b0 66 0 operator=
FUNC f0320 1b4 0 isLikelyStackOverflowError
FUNC f04e0 201 0 stringProtoFuncArg
FUNC f06f0 1fa 0 functionQsTrId
FUNC f08f0 1c6 0 functionPrint
FUNC f0ac0 2bf 0 toRegExp
FUNC f0d80 1f7 0 translationContextFromUrl
FUNC f0f80 484 0 functionQsTr
FUNC f1410 4ce 0 functionQsTranslate
FUNC f18e0 87 0 newQMetaObject
FUNC f1970 67 0 newQMetaObject
FUNC f19e0 99 0 newObject
FUNC f1a80 174 0 _setupPackage__
FUNC f1c00 163 0 newFunction
FUNC f1d70 16b 0 newFunction
FUNC f1ee0 42a 0 pushContext
FUNC f2310 9e 0 pushContext
FUNC f23b0 15a 0 newObject
FUNC f2510 56a 0 installTranslatorFunctions
FUNC f2a80 c2 0 setGlobalObject
FUNC f2b50 5a 0 setGlobalObject
FUNC f2bb0 aa 0 newArray
FUNC f2c60 10c 0 arrayFromStringList
FUNC f2d70 110 0 clearExceptions
FUNC f2e80 384 0 evaluateHelper
FUNC f3210 c6 0 evaluate
FUNC f32e0 c1 0 uncaughtException
FUNC f33b0 9 0 uncaughtException
FUNC f33c0 2f1 0 stringListFromArray
FUNC f36c0 350 0 evaluate
FUNC f3a70 59 0 hasDemarshalFunction
FUNC f3ad0 c4 0 setDefaultPrototype
FUNC f3ba0 2a 0 setDefaultPrototype
FUNC f3bd0 67 0 defaultPrototype
FUNC f3c40 100 0 registerCustomType
FUNC f3d40 15a 0 newVariant
FUNC f3ea0 116 0 newVariant
FUNC f3fc0 67 0 newVariant
FUNC f4030 52 0 newVariant
FUNC f4090 1b0 0 qobjectData
FUNC f4480 6c 0 newQObject
FUNC f46c0 881 0 create
FUNC f4f50 177 0 objectFromVariantMap
FUNC f50d0 5f 0 create
FUNC f5130 10b 0 arrayFromVariantList
FUNC f52b0 a2 0 scriptConnect
FUNC f5460 78 0 scriptConnect
FUNC f54e0 89b 0 functionConnect
FUNC f5d80 4b 0 scriptDisconnect
FUNC f5dd0 83 0 scriptDisconnect
FUNC f5f60 4b 0 scriptDisconnect
FUNC f5fb0 422 0 functionDisconnect
FUNC f63e0 6a 0 q_objectDestroyed
FUNC f64e0 3d8 0 variantMapFromObject
FUNC f68c0 43f 0 toVariant
FUNC f6d00 2ec 0 variantListFromArray
FUNC f6ff0 bfa 0 convertValue
FUNC f7bf0 1c2 0 jscValueToVariant
FUNC f7dc0 61 0 convert
FUNC f7e30 ca 0 convertV2
FUNC f8540 4c 0 agentDeleted
FUNC f8590 eb 0 importedExtensions
FUNC f8680 47 0 qt_metacast
FUNC f86d0 852 0 availableExtensions
FUNC f8f30 1066 0 importExtension
FUNC f9fa0 5f 0 qt_metacall
FUNC fab20 1 0 returnEvent
FUNC facd0 251 0 exceptionThrow
FUNC faf30 14a 0 evaluateStop
FUNC fb080 169 0 functionExit
FUNC fb1f0 84 0 attach
FUNC fb280 21 0 detach
FUNC fb2e0 15 0 engine
FUNC fb300 2d0 0 exceptionCatch
FUNC fb5d0 c2 0 atStatement
FUNC fb740 1e1 0 didReachBreakpoint
FUNC fba10 1a4 0 setupPackage
FUNC fbd30 4 0 get
FUNC fbd40 49 0 detachFromEngine
FUNC fbe50 8 0 isNull
FUNC fbf00 2b5 0 operator==
FUNC fc1c0 11 0 operator!=
FUNC fc490 65 0 operator=
FUNC fc500 7f0 0 executable
FUNC fd000 13 0 isValid
FUNC fd050 2a 0 operator!=
FUNC fd080 67 0 toArrayIndex
FUNC fd0f0 44 0 toString
FUNC fd140 16 0 operator QString
FUNC fd160 23 0 qHash
FUNC fd190 18d 0 operator=
FUNC fd3a0 53 0 IsNumerical
FUNC fd4b0 324 0 ToPrimitive
FUNC fd7e0 18 0 detachFromEngine
FUNC ff490 89 0 isError
FUNC ff520 89 0 isArray
FUNC ff5b0 89 0 isDate
FUNC ff640 89 0 isRegExp
FUNC ff6d0 128 0 prototype
FUNC ff800 218 0 setPrototype
FUNC ffa20 38e 0 scope
FUNC ffdb0 18e 0 setScope
FUNC fff40 5a9 0 strictlyEquals
FUNC 1004f0 8c0 0 toString
FUNC 100db0 4b8 0 toNumber
FUNC 101270 34c 0 toBool
FUNC 1015d0 3f5 0 toInt32
FUNC 1019d0 445 0 toUInt32
FUNC 101e20 478 0 toUInt16
FUNC 1022a0 3ba 0 toInteger
FUNC 102660 1ee 0 toVariant
FUNC 102850 40 0 toObject
FUNC 102890 290 0 toDateTime
FUNC 102b20 19e 0 toRegExp
FUNC 102cc0 3b2 0 toQObject
FUNC 103080 210 0 toQMetaObject
FUNC 103290 389 0 setProperty
FUNC 103620 70f 0 property
FUNC 103d30 450 0 property
FUNC 104180 240 0 setProperty
FUNC 1043c0 551 0 property
FUNC 104920 1c3 0 setProperty
FUNC 104af0 2c0 0 propertyFlags
FUNC 104db0 5d 0 propertyFlags
FUNC 104e10 3ef 0 call
FUNC 1052b0 44 0 isString
FUNC 105300 ab 0 type
FUNC 1053b0 1b 0 isFunction
FUNC 105410 35 0 isObject
FUNC 105630 89 0 isQMetaObject
FUNC 1056f0 124 0 data
FUNC 105820 305 0 setData
FUNC 105b30 8e 0 scriptClass
FUNC 105bc0 185 0 setScriptClass
FUNC 105d50 3b 0 objectId
FUNC 105d90 4ca 0 lessThan
FUNC 106260 7eb 0 Equals
FUNC 106a50 3c8 0 equals
FUNC 106e20 177 0 instanceOf
FUNC 106fa0 34d 0 construct
FUNC 1072f0 740 0 construct
FUNC 107a30 83c 0 call
FUNC 108830 66 0 name
FUNC 1088a0 71 0 scriptName
FUNC 109650 4ea 0 operator=
FUNC 10b540 42 0 thisObject
FUNC 10b590 2f 0 argumentCount
FUNC 10b5c0 52 0 argument
FUNC 10b620 14 0 getConstructData
FUNC 10b640 14 0 getConstructData
FUNC 10b7e0 47e 0 proxyConstruct
FUNC 10bc60 3de 0 proxyCall
FUNC 10c040 41e 0 proxyCall
FUNC 10c460 42e 0 proxyConstruct
FUNC 10c9f0 3f 0 compareToObject
FUNC 10ca30 1b5 0 markChildren
FUNC 10cbf0 3c 0 getCallData
FUNC 10cc30 3c 0 getConstructData
FUNC 10cc70 4b 0 hasInstance
FUNC 10ccc0 4b 0 getOwnPropertyDescriptor
FUNC 10cd10 3f 0 deleteProperty
FUNC 10cd50 4c 0 getOwnPropertyNames
FUNC 10cda0 70 0 put
FUNC 10d100 34e 0 getOwnPropertySlot
FUNC 10d510 31 0 getCallData
FUNC 10d550 35 0 getConstructData
FUNC 10d630 26f 0 _tcf_1
FUNC 10dee0 339 0 call
FUNC 10e250 6b8 0 getOwnPropertySlot
FUNC 10e910 716 0 getOwnPropertyDescriptor
FUNC 10f030 429 0 put
FUNC 10f460 326 0 deleteProperty
FUNC 10f790 342 0 getOwnPropertyNames
FUNC 10fae0 52d 0 hasInstance
FUNC 110090 3d 0 compareToObject
FUNC 1100d0 3b7 0 variantProtoFuncValueOf
FUNC 110490 a23 0 variantProtoFuncToString
FUNC 110f00 b 0 setValue
FUNC 111180 10 0 getCallData
FUNC 111190 10 0 getCallData
FUNC 1111b0 10 0 getCallData
FUNC 1111c0 14 0 getConstructData
FUNC 1111f0 1 0 qt_static_metacall
FUNC 111230 1a 0 metaObject
FUNC 111aa0 e7 0 markChildren
FUNC 111b90 12d 0 getOwnPropertyNames
FUNC 111cc0 1db 0 markChildren
FUNC 112010 230 0 qmetaobjectProtoFuncClassName
FUNC 112240 1c6 0 indexOfMetaEnum
FUNC 112410 375 0 qobjectProtoFuncToString
FUNC 112790 1db 0 getOwnPropertyDescriptor
FUNC 112970 1be 0 qobjectProtoFuncFindChild
FUNC 112b30 203 0 getOwnPropertySlot
FUNC 112d40 1e5 0 put
FUNC 112f30 134 0 deleteProperty
FUNC 113170 27 0 metaObject
FUNC 1131c0 c3 0 mostGeneralMethod
FUNC 1132b0 8f 0 name
FUNC 1133e0 40c 0 execute
FUNC 113870 8 0 metaObject
FUNC 113880 8 0 propertyIndex
FUNC 113fa0 53 0 findWrapper
FUNC 114060 1df 0 overloadedIndexes
FUNC 114240 628 0 qobjectProtoFuncFindChildren
FUNC 114870 23a 0 addSignalHandler
FUNC 114ab0 c8 0 addSignalHandler
FUNC 114b80 2b5 0 removeSignalHandler
FUNC 114e40 13 0 removeSignalHandler
FUNC 114e60 7f3 0 execute
FUNC 115680 117 0 clearMarkBits
FUNC 1157a0 11 0 clearConnectionMarkBits
FUNC 115a90 13 0 markConnections
FUNC 115ab0 68 0 registerWrapper
FUNC 115b20 2567 0 delegateQtMethod<QScript::QtMethodCaller>
FUNC 118300 d6 0 call
FUNC 118a30 d9 0 call
FUNC 118b10 a1 0 construct
FUNC 11b0d0 ab 0 specificIndex
FUNC 11b400 47 0 qt_metacast
FUNC 11b450 47 0 qt_metacast
FUNC 11b4a0 904 0 getOwnPropertySlot
FUNC 11bdb0 941 0 getOwnPropertyDescriptor
FUNC 11c700 5c5 0 put
FUNC 11ccd0 3a7 0 deleteProperty
FUNC 11d080 5a0 0 getOwnPropertyNames
FUNC 11d620 173 0 markChildren
FUNC 11d7a0 4c 0 qt_metacall
FUNC 11d7f0 7 0 qt_metacall
FUNC 11d840 d8 0 markChildren
FUNC 11d920 25 0 put
FUNC 11d950 25 0 putWithAttributes
FUNC 11d980 25 0 deleteProperty
FUNC 11d9b0 25 0 getOwnPropertyNames
FUNC 11d9e0 25 0 defineGetter
FUNC 11da10 25 0 defineSetter
FUNC 11da40 25 0 lookupGetter
FUNC 11da70 25 0 lookupSetter
FUNC 11daa0 78f 0 getOwnPropertySlot
FUNC 11e230 4e8 0 getOwnPropertyDescriptor
FUNC 11e9e0 25 0 getOwnPropertyDescriptor
FUNC 11ea10 25 0 getOwnPropertyNames
FUNC 11ea40 178 0 putWithAttributes
FUNC 11ebc0 25 0 put
FUNC 11ebf0 25 0 put
FUNC 11ec20 25 0 deleteProperty
FUNC 11ec50 43 0 defineGetter
FUNC 11eca0 43 0 defineSetter
FUNC 11ecf0 25 0 lookupGetter
FUNC 11ed20 25 0 lookupSetter
FUNC 11ed50 20c 0 getOwnPropertySlot
FUNC 11f130 3 0 deleteProperty
FUNC 11f140 b 0 getOwnPropertyDescriptor
FUNC 11f150 d4 0 markChildren
FUNC 11f230 c5 0 getOwnPropertySlot
FUNC 11f380 b5 0 growRegisterArray
FUNC 11f650 78 0 addSymbolTableProperty
FUNC 11f6d0 128 0 putWithAttributes
FUNC 11f800 bc 0 put
FUNC 11f8d0 20 0 getCallData
FUNC 11f9a0 27c 0 call
FUNC 11fcd0 e0 0 getOwnPropertySlot
FUNC 11fdb0 20e 0 put
FUNC 11ffc0 5 0 deleteProperty
FUNC 11ffd0 1b0 0 getOwnPropertyNames
FUNC 120180 5 0 getConstructData
FUNC 120190 5 0 hasInstance
FUNC 1201a0 3 0 queryProperty
FUNC 1201b0 b 0 property
FUNC 1201c0 1 0 setProperty
FUNC 1201d0 3 0 propertyFlags
FUNC 1201e0 7 0 compare
FUNC 1201f0 e 0 propertyNames
FUNC 120200 3 0 isQObject
FUNC 120210 c 0 toQObject
FUNC 120220 1b 0 toVariant
FUNC 120fb0 139 0 toScriptValue
FUNC 121320 64 0 operator=
FUNC 121390 22 0 toString
FUNC 121400 375 0 newObject
FUNC 121780 285 0 newObjectValue
FUNC 121a10 96 0 scriptClass
FUNC 121ab0 96 0 object
FUNC 121b50 3dd 0 function
FUNC 121f30 3d7 0 property
FUNC 122310 2d1 0 functionValue
FUNC 1225f0 2d1 0 propertyValue
FUNC 1228d0 389 0 scopeChainValue
FUNC 122c60 13 0 pushCleanContext
FUNC 122c80 8 0 engine
FUNC 122c90 c 0 supportsCall
FUNC 122ca0 16 0 setSupportsCall
FUNC 122cc0 1d4 0 createPersistentIdentifier
FUNC 122ea0 1e4 0 createPersistentIdentifier
FUNC 123090 21 0 toString
FUNC 1230c0 27 0 startsWithUpper
FUNC 1230f0 6f 0 toArrayIndex
FUNC 123160 9 0 context
FUNC 123ec0 3 0 expressionCast
FUNC 123ed0 3 0 binaryExpressionCast
FUNC 123ee0 3 0 statementCast
FUNC 123ef0 4 0 expressionCast
FUNC 123f00 4 0 binaryExpressionCast
FUNC 123f10 4 0 statementCast
FUNC 123f20 5f 0 accept0
FUNC 123f80 5f 0 accept0
FUNC 123fe0 5f 0 accept0
FUNC 124040 5f 0 accept0
FUNC 1240a0 5f 0 accept0
FUNC 124100 5f 0 accept0
FUNC 124160 6b 0 accept0
FUNC 1241d0 6b 0 accept0
FUNC 124240 5f 0 accept0
FUNC 1242a0 5f 0 accept0
FUNC 124300 5f 0 accept0
FUNC 124360 5f 0 accept0
FUNC 1243c0 5f 0 accept0
FUNC 124420 6b 0 accept0
FUNC 124490 6b 0 accept0
FUNC 124500 6b 0 accept0
FUNC 124570 6b 0 accept0
FUNC 1245e0 da 0 accept0
FUNC 1246c0 da 0 accept0
FUNC 1247a0 da 0 accept0
FUNC 124880 da 0 accept0
FUNC 124960 da 0 accept0
FUNC 124a40 12a 0 accept0
FUNC 124b70 12a 0 accept0
FUNC 124ca0 be 0 accept0
FUNC 124d60 be 0 accept0
FUNC 124e20 be 0 accept0
FUNC 124ee0 be 0 accept0
FUNC 124fa0 be 0 accept0
FUNC 125060 be 0 accept0
FUNC 125120 be 0 accept0
FUNC 1251e0 be 0 accept0
FUNC 1252a0 be 0 accept0
FUNC 125360 be 0 accept0
FUNC 125420 be 0 accept0
FUNC 1254e0 be 0 accept0
FUNC 1255a0 be 0 accept0
FUNC 125660 be 0 accept0
FUNC 125720 be 0 accept0
FUNC 1257e0 be 0 accept0
FUNC 1258a0 be 0 accept0
FUNC 125960 be 0 accept0
FUNC 125a20 be 0 accept0
FUNC 125ae0 be 0 accept0
FUNC 125ba0 be 0 accept0
FUNC 125c60 be 0 accept0
FUNC 125d20 be 0 accept0
FUNC 125de0 be 0 accept0
FUNC 125ea0 be 0 accept0
FUNC 125f60 be 0 accept0
FUNC 126020 be 0 accept0
FUNC 1260e0 be 0 accept0
FUNC 1261a0 13b 0 accept0
FUNC 1262e0 13b 0 accept0
FUNC 126420 13b 0 accept0
FUNC 126560 13b 0 accept0
FUNC 1266a0 13b 0 accept0
FUNC 1267e0 13b 0 accept0
FUNC 126920 13b 0 accept0
FUNC 126a60 13b 0 accept0
FUNC 126ba0 13b 0 accept0
FUNC 126ce0 13b 0 accept0
FUNC 126e20 13b 0 accept0
FUNC 126f60 13b 0 accept0
FUNC 1270a0 13b 0 accept0
FUNC 1271e0 1ab 0 accept0
FUNC 127390 1ab 0 accept0
FUNC 127540 1ab 0 accept0
FUNC 1276f0 1ab 0 accept0
FUNC 1278a0 1ab 0 accept0
FUNC 127a50 1ab 0 accept0
FUNC 127c00 22b 0 accept0
FUNC 127e30 22b 0 accept0
FUNC 1280e0 797 0 checkSyntax
FUNC 128a00 ed 0 setCode
FUNC 128af0 7a 0 shift
FUNC 128b80 11a3 0 findReservedWord
FUNC 129de0 612 0 matchPunctuator
FUNC 12a400 76 0 singleEscape
FUNC 12a4b0 4c 0 convertHex
FUNC 12a500 a6 0 convertUnicode
FUNC 12a5b0 62 0 record8
FUNC 12a620 99 0 record16
FUNC 12a6c0 fb7 0 lex
FUNC 12b690 243 0 scanRegExp
FUNC 12b910 1 0 qt_static_metacall
FUNC 12b920 1a 0 metaObject
FUNC 12ba00 7 0 qt_metacall
FUNC 12c340 35 0 _do_global_dtors
FUNC 12c380 66 0 _do_global_ctors
FUNC 12c3f0 1f 0 _main
FUNC 12c410 d6 0 _security_init_cookie
FUNC 12c4f0 f8 0 _report_gsfailure
FUNC 12c5f0 2f 0 _dyn_tls_dtor
FUNC 12c6a0 3 0 _tlregdtor
FUNC 12c8d0 2bb 0 pei386_runtime_relocator
FUNC 12cb90 1a0 0 _mingw_SEH_error_handler
FUNC 12cd30 ec 0 _mingw_init_ehandler
FUNC 12ce20 1e7 0 gnu_exception_handler
FUNC 12d080 7f 0 __w64_mingwthr_add_key_dtor
FUNC 12d100 a0 0 __w64_mingwthr_remove_key_dtor
FUNC 12d1a0 da 0 _mingw_TLScallback
FUNC 12d310 8d 0 FindPESectionByName
FUNC 12d3a0 74 0 _mingw_GetSectionForAddress
FUNC 12d420 3e 0 _mingw_GetSectionCount
FUNC 12d460 6f 0 FindPESectionExec
FUNC 12d4d0 37 0 GetPEImageBase
FUNC 12d510 91 0 IsNonwritableInCurrentImage
FUNC 12d5b0 a6 0 _mingw_enum_import_library_names
FUNC 12d660 3 0 fpreset
FUNC 12d6b0 6 0 DllEntryPoint
FUNC 12d6c0 6 0 DllMain
FUNC 12d6d0 96 0 modf
FUNC 12d770 138 0 sqrt
FUNC 12d8b0 41 0 _mingw_vfprintf
FUNC 12d900 5c 0 _mingw_vsnprintf
FUNC 12d960 2d 0 _mingw_vsprintf
FUNC 12d990 29 0 atan2
FUNC 12d9c0 111 0 cos
FUNC 12db10 1c3 0 exp
FUNC 12dce0 33 0 fmod
FUNC 12dd20 cb 0 ldexp
FUNC 12ddf0 138 0 log
FUNC 12df30 96 0 internal_modf
FUNC 12dfd0 5ba 0 pow
FUNC 12e590 111 0 sin
FUNC 12e6f0 27e 0 _powi
FUNC 12e970 e7 0 _pformat_cvt
FUNC 12ea60 54 0 _pformat_putc
FUNC 12eac0 10b 0 _pformat_wputchars
FUNC 12ebd0 c9 0 _pformat_putchars
FUNC 12eca0 47 0 _pformat_puts
FUNC 12ecf0 9a 0 _pformat_emit_inf_or_nan
FUNC 12ed90 f8 0 _pformat_emit_radix_point
FUNC 12ee90 39e 0 _pformat_emit_float
FUNC 12f230 cf 0 _pformat_float
FUNC 12f5e0 dc 0 _pformat_emit_efloat
FUNC 12f6c0 af 0 _pformat_efloat
FUNC 12f770 1a5 0 _pformat_gfloat
FUNC 12fc70 4f4 0 _pformat_xldouble
FUNC 130170 8ff 0 _mingw_pformat
FUNC 130be0 84 0 _nrv_alloc_D2A
FUNC 130c70 1c 0 _freedtoa
FUNC 130c90 19c 0 _quorem_D2A
FUNC 130e30 15b9 0 _gdtoa
FUNC 1323f0 f3 0 _rshift_D2A
FUNC 1324f0 43 0 _trailz_D2A
FUNC 132660 f5 0 _Balloc_D2A
FUNC 1327d0 a9 0 _multadd_D2A
FUNC 1328b0 121 0 _mult_D2A
FUNC 1329e0 179 0 _pow5mult_D2A
FUNC 132b60 fe 0 _lshift_D2A
FUNC 132ca0 16d 0 _diff_D2A
FUNC 132e10 105 0 _b2d_D2A
FUNC 132f20 118 0 _d2b_D2A
FUNC 133040 23 0 _strcp_D2A
FUNC 133070 17f 0 _mbrtowc_cp
FUNC 1331f0 66 0 mbrtowc
FUNC 133260 ed 0 mbsrtowcs
FUNC 133350 58 0 mbrlen
FUNC 1333b0 28 0 strnlen
FUNC 1333e0 7f 0 _wcrtomb_cp
FUNC 133460 3f 0 wcrtomb
FUNC 1334a0 fa 0 wcsrtombs
FUNC 1335a0 21 0 wcsnlen
FUNC 133770 c8 0 register_onexit_function
FUNC 133840 6f 0 execute_onexit_table
FUNC 1338b0 1f 0 _acrt_iob_func
FUNC 133ac0 41 0 _mingw_raise_matherr
FUNC 133b10 c 0 _mingw_setusermatherr
FUNC 133b20 fc 0 matherr
FUNC 133ce0 1d6 0 qScriptValueToSequence<QList<QObject*> >
FUNC 133ec0 15b 0 qScriptValueToSequence<QList<int> >
FUNC 134020 b2 0 qScriptValueFromSequence<QList<QObject*> >
FUNC 1340e0 b2 0 qScriptValueFromSequence<QList<int> >
FUNC 1341d0 10e 0 detach_helper2
FUNC 1346e0 4f 0 deleteData
FUNC 134730 7f 0 append
FUNC 1347b0 118 0 realloc
FUNC 134990 10 0 equal
FUNC 1349a0 29 0 assign
FUNC 1349d0 e 0 advance
FUNC 1349e0 d 0 destroy
FUNC 1349f0 10 0 equal
FUNC 134a00 29 0 assign
FUNC 134a30 e 0 advance
FUNC 134a40 d 0 destroy
FUNC 134a50 10 0 equal
FUNC 134a60 29 0 assign
FUNC 134a90 e 0 advance
FUNC 134aa0 d 0 destroy
FUNC 134ab0 5 0 Destruct
FUNC 134ac0 2e 0 Construct
FUNC 134af0 5 0 Destruct
FUNC 134b00 e2 0 Construct
FUNC 134bf0 5 0 Destruct
FUNC 134c00 93 0 Construct
FUNC 134ca0 5 0 Destruct
FUNC 134cb0 93 0 Construct
FUNC 134d50 1 0 Destruct
FUNC 134e10 1 0 Destruct
FUNC 134e20 f 0 Construct
FUNC 134e30 2c 0 moveToEndImpl<QList<QScriptValue> >
FUNC 134e60 2c 0 moveToEndImpl<QList<QObject*> >
FUNC 134e90 2c 0 moveToEndImpl<QList<int> >
FUNC 134ec0 2c 0 moveToBeginImpl<QList<QScriptValue> >
FUNC 134ef0 2c 0 moveToBeginImpl<QList<QObject*> >
FUNC 134f20 2c 0 moveToBeginImpl<QList<int> >
FUNC 134f50 13 0 atImpl<QList<QScriptValue> >
FUNC 134f70 13 0 atImpl<QList<QObject*> >
FUNC 134f90 13 0 atImpl<QList<int> >
FUNC 134fb0 18 0 getImpl<QList<QScriptValue> >
FUNC 134fd0 15 0 getImpl<QList<QObject*> >
FUNC 134ff0 15 0 getImpl<QList<int> >
FUNC 135010 a 0 sizeImpl<QList<QScriptValue> >
FUNC 135020 a 0 sizeImpl<QList<QObject*> >
FUNC 135030 a 0 sizeImpl<QList<int> >
FUNC 135060 fa 0 toDateTime
FUNC 1351d0 86 0 declarativeObject
FUNC 135260 182 0 scriptValueToJSCValue
FUNC 1353f0 10d 0 scriptValueFromJSCValue
FUNC 135560 5a 0 isArray
FUNC 135640 ea 0 toInt32
FUNC 135790 fa 0 property
FUNC 1359f0 178 0 toString
FUNC 135c90 10e 0 isQObject
FUNC 135da0 80 0 isVariant
FUNC 135e20 68 0 toInteger
FUNC 135e90 1de 0 toQObject
FUNC 1360c0 fe 0 scriptLoad
FUNC 1361c0 23 0 scriptUnload
FUNC 1361f0 1 0 sourceParsed
FUNC 136200 23 0 evaluateStart
FUNC 136230 1 0 didExecuteProgram
FUNC 136240 1 0 willExecuteProgram
FUNC 136250 64 0 callEvent
FUNC 1362c0 1 0 exception
FUNC 136410 a9 0 detach_helper
FUNC 136fd0 3e 0 duplicateNode
FUNC 137010 120 0 erase
FUNC 137130 e6 0 insert
FUNC 137260 25 0 duplicateNode
FUNC 137290 c5 0 insert
FUNC 137360 13b 0 remove
FUNC 1374a0 1 0 deleteNode2
FUNC 1374b0 16 0 duplicateNode
FUNC 1374d0 109 0 remove
FUNC 1375f0 1e 0 duplicateNode
FUNC 137610 120 0 erase
FUNC 137740 16 0 duplicateNode
FUNC 137760 de 0 insert
FUNC 137840 109 0 remove
FUNC 137950 1 0 deleteNode2
FUNC 137960 1c 0 duplicateNode
FUNC 137980 141 0 insert
FUNC 137ae0 1e 0 duplicateNode
FUNC 137b00 109 0 remove
FUNC 137cc0 171 0 detach_helper_grow
FUNC 137ec0 91 0 detach_helper
FUNC 137f60 11a 0 detach_helper_grow
FUNC 138080 35 0 clear
FUNC 138160 d0 0 reserve
FUNC 138300 13b 0 detach_helper_grow
FUNC 1384c0 92 0 detach_helper
FUNC 138560 10a 0 detach_helper_grow
FUNC 138690 151 0 operator+=
FUNC 1387f0 92 0 detach_helper
FUNC 138890 11a 0 detach_helper_grow
FUNC 1389b0 85 0 detach_helper
FUNC 138a40 100 0 detach_helper_grow
FUNC 138b40 b5 0 removeOne
FUNC 138c00 f0 0 detach_helper_grow
FUNC 138d90 f0 0 detach_helper_grow
FUNC 138e80 41 0 append
FUNC 1393d0 14b 0 makeString<QTJSC::UString, char const*, QTJSC::UString>
FUNC 139520 1bd 0 makeString<QTJSC::UString, char const*, QTJSC::UString, QTJSC::UString>
FUNC 1396e0 124 0 makeString<QTJSC::UString, QTJSC::UString>
FUNC 139810 1bd 0 makeString<QTJSC::UString, QTJSC::UString, char const*, QTJSC::UString>
FUNC 1399d0 15b 0 makeString<QTJSC::UString, QTJSC::UString, QTJSC::UString>
FUNC 139b30 134 0 makeString<char const*, QTJSC::UString>
FUNC 139c70 15b 0 makeString<char const*, QTJSC::UString, char*>
FUNC 139dd0 15b 0 makeString<char const*, QTJSC::UString, char const*>
FUNC 139f30 22a 0 makeString<char const*, QTJSC::UString, char const*, QTJSC::UString, char const*>
FUNC 13a160 257 0 makeString<char const*, QTJSC::UString, char const*, QTJSC::UString, char const*, QTJSC::UString>
FUNC 13a3c0 2c9 0 makeString<char const*, QTJSC::UString, char const*, QTJSC::UString, char const*, QTJSC::UString, char const*>
FUNC 13a690 134 0 makeString<char const*, char const*>
FUNC 13a7d0 15b 0 makeString<char const*, char const*, char const*>
FUNC 13a930 15b 0 makeString<char*, char const*, char*>
FUNC 13aaf0 1ce 0 slideRegisterWindowForCall
FUNC 13c1d0 5 0 stripUnaryPlus
FUNC 13c390 4 0 stripUnaryPlus
FUNC 13c3a0 1 0 emitBytecodeInConditionContext
FUNC 13c3d0 2dc 0 getOwnPropertySlot
FUNC 13c6b0 249 0 hasOwnPropertyForWrite
FUNC 13c900 49 0 getOwnPropertyDescriptor
FUNC 13e060 33 0 getCallData
FUNC 13e0a0 249 0 hasInstance
FUNC 13e2f0 324 0 callbackGetter
FUNC 13e620 66e 0 deleteProperty
FUNC 13ec90 e7 0 deleteProperty
FUNC 13ed80 37 0 getConstructData
FUNC 13edc0 4b3 0 staticValueGetter
FUNC 13f280 ceb 0 getOwnPropertySlot
FUNC 13ff70 f9 0 getOwnPropertySlot
FUNC 140070 468 0 getOwnPropertyNames
FUNC 1404e0 861 0 staticFunctionGetter
FUNC 140d50 f6 0 getOwnPropertyDescriptor
FUNC 140e50 ccb 0 put
FUNC 141b20 3bc 0 call
FUNC 141ee0 35b 0 init
FUNC 142240 34a 0 construct
FUNC 142920 33 0 getCallData
FUNC 142960 249 0 hasInstance
FUNC 142bb0 324 0 callbackGetter
FUNC 142ee0 66e 0 deleteProperty
FUNC 143550 e7 0 deleteProperty
FUNC 143640 37 0 getConstructData
FUNC 143680 4b6 0 staticValueGetter
FUNC 143b40 c0c 0 getOwnPropertySlot
FUNC 144750 f9 0 getOwnPropertySlot
FUNC 144850 468 0 getOwnPropertyNames
FUNC 144cc0 7a7 0 staticFunctionGetter
FUNC 145470 d8 0 getOwnPropertyDescriptor
FUNC 145550 ccb 0 put
FUNC 146220 3bc 0 call
FUNC 1465e0 35b 0 init
FUNC 146940 34a 0 construct
FUNC 148ec0 3a 0 deleteProperty
FUNC 148f00 3a 0 deleteProperty
FUNC 148f40 42 0 getOwnPropertySlot
FUNC 148f90 42 0 getOwnPropertySlot
FUNC 148fe0 42 0 getOwnPropertyNames
FUNC 149030 42 0 getOwnPropertyDescriptor
FUNC 149080 50 0 put
FUNC 1490d0 42 0 put
FUNC 149290 c5 0 getOwnPropertySlot
FUNC 14a360 bd 0 setCurrentIdentifierTable
FUNC 14a530 1 0 markChildren
FUNC 14a560 123 0 parse<QTJSC::ProgramNode>
FUNC 14a690 f9 0 parse<QTJSC::FunctionBodyNode>
FUNC 14a790 123 0 parse<QTJSC::EvalNode>
FUNC 14a8c0 3ea 0 jsLess
FUNC 14ad10 1b4 0 strictEqual
FUNC 14b090 1 0 contextPop
FUNC 14b0a0 1 0 scriptLoad
FUNC 14b0b0 1 0 contextPush
FUNC 14b0c0 1 0 evaluateStop
FUNC 14b0d0 1 0 functionExit
FUNC 14b0e0 1 0 scriptUnload
FUNC 14b0f0 1 0 evaluateStart
FUNC 14b100 1 0 exceptionCatch
FUNC 14b110 1 0 exceptionThrow
FUNC 14b2c0 7 0 compareToObject
FUNC 14b9a0 20c 0 getOwnPropertySlot
FUNC 14c1e0 3ca 0 jsLessEq
FUNC 14c710 265 0 jsString
FUNC 14c980 35d 0 jsString
FUNC 14cce0 5e3 0 jsString
FUNC 14dad0 ca4 0 drain
FUNC 14e780 c8 0 append
FUNC 14ebf0 1c8 0 add
FUNC 14edc0 44b 0 set
FUNC 14f2b0 11e 0 ensureSegmentsFor
FUNC 14f420 a8 0 deleteAllPairSeconds<OpaqueJSClassContextData*, const QTWTF::HashMap<OpaqueJSClass*, OpaqueJSClassContextData*> >
FUNC 14f4d0 185 0 expandCapacity
FUNC 14f6c0 f2 0 expandCapacity
FUNC 14f7c0 31 0 expandCapacity
FUNC 14f800 4c 0 expandCapacity
FUNC 14f850 77 0 shrink
FUNC 14f8d0 143 0 expandCapacity
FUNC 14fa20 77 0 shrink
FUNC 14faa0 143 0 expandCapacity
FUNC 14fbf0 77 0 shrink
FUNC 14fc70 47 0 shrink
FUNC 14fcc0 13a 0 grow
FUNC 14fe00 e0 0 expandCapacity
FUNC 14fee0 e0 0 expandCapacity
FUNC 14ffc0 d0 0 expandCapacity
FUNC 1501d0 17a 0 operator=
FUNC 150350 111 0 shrink
FUNC 150470 102 0 expandCapacity
FUNC 150580 150 0 expandCapacity
FUNC 1506d0 102 0 expandCapacity
FUNC 1507e0 112 0 expandCapacity
FUNC 150ae0 f2 0 expandCapacity
FUNC 150be0 50 0 shrink
FUNC 150c30 216 0 expandCapacity
FUNC 150e50 100 0 expandCapacity
FUNC 150f50 59 0 expandCapacity
FUNC 150fb0 100 0 expandCapacity
FUNC 1510b0 f0 0 expandCapacity
FUNC 1511a0 59 0 expandCapacity
FUNC 151200 e0 0 expandCapacity
FUNC 1512e0 e0 0 expandCapacity
FUNC 1513c0 102 0 expandCapacity
FUNC 1514d0 143 0 expandCapacity
FUNC 151620 102 0 expandCapacity
FUNC 151730 4c 0 expandCapacity
FUNC 151780 e0 0 expandCapacity
FUNC 151860 4c 0 expandCapacity
FUNC 1518b0 d0 0 expandCapacity
FUNC 151980 f2 0 expandCapacity
FUNC 151ad0 11d 0 expandCapacity
FUNC 151bf0 d0 0 expandCapacity
FUNC 151cc0 d0 0 expandCapacity
FUNC 151d90 d0 0 expandCapacity
FUNC 151ef0 11d 0 expandCapacity
FUNC 152010 d0 0 expandCapacity
FUNC 1520e0 75 0 shrink
FUNC 152160 f2 0 expandCapacity
FUNC 152260 f2 0 expandCapacity
FUNC 152360 d0 0 expandCapacity
FUNC 152430 f2 0 expandCapacity
FUNC 152530 11d 0 expandCapacity
FUNC 152650 4c 0 expandCapacity
FUNC 1526a0 d0 0 expandCapacity
FUNC 152770 4c 0 expandCapacity
FUNC 1527c0 d0 0 expandCapacity
FUNC 152890 f2 0 expandCapacity
FUNC 152990 d0 0 expandCapacity
FUNC 152a60 f2 0 expandCapacity
FUNC 152b60 f2 0 expandCapacity
FUNC 152c60 f2 0 expandCapacity
FUNC 152d60 11d 0 expandCapacity
FUNC 152e80 4c 0 expandCapacity
FUNC 152ed0 f2 0 expandCapacity
FUNC 152fd0 f2 0 expandCapacity
FUNC 1530d0 f2 0 expandCapacity
FUNC 1531d0 6e 0 append<QTWTF::Vector<QTJSC::RegisterID, 32>*>
FUNC 153240 f2 0 expandCapacity
FUNC 1533b0 d0 0 expandCapacity
FUNC 153480 d0 0 expandCapacity
FUNC 153550 59 0 expandCapacity
FUNC 1535b0 11d 0 expandCapacity
FUNC 1536d0 6e 0 append<std::pair<int, int> >
FUNC 153740 9f 0 expandCapacity
FUNC 1537e0 c3 0 expandCapacity
FUNC 1538b0 31 0 expandCapacity
FUNC 1538f0 f7 0 fill
FUNC 153a70 f2 0 expandCapacity
FUNC 153b70 d0 0 expandCapacity
FUNC 153c40 4c 0 expandCapacity
FUNC 153c90 f2 0 expandCapacity
FUNC 153d90 c2 0 operator=
FUNC 153e60 31 0 expandCapacity
FUNC 153ea0 4c 0 expandCapacity
FUNC 153ef0 7f 0 append<wchar_t>
FUNC 153f70 d3 0 expandCapacity
FUNC 154050 a4 0 append<wchar_t>
FUNC 154100 d3 0 expandCapacity
FUNC 1541e0 4c 0 expandCapacity
FUNC 154230 7b 0 append<char>
FUNC 1542b0 a4 0 append<wchar_t>
FUNC 154360 cf8 0 insert
FUNC 155060 280 0 add
FUNC 1552e0 2b0 0 add
FUNC 155590 261 0 add
FUNC 155800 1bc 0 add
FUNC 1559c0 2b0 0 add
FUNC 155c70 2b0 0 add
FUNC 155f20 1bc 0 add
FUNC 156140 2a 0 expand
FUNC 156170 1a9 0 rehash
FUNC 156320 9d 0 deallocateTable
FUNC 1563c0 2a 0 expand
FUNC 1563f0 24d 0 rehash
FUNC 156640 6e 0 deallocateTable
FUNC 1566b0 2a 0 expand
FUNC 1566e0 27d 0 rehash
FUNC 156e30 6e 0 deallocateTable
FUNC 1570b0 bd 0 find<QTWTF::RefPtr<QTJSC::UStringImpl>, QTWTF::IdentityHashTranslator<QTWTF::RefPtr<QTJSC::UStringImpl>, std::pair<QTWTF::RefPtr<QTJSC::UStringImpl>, QTJSC::SymbolTableEntry>, QTJSC::IdentifierRepHash> >
FUNC 157170 2a 0 expand
FUNC 1571a0 15e 0 rehash
FUNC 157300 6e 0 deallocateTable
FUNC 157370 2a 0 expand
FUNC 1573a0 24d 0 rehash
FUNC 1575f0 6e 0 deallocateTable
FUNC 157660 2a 0 expand
FUNC 157690 24d 0 rehash
FUNC 1578e0 2a 0 expand
FUNC 157910 1ed 0 rehash
FUNC 157b00 2a 0 expand
FUNC 157b30 192 0 rehash
FUNC 157cd0 6f 0 deallocateTable
FUNC 157d40 10d 0 find<char const*, QTWTF::IdentityHashTranslator<char const*, std::pair<char const*, QTWTF::RefPtr<QTJSC::UStringImpl> >, QTWTF::PtrHash<char const*> > >
FUNC 157e50 2a 0 expand
FUNC 157e80 1b0 0 rehash
FUNC 158030 2a 0 expand
FUNC 158060 191 0 rehash
FUNC 158200 2a 0 expand
FUNC 158230 1da 0 rehash
FUNC 158410 2a 0 expand
FUNC 158440 17a 0 rehash
FUNC 1588b0 2a 0 expand
FUNC 1588e0 222 0 rehash
FUNC 158b10 2a 0 expand
FUNC 158b40 142 0 rehash
FUNC 158c90 10d 0 find<QTJSC::JSGlobalObject*, QTWTF::IdentityHashTranslator<QTJSC::JSGlobalObject*, QTJSC::JSGlobalObject*, QTWTF::PtrHash<QTJSC::JSGlobalObject*> > >
FUNC 158da0 2a 0 expand
FUNC 158dd0 17a 0 rehash
FUNC 158f50 2a 0 expand
FUNC 158f80 192 0 rehash
FUNC 159120 10d 0 find<QTJSC::GlobalCodeBlock*, QTWTF::IdentityHashTranslator<QTJSC::GlobalCodeBlock*, QTJSC::GlobalCodeBlock*, QTWTF::PtrHash<QTJSC::GlobalCodeBlock*> > >
FUNC 159230 2a 0 expand
FUNC 159260 17a 0 rehash
FUNC 1593e0 37 0 remove
FUNC 159420 2a 0 expand
FUNC 159450 17a 0 rehash
FUNC 1595d0 2a 0 expand
FUNC 159600 17a 0 rehash
FUNC 159780 10d 0 find<QTJSC::JSCell*, QTWTF::IdentityHashTranslator<QTJSC::JSCell*, std::pair<QTJSC::JSCell*, unsigned int>, QTWTF::PtrHash<QTJSC::JSCell*> > >
FUNC 159890 2a 0 expand
FUNC 1598c0 191 0 rehash
FUNC 159cb0 10d 0 find<QTJSC::JSObject*, QTWTF::IdentityHashTranslator<QTJSC::JSObject*, QTJSC::JSObject*, QTWTF::PtrHash<QTJSC::JSObject*> > >
FUNC 159dc0 2a 0 expand
FUNC 159df0 17a 0 rehash
FUNC 159f70 2a 0 expand
FUNC 159fa0 191 0 rehash
FUNC 15a140 6e 0 deallocateTable
FUNC 15a1b0 b6 0 find<std::pair<QTWTF::RefPtr<QTJSC::UStringImpl>, unsigned int>, QTWTF::IdentityHashTranslator<std::pair<QTWTF::RefPtr<QTJSC::UStringImpl>, unsigned int>, std::pair<std::pair<QTWTF::RefPtr<QTJSC::UStringImpl>, unsigned int>, std::pair<QTJSC::Structure*, QTJSC::Structure*> >, QTJSC::StructureTransitionTableHash> >
FUNC 15a270 2a 0 expand
FUNC 15a2a0 182 0 rehash
FUNC 15a430 2a 0 expand
FUNC 15a460 237 0 rehash
FUNC 15a6a0 dd 0 find<unsigned int, QTWTF::IdentityHashTranslator<unsigned int, std::pair<unsigned int, QTJSC::JSValue>, QTWTF::IntHash<unsigned int> > >
FUNC 15a780 2a 0 expand
FUNC 15a7b0 1bf 0 rehash
FUNC 15a970 37 0 remove
FUNC 15abf0 dd 0 find<unsigned int, QTWTF::IdentityHashTranslator<unsigned int, std::pair<unsigned int, QThread*>, QTWTF::IntHash<unsigned int> > >
FUNC 15acd0 2a 0 expand
FUNC 15ad00 170 0 rehash
FUNC 15ae70 dd 0 find<unsigned int, QTWTF::IdentityHashTranslator<unsigned int, std::pair<unsigned int, QTJSC::Structure*>, QTWTF::IntHash<unsigned int> > >
FUNC 15af50 2a 0 expand
FUNC 15af80 170 0 rehash
FUNC 15b0f0 346 0 operator()
FUNC 15b5b0 2b 0 didTimeOut
FUNC 15b910 9 0 defineGetter
FUNC 15b920 9 0 defineSetter
FUNC 15b930 9 0 lookupGetter
FUNC 15b940 9 0 lookupSetter
FUNC 15b950 29 0 markChildren
FUNC 15b980 9 0 deleteProperty
FUNC 15b990 9 0 putWithAttributes
FUNC 15b9a0 e6 0 getOwnPropertySlot
FUNC 15ba90 9 0 getOwnPropertyNames
FUNC 15baa0 49 0 getOwnPropertyDescriptor
FUNC 15baf0 9 0 put
FUNC 15cfc0 62 0 ToNumber
FUNC 15d140 78 0 operator+=
FUNC 15d1c0 231 0 reallocData
FUNC 15d400 24 0 resize
FUNC 15d570 225 0 reallocData
FUNC 15d7a0 389 0 reallocData
FUNC 15db30 b6 0 append
FUNC 15dbf0 1f0 0 append
FUNC 15de40 315 0 insert
FUNC 15e160 3ec 0 reallocData
FUNC 15e550 151 0 reallocData
FUNC 15e6b0 8d 0 append
FUNC 15f200 13c 0 convert
FUNC 15f340 8a 0 convert
FUNC 15f3d0 84 0 convert
FUNC 15f460 177 0 readArrayBasedContainer<QList<QString> >
FUNC 15f620 8 0 classInfo
FUNC 15f630 3 0 isDynamicScope
FUNC 15f640 8 0 classInfo
FUNC 15f650 be 0 toList
FUNC 15f710 66 0 findNode
FUNC 15f780 85 0 findNode
FUNC 15f810 66 0 findNode
FUNC 15f880 6e 0 findNode
FUNC 15f8f0 90 0 findNode
FUNC 15f980 90 0 findNode
FUNC 15fa10 90 0 findNode
FUNC 15faa0 7a 0 findNode
FUNC 15fb20 90 0 findNode
FUNC 15fbb0 a4 0 indexOf
FUNC 15fc60 8 0 classInfo
FUNC 15fc70 8 0 classInfo
FUNC 15fc80 8 0 classInfo
FUNC 15fc90 6 0 isPure
FUNC 15fca0 6 0 isNumber
FUNC 15fcb0 6 0 isReturnNode
FUNC 15fcc0 6 0 isPure
FUNC 15fcd0 6 0 isString
FUNC 15fce0 6 0 isPure
FUNC 15fcf0 5 0 classInfo
FUNC 15fd00 6 0 isLocation
FUNC 15fd10 6 0 isResolveNode
FUNC 15fd20 8 0 classInfo
FUNC 15fd30 6 0 isFuncExprNode
FUNC 15fd40 6 0 isActivationObject
FUNC 15fd50 8 0 classInfo
FUNC 15fd60 8 0 classInfo
FUNC 15fe50 8 0 classInfo
FUNC 15fe60 8 0 classInfo
FUNC 15fea0 6 0 hasConditionContextCodegen
FUNC 15feb0 3 0 isReturnNode
FUNC 15fec0 3 0 isExprStatement
FUNC 15fed0 3 0 isEmptyStatement
FUNC 15fee0 3 0 isBlock
FUNC 15ff00 3 0 isLocation
FUNC 15ff10 3 0 isCommaNode
FUNC 15ff20 3 0 isResolveNode
FUNC 15ff30 3 0 isSimpleArray
FUNC 15ff40 3 0 isFuncExprNode
FUNC 15ff50 3 0 isDotAccessorNode
FUNC 15ff60 3 0 isBracketAccessorNode
FUNC 15ff70 3 0 hasConditionContextCodegen
FUNC 15ff80 3 0 isAdd
FUNC 15ff90 3 0 isNull
FUNC 15ffa0 3 0 isPure
FUNC 15ffb0 3 0 isNumber
FUNC 15ffc0 3 0 isString
FUNC 15ffd0 6 0 isGlobalObject
FUNC 15ffe0 6 0 allowsAccessFrom
FUNC 15fff0 3 0 supportsProfiling
FUNC 160000 6 0 shouldInterruptScript
FUNC 160010 b 0 hasConditionContextCodegen
FUNC 160020 6 0 isLocation
FUNC 160030 6 0 isDotAccessorNode
FUNC 160040 8 0 classInfo
FUNC 160060 2de 0 toNumber
FUNC 160340 2d7 0 toString
FUNC 160620 8 0 classInfo
FUNC 160630 8b 0 className
FUNC 1606c0 2de 0 toNumber
FUNC 1609a0 2d7 0 toString
FUNC 160c80 8 0 classInfo
FUNC 160c90 8d 0 className
FUNC 160d20 6 0 isExprStatement
FUNC 160d30 8 0 classInfo
FUNC 160d40 8 0 classInfo
FUNC 160d50 6 0 isEmptyStatement
FUNC 160d60 8 0 classInfo
FUNC 160d70 6 0 isLocation
FUNC 160d80 6 0 isBracketAccessorNode
FUNC 160d90 8 0 classInfo
FUNC 160da0 8 0 data
FUNC 160dc0 1d 0 getRange
FUNC 160de0 6 0 isNotAnObjectErrorStub
FUNC 160df0 6 0 isPropertyNameIterator
FUNC 160e00 8 0 classInfo
FUNC 160e10 6 0 isWatchdogException
FUNC 160e20 1d 0 toString
FUNC 160e40 3 0 isAPIValueWrapper
FUNC 160e50 3 0 isPropertyNameIterator
FUNC 160e60 6 0 isAdd
FUNC 160e70 8 0 classInfo
FUNC 1611d0 344 0 toString
FUNC 161520 8c 0 toBoolean
FUNC 1615b0 a 0 toPrimitive
FUNC 1615c0 3 0 isGlobalObject
FUNC 1615d0 3 0 isVariableObject
FUNC 1615e0 3 0 isActivationObject
FUNC 1615f0 3 0 isWatchdogException
FUNC 161600 3 0 isNotAnObjectErrorStub
FUNC 161890 123 0 get
FUNC 1619c0 6 0 isNull
FUNC 1619d0 8 0 classInfo
FUNC 1619e0 6 0 isBlock
FUNC 1619f0 6 0 isCommaNode
FUNC 161a00 16c 0 prototypeChain
FUNC 161b70 8 0 classInfo
FUNC 161b80 1d 0 className
FUNC 161ba0 8 0 classInfo
FUNC 161bb0 8 0 classInfo
FUNC 161bc0 8 0 classInfo
FUNC 161bd0 6 0 isDynamicScope
FUNC 161be0 8 0 classInfo
FUNC 161bf0 8 0 classInfo
FUNC 161c00 1e 0 className
FUNC 161c20 63 0 operator==
FUNC 161c90 f9 0 copy
FUNC 161d90 22e 0 __adjust_heap<QList<QString>::iterator, long long int, QString, __gnu_cxx::__ops::_Iter_less_iter>
FUNC 161fc0 15f 0 __heap_select<QList<QString>::iterator, __gnu_cxx::__ops::_Iter_less_iter>
FUNC 162120 e0 0 __insertion_sort<QList<QString>::iterator, __gnu_cxx::__ops::_Iter_less_iter>
FUNC 162200 24c 0 __introsort_loop<QList<QString>::iterator, int, __gnu_cxx::__ops::_Iter_less_iter>
FUNC 162450 a5 0 __final_insertion_sort<QList<QString>::iterator, __gnu_cxx::__ops::_Iter_less_iter>
FUNC 162d80 f 0 GLOBAL__sub_I__ZN5QTWTF17MainThreadInvokerC2Ev
FUNC 162d90 f 0 GLOBAL__sub_I__ZN5QTWTF13ThreadPrivateC2EPFPvS1_ES1_
FUNC 162dd0 f 0 GLOBAL__sub_I__ZN7QScript7ToInt32Ed
FUNC 162ed0 16 0 GLOBAL__sub_I__ZN7QScript10QtFunctionC2EN5QTJSC7JSValueEibPNS1_12JSGlobalDataEN5QTWTF10PassRefPtrINS1_9StructureEEERKNS1_10IdentifierE
FUNC 162f10 f 0 GLOBAL__sub_I__ZN22QScriptExtensionPlugin18qt_static_metacallEP7QObjectN11QMetaObject4CallEiPPv
FUNC 162f20 69 0 _report_error
PUBLIC 163008 0 s_hertz
PUBLIC 16300c 0 s_flags
PUBLIC 163010 0 mainTable
PUBLIC 163030 0 arrayTable
PUBLIC 163090 0 jsonTable
PUBLIC 1630b0 0 mathTable
PUBLIC 1630f0 0 defaultAttributes
PUBLIC 163100 0 regExpConstructorTable
PUBLIC 163120 0 regExpTable
PUBLIC 163140 0 stringTable
PUBLIC 1632a0 0 staticMetaObject
PUBLIC 1632e0 0 p
PUBLIC 163310 0 c1
PUBLIC 163320 0 c0
PUBLIC 163350 0 pmem_next
PUBLIC 163360 0 _imp__execute_onexit_table
PUBLIC 163368 0 _imp__register_onexit_function
PUBLIC 163370 0 _imp__initialize_onexit_table
PUBLIC 163390 0 _imp__unlock_file
PUBLIC 163398 0 _imp__lock_file
PUBLIC 163420 0 metatype_id
PUBLIC 163440 0 instance
PUBLIC 163450 0 f
PUBLIC 163480 0 _security_cookie
PUBLIC 163490 0 _security_cookie_complement
PUBLIC 164380 0 errorTexts
PUBLIC 164580 0 escapes
PUBLIC 164790 0 maximumRepeatsFromInstructionOffset
PUBLIC 1647a8 0 minimumRepeatsFromInstructionOffset
PUBLIC 1649a0 0 jsc_pcre_utf8_table4
PUBLIC 1649e0 0 jsc_pcre_utf8_table3
PUBLIC 164a00 0 jsc_pcre_utf8_table2
PUBLIC 164a20 0 jsc_pcre_utf8_table1
PUBLIC 16a900 0 kJSClassDefinitionEmpty
PUBLIC 16afa0 0 labels
PUBLIC 16b660 0 mainTableValues
PUBLIC 16bd80 0 arrayTableValues
PUBLIC 16c460 0 monthName
PUBLIC 16c630 0 formatStrings
PUBLIC 16c880 0 dateTableValues
PUBLIC 16d340 0 s_defaultInfo
PUBLIC 16d380 0 Inf
PUBLIC 16d388 0 NaN
PUBLIC 16d600 0 do_not_escape
PUBLIC 16d6c0 0 do_not_escape_when_encoding_URI
PUBLIC 16d718 0 do_not_unescape_when_decoding_URI
PUBLIC 16db40 0 hexDigits
PUBLIC 16e060 0 mathTableValues
PUBLIC 16e3e0 0 numberTableValues
PUBLIC 16eb40 0 regExpConstructorTableValues
PUBLIC 16eea0 0 regExpTableValues
PUBLIC 16f2e0 0 stringTableValues
PUBLIC 16fe00 0 qt_meta_data_QTWTF__MainThreadInvoker
PUBLIC 16fe60 0 qt_meta_stringdata_QTWTF__MainThreadInvoker
PUBLIC 16ff00 0 qt_meta_data_QTWTF__ThreadMonitor
PUBLIC 16ff60 0 qt_meta_stringdata_QTWTF__ThreadMonitor
PUBLIC 17097c 0 yyor
PUBLIC 1709a0 0 yyunexpected
PUBLIC 1709c0 0 yycheck
PUBLIC 171c20 0 yytable
PUBLIC 173020 0 yypact
PUBLIC 173a40 0 yydefact
PUBLIC 1742c0 0 yyr2
PUBLIC 174520 0 yyr1
PUBLIC 176300 0 yytranslate
PUBLIC 1775c0 0 qt_meta_data_QScriptEngine
PUBLIC 177640 0 qt_meta_stringdata_QScriptEngine
PUBLIC 1783c0 0 qt_meta_data_QScript__QObjectPrototypeObject
PUBLIC 178400 0 qt_meta_stringdata_QScript__QObjectPrototypeObject
PUBLIC 1784a0 0 qt_meta_stringdata_QObjectConnectionManager
PUBLIC 1786c0 0 action_check
PUBLIC 179560 0 action_info
PUBLIC 17a400 0 action_index
PUBLIC 17ab60 0 goto_default
PUBLIC 17ac20 0 action_default
PUBLIC 17afe0 0 rhs
PUBLIC 17b200 0 lhs
PUBLIC 17b5a0 0 spell
PUBLIC 17bde0 0 qt_meta_stringdata_QScriptExtensionPlugin
PUBLIC 17be60 0 tls_used
PUBLIC 17c380 0 p05
PUBLIC 17c3a0 0 _tens_D2A
PUBLIC 17c460 0 _tinytens_D2A
PUBLIC 17c4a0 0 _bigtens_D2A
PUBLIC 18f1a0 0 flagError
PUBLIC 1a9000 0 atexit_table
PUBLIC 1a9020 0 s_completed
PUBLIC 1a9040 0 s_abstractSamplingCounterChainEnd
PUBLIC 1a9060 0 s_samplingThread
PUBLIC 1a9064 0 s_running
PUBLIC 1a9080 0 frequency
PUBLIC 1a9090 0 s_sharedEnabledProfilerReference
PUBLIC 1a9098 0 s_sharedProfiler
PUBLIC 1a90a0 0 ProfilesUID
PUBLIC 1a90c0 0 initializedThreading
PUBLIC 1a90d0 0 jsFunctionVPtr
PUBLIC 1a90d8 0 jsStringVPtr
PUBLIC 1a90e0 0 jsByteArrayVPtr
PUBLIC 1a90e8 0 jsArrayVPtr
PUBLIC 1a9100 0 s_pageSize
PUBLIC 1a9110 0 nullUString
PUBLIC 1a9118 0 s_empty
PUBLIC 1a9120 0 s_null
PUBLIC 1a9128 0 asciiBuffer
PUBLIC 1a9130 0 sharedEmptyChar
PUBLIC 1a9140 0 lastUTCTime
PUBLIC 1a9148 0 syncHighResUpTime
PUBLIC 1a9150 0 syncLowResUTCTime
PUBLIC 1a9158 0 checked
PUBLIC 1a9159 0 available
PUBLIC 1a915a 0 inited
PUBLIC 1a9160 0 qpcLast
PUBLIC 1a9168 0 syncedTime
PUBLIC 1a9170 0 qpcFrequency
PUBLIC 1a9188 0 minYear
PUBLIC 1a9190 0 p5s_count
PUBLIC 1a91a8 0 staticFunctionQueue
PUBLIC 1a91b8 0 staticMutex
PUBLIC 1a91c0 0 callbacksPaused
PUBLIC 1a91e0 0 holder
PUBLIC 1a91f0 0 guard
PUBLIC 1a9230 0 mutex
PUBLIC 1a9238 0 atomicallyInitializedStaticMutex
PUBLIC 1a9240 0 s_initialized
PUBLIC 1a9258 0 deleteLaterIndex
PUBLIC 1a9760 0 GS_ExceptionRecord
PUBLIC 1a9810 0 mingw_app_type
PUBLIC 1a9828 0 the_secs
PUBLIC 1a9840 0 _mingw_oldexcpt_handler
PUBLIC 1a9848 0 was_here
PUBLIC 1a9860 0 emu_xdata
PUBLIC 1a9960 0 emu_pdata
PUBLIC 1a9ae0 0 key_dtor_list
PUBLIC 1a9ae8 0 _mingwthr_cs_init
PUBLIC 1a9b40 0 _RUNTIME_PSEUDO_RELOC_LIST__
PUBLIC 1a9b41 0 _RUNTIME_PSEUDO_RELOC_LIST_END__
PUBLIC 1a9b60 0 p5s
PUBLIC 1a9b80 0 private_mem
PUBLIC 1aa4d0 0 dtoa_CS_init
PUBLIC 1aa4e0 0 dtoa_CritSec
PUBLIC 1aa540 0 s_mbstate
PUBLIC 1aa548 0 internal_mbstate
PUBLIC 1aa550 0 stUserMathErr
PUBLIC 1aa560 0 _native_startup_lock
PUBLIC 1aa568 0 _native_startup_state
PUBLIC 1b4000 0 _xc_a
PUBLIC 1b4008 0 _xc_z
PUBLIC 1b4010 0 _xi_a
PUBLIC 1b4020 0 _xi_z
PUBLIC 1b4028 0 _xl_a
PUBLIC 1b4030 0 _xl_c
PUBLIC 1b4038 0 _xl_d
PUBLIC 1b4040 0 _xl_z
PUBLIC 1b4048 0 _xd_a
PUBLIC 1b4050 0 _xd_z
PUBLIC 1b5000 0 tls_start
PUBLIC 1b5008 0 tls_end
STACK CFI INIT 1000 c .cfa: $rsp .ra: .cfa 8 - ^
STACK CFI 1000 .cfa: $rsp 8 +
STACK CFI INIT 1010 1ef .cfa: $rsp .ra: .cfa 8 - ^
STACK CFI 1010 .cfa: $rsp 96 +
STACK CFI INIT 1200 12b .cfa: $rsp .ra: .cfa 8 - ^
STACK CFI 1200 .cfa: $rsp 80 +
STACK CFI INIT 1330 4f .cfa: $rsp .ra: .cfa 8 - ^
STACK CFI 1330 .cfa: $rsp 80 +
STACK CFI INIT 1380 f .cfa: $rsp .ra: .cfa 8 - ^
STACK CFI 1380 .cfa: $rsp 8 +
STACK CFI INIT 1390 c .cfa: $rsp .ra: .cfa 8 - ^
STACK CFI 1390 .cfa: $rsp 8 +
STACK CFI INIT 13a0 1 .cfa: $rsp .ra: .cfa 8 - ^
STACK CFI 13a0 .cfa: $rsp 8 +
STACK CFI INIT 13b0 379 .cfa: $rsp .ra: .cfa 8 - ^
STACK CFI 13b0 .cfa: $rsp 48 +
STACK CFI INIT 1730 d8 .cfa: $rsp .ra: .cfa 8 - ^
STACK CFI 1730 .cfa: $rsp 16 +
STACK CFI INIT 1810 86 .cfa: $rsp .ra: .cfa 8 - ^
STACK CFI 1810 .cfa: $rsp 8 +
STACK CFI INIT 18a0 44 .cfa: $rsp .ra: .cfa 8 - ^
STACK CFI 18a0 .cfa: $rsp 48 +
STACK CFI INIT 18f0 35 .cfa: $rsp .ra: .cfa 8 - ^
STACK CFI 18f0 .cfa: $rsp 8 +
STACK CFI INIT 1930 4c .cfa: $rsp .ra: .cfa 8 - ^
STACK CFI 1930 .cfa: $rsp 64 +
STACK CFI INIT 1980 a6 .cfa: $rsp .ra: .cfa 8 - ^
STACK CFI 1980 .cfa: $rsp 8 +
STACK CFI INIT 1a30 5f .cfa: $rsp .ra: .cfa 8 - ^
STACK CFI 1a30 .cfa: $rsp 64 +
STACK CFI INIT 1a90 d7 .cfa: $rsp .ra: .cfa 8 - ^
STACK CFI 1a90 .cfa: $rsp 8 +
STACK CFI INIT 1b70 82 .cfa: $rsp .ra: .cfa 8 - ^
STACK CFI 1b70 .cfa: $rsp 80 +
STACK CFI INIT 1c00 b5 .cfa: $rsp .ra: .cfa 8 - ^
STACK CFI 1c00 .cfa: $rsp 8 +
STACK CFI INIT 1cc0 cbb .cfa: $rsp .ra: .cfa 8 - ^
STACK CFI 1cc0 .cfa: $rsp 1232 +
STACK CFI INIT 2980 1a32 .cfa: $rsp .ra: .cfa 8 - ^
STACK CFI 2980 .cfa: $rsp 336 +
STACK CFI INIT 43c0 2b5 .cfa: $rsp .ra: .cfa 8 - ^
STACK CFI 43c0 .cfa: $rsp 224 +
STACK CFI INIT 4680 46f .cfa: $rsp .ra: .cfa 8 - ^
STACK CFI 4680 .cfa: $rsp 240 +
STACK CFI INIT 4af0 11 .cfa: $rsp .ra: .cfa 8 - ^
STACK CFI 4af0 .cfa: $rsp 8 +
STACK CFI INIT 4b10 ad .cfa: $rsp .ra: .cfa 8 - ^
STACK CFI 4b10 .cfa: $rsp 80 +
STACK CFI INIT 4bc0 37c0 .cfa: $rsp .ra: .cfa 8 - ^
STACK CFI 4bc0 .cfa: $rsp 2464 +
STACK CFI INIT 8380 5ce .cfa: $rsp .ra: .cfa 8 - ^
STACK CFI 8380 .cfa: $rsp 224 +
STACK CFI INIT 8950 d8 .cfa: $rsp .ra: .cfa 8 - ^
STACK CFI 8950 .cfa: $rsp 16 +
STACK CFI INIT 8a30 234 .cfa: $rsp .ra: .cfa 8 - ^
STACK CFI 8a30 .cfa: $rsp 72 +
STACK CFI INIT 8c70 3f7 .cfa: $rsp .ra: .cfa 8 - ^
STACK CFI 8c70 .cfa: $rsp 224 +
STACK CFI INIT 9070 3cf .cfa: $rsp .ra: .cfa 8 - ^
STACK CFI 9070 .cfa: $rsp 208 +
STACK CFI INIT 9440 210 .cfa: $rsp .ra: .cfa 8 - ^
STACK CFI 9440 .cfa: $rsp 128 +
STACK CFI INIT 9650 21d .cfa: $rsp .ra: .cfa 8 - ^
STACK CFI 9650 .cfa: $rsp 144 +
STACK CFI INIT 9870 14 .cfa: $rsp .ra: .cfa 8 - ^
STACK CFI 9870 .cfa: $rsp 8 +
STACK CFI INIT 9890 9b .cfa: $rsp .ra: .cfa 8 - ^
STACK CFI 9890 .cfa: $rsp 64 +
STACK CFI INIT 9930 1f .cfa: $rsp .ra: .cfa 8 - ^
STACK CFI 9930 .cfa: $rsp 48 +
STACK CFI INIT 9950 358 .cfa: $rsp .ra: .cfa 8 - ^
STACK CFI 9950 .cfa: $rsp 352 +
STACK CFI INIT 9cb0 41 .cfa: $rsp .ra: .cfa 8 - ^
STACK CFI 9cb0 .cfa: $rsp 8 +
STACK CFI INIT 9d00 10 .cfa: $rsp .ra: .cfa 8 - ^
STACK CFI 9d00 .cfa: $rsp 8 +
STACK CFI INIT 9d10 394 .cfa: $rsp .ra: .cfa 8 - ^
STACK CFI 9d10 .cfa: $rsp 352 +
STACK CFI INIT a0b0 82 .cfa: $rsp .ra: .cfa 8 - ^
STACK CFI a0b0 .cfa: $rsp 80 +
STACK CFI INIT a140 16 .cfa: $rsp .ra: .cfa 8 - ^
STACK CFI a140 .cfa: $rsp 48 +
STACK CFI INIT a160 1a1 .cfa: $rsp .ra: .cfa 8 - ^
STACK CFI a160 .cfa: $rsp 128 +
STACK CFI INIT a310 1a1 .cfa: $rsp .ra: .cfa 8 - ^
STACK CFI a310 .cfa: $rsp 128 +
STACK CFI INIT a4c0 21 .cfa: $rsp .ra: .cfa 8 - ^
STACK CFI a4c0 .cfa: $rsp 48 +
STACK CFI INIT a4f0 1c7 .cfa: $rsp .ra: .cfa 8 - ^
STACK CFI a4f0 .cfa: $rsp 64 +
STACK CFI INIT a6c0 1c8 .cfa: $rsp .ra: .cfa 8 - ^
STACK CFI a6c0 .cfa: $rsp 80 +
STACK CFI INIT a890 7df .cfa: $rsp .ra: .cfa 8 - ^
STACK CFI a890 .cfa: $rsp 192 +
STACK CFI INIT b070 36 .cfa: $rsp .ra: .cfa 8 - ^
STACK CFI b070 .cfa: $rsp 64 +
STACK CFI INIT b0b0 11e .cfa: $rsp .ra: .cfa 8 - ^
STACK CFI b0b0 .cfa: $rsp 320 +
STACK CFI INIT b1d0 9bd .cfa: $rsp .ra: .cfa 8 - ^
STACK CFI b1d0 .cfa: $rsp 176 +
STACK CFI INIT bb90 339 .cfa: $rsp .ra: .cfa 8 - ^
STACK CFI bb90 .cfa: $rsp 128 +
STACK CFI INIT bed0 12 .cfa: $rsp .ra: .cfa 8 - ^
STACK CFI bed0 .cfa: $rsp 48 +
STACK CFI INIT bef0 12 .cfa: $rsp .ra: .cfa 8 - ^
STACK CFI bef0 .cfa: $rsp 48 +
STACK CFI INIT bf10 214 .cfa: $rsp .ra: .cfa 8 - ^
STACK CFI bf10 .cfa: $rsp 112 +
STACK CFI INIT c130 1d .cfa: $rsp .ra: .cfa 8 - ^
STACK CFI c130 .cfa: $rsp 64 +
STACK CFI INIT c150 7 .cfa: $rsp .ra: .cfa 8 - ^
STACK CFI c150 .cfa: $rsp 8 +
STACK CFI INIT c160 32 .cfa: $rsp .ra: .cfa 8 - ^
STACK CFI c160 .cfa: $rsp 48 +
STACK CFI INIT c1a0 23e .cfa: $rsp .ra: .cfa 8 - ^
STACK CFI c1a0 .cfa: $rsp 128 +
STACK CFI INIT c3e0 26d .cfa: $rsp .ra: .cfa 8 - ^
STACK CFI c3e0 .cfa: $rsp 128 +
STACK CFI INIT c650 1fe .cfa: $rsp .ra: .cfa 8 - ^
STACK CFI c650 .cfa: $rsp 128 +
STACK CFI INIT c850 9 .cfa: $rsp .ra: .cfa 8 - ^
STACK CFI c850 .cfa: $rsp 8 +
STACK CFI INIT c860 1fd .cfa: $rsp .ra: .cfa 8 - ^
STACK CFI c860 .cfa: $rsp 128 +
STACK CFI INIT ca60 53e .cfa: $rsp .ra: .cfa 8 - ^
STACK CFI ca60 .cfa: $rsp 128 +
STACK CFI INIT cfa0 1c .cfa: $rsp .ra: .cfa 8 - ^
STACK CFI cfa0 .cfa: $rsp 48 +
STACK CFI INIT cfc0 40 .cfa: $rsp .ra: .cfa 8 - ^
STACK CFI cfc0 .cfa: $rsp 64 +
STACK CFI INIT d000 8 .cfa: $rsp .ra: .cfa 8 - ^
STACK CFI d000 .cfa: $rsp 8 +
STACK CFI INIT d010 32 .cfa: $rsp .ra: .cfa 8 - ^
STACK CFI d010 .cfa: $rsp 48 +
STACK CFI INIT d050 2b0 .cfa: $rsp .ra: .cfa 8 - ^
STACK CFI d050 .cfa: $rsp 160 +
STACK CFI INIT d300 5f8 .cfa: $rsp .ra: .cfa 8 - ^
STACK CFI d300 .cfa: $rsp 208 +
STACK CFI INIT d900 1fd .cfa: $rsp .ra: .cfa 8 - ^
STACK CFI d900 .cfa: $rsp 144 +
STACK CFI INIT db00 280 .cfa: $rsp .ra: .cfa 8 - ^
STACK CFI db00 .cfa: $rsp 160 +
STACK CFI INIT dd80 260 .cfa: $rsp .ra: .cfa 8 - ^
STACK CFI dd80 .cfa: $rsp 160 +
STACK CFI INIT dfe0 508 .cfa: $rsp .ra: .cfa 8 - ^
STACK CFI dfe0 .cfa: $rsp 224 +
STACK CFI INIT e4f0 318 .cfa: $rsp .ra: .cfa 8 - ^
STACK CFI e4f0 .cfa: $rsp 208 +
STACK CFI INIT e810 395 .cfa: $rsp .ra: .cfa 8 - ^
STACK CFI e810 .cfa: $rsp 224 +
STACK CFI INIT ebb0 259 .cfa: $rsp .ra: .cfa 8 - ^
STACK CFI ebb0 .cfa: $rsp 144 +
STACK CFI INIT ee10 2b0 .cfa: $rsp .ra: .cfa 8 - ^
STACK CFI ee10 .cfa: $rsp 160 +
STACK CFI INIT f0c0 81 .cfa: $rsp .ra: .cfa 8 - ^
STACK CFI f0c0 .cfa: $rsp 48 +
STACK CFI INIT f150 97 .cfa: $rsp .ra: .cfa 8 - ^
STACK CFI f150 .cfa: $rsp 64 +
STACK CFI INIT f1f0 1c .cfa: $rsp .ra: .cfa 8 - ^
STACK CFI f1f0 .cfa: $rsp 64 +
STACK CFI INIT f210 1c .cfa: $rsp .ra: .cfa 8 - ^
STACK CFI f210 .cfa: $rsp 64 +
STACK CFI INIT f230 7 .cfa: $rsp .ra: .cfa 8 - ^
STACK CFI f230 .cfa: $rsp 8 +
STACK CFI INIT f240 2f2 .cfa: $rsp .ra: .cfa 8 - ^
STACK CFI f240 .cfa: $rsp 112 +
STACK CFI INIT f540 5 .cfa: $rsp .ra: .cfa 8 - ^
STACK CFI f540 .cfa: $rsp 8 +
STACK CFI INIT f550 b .cfa: $rsp .ra: .cfa 8 - ^
STACK CFI f550 .cfa: $rsp 8 +
STACK CFI INIT f560 28b .cfa: $rsp .ra: .cfa 8 - ^
STACK CFI f560 .cfa: $rsp 128 +
STACK CFI INIT f7f0 4d5 .cfa: $rsp .ra: .cfa 8 - ^
STACK CFI f7f0 .cfa: $rsp 224 +
STACK CFI INIT fcd0 309 .cfa: $rsp .ra: .cfa 8 - ^
STACK CFI fcd0 .cfa: $rsp 160 +
STACK CFI INIT ffe0 987 .cfa: $rsp .ra: .cfa 8 - ^
STACK CFI ffe0 .cfa: $rsp 336 +
STACK CFI INIT 10970 4a2 .cfa: $rsp .ra: .cfa 8 - ^
STACK CFI 10970 .cfa: $rsp 288 +
STACK CFI INIT 10e20 4a2 .cfa: $rsp .ra: .cfa 8 - ^
STACK CFI 10e20 .cfa: $rsp 288 +
STACK CFI INIT 112d0 4a2 .cfa: $rsp .ra: .cfa 8 - ^
STACK CFI 112d0 .cfa: $rsp 288 +
STACK CFI INIT 11780 532 .cfa: $rsp .ra: .cfa 8 - ^
STACK CFI 11780 .cfa: $rsp 336 +
STACK CFI INIT 11cc0 4f9 .cfa: $rsp .ra: .cfa 8 - ^
STACK CFI 11cc0 .cfa: $rsp 320 +
STACK CFI INIT 121c0 5a1 .cfa: $rsp .ra: .cfa 8 - ^
STACK CFI 121c0 .cfa: $rsp 304 +
STACK CFI INIT 12770 52 .cfa: $rsp .ra: .cfa 8 - ^
STACK CFI 12770 .cfa: $rsp 64 +
STACK CFI INIT 127d0 1b0 .cfa: $rsp .ra: .cfa 8 - ^
STACK CFI 127d0 .cfa: $rsp 2192 +
STACK CFI INIT 12980 8 .cfa: $rsp .ra: .cfa 8 - ^
STACK CFI 12980 .cfa: $rsp 8 +
STACK CFI INIT 12990 3b .cfa: $rsp .ra: .cfa 8 - ^
STACK CFI 12990 .cfa: $rsp 48 +
STACK CFI INIT 129d0 4 .cfa: $rsp .ra: .cfa 8 - ^
STACK CFI 129d0 .cfa: $rsp 8 +
STACK CFI INIT 129e0 5 .cfa: $rsp .ra: .cfa 8 - ^
STACK CFI 129e0 .cfa: $rsp 8 +
STACK CFI INIT 129f0 8 .cfa: $rsp .ra: .cfa 8 - ^
STACK CFI 129f0 .cfa: $rsp 8 +
STACK CFI INIT 12a00 6a .cfa: $rsp .ra: .cfa 8 - ^
STACK CFI 12a00 .cfa: $rsp 80 +
STACK CFI INIT 12a70 2a .cfa: $rsp .ra: .cfa 8 - ^
STACK CFI 12a70 .cfa: $rsp 48 +
STACK CFI INIT 12aa0 6f .cfa: $rsp .ra: .cfa 8 - ^
STACK CFI 12aa0 .cfa: $rsp 80 +
STACK CFI INIT 12b10 27b .cfa: $rsp .ra: .cfa 8 - ^
STACK CFI 12b10 .cfa: $rsp 144 +
STACK CFI INIT 12d90 1fd .cfa: $rsp .ra: .cfa 8 - ^
STACK CFI 12d90 .cfa: $rsp 144 +
STACK CFI INIT 12f90 1fd .cfa: $rsp .ra: .cfa 8 - ^
STACK CFI 12f90 .cfa: $rsp 144 +
STACK CFI INIT 13190 20d .cfa: $rsp .ra: .cfa 8 - ^
STACK CFI 13190 .cfa: $rsp 144 +
STACK CFI INIT 133a0 1fd .cfa: $rsp .ra: .cfa 8 - ^
STACK CFI 133a0 .cfa: $rsp 144 +
STACK CFI INIT 135a0 1fd .cfa: $rsp .ra: .cfa 8 - ^
STACK CFI 135a0 .cfa: $rsp 144 +
STACK CFI INIT 137a0 1fd .cfa: $rsp .ra: .cfa 8 - ^
STACK CFI 137a0 .cfa: $rsp 144 +
STACK CFI INIT 139a0 2e3 .cfa: $rsp .ra: .cfa 8 - ^
STACK CFI 139a0 .cfa: $rsp 144 +
STACK CFI INIT 13c90 281 .cfa: $rsp .ra: .cfa 8 - ^
STACK CFI 13c90 .cfa: $rsp 160 +
STACK CFI INIT 13f20 3a9 .cfa: $rsp .ra: .cfa 8 - ^
STACK CFI 13f20 .cfa: $rsp 160 +
STACK CFI INIT 142d0 546 .cfa: $rsp .ra: .cfa 8 - ^
STACK CFI 142d0 .cfa: $rsp 224 +
STACK CFI INIT 14820 1ed .cfa: $rsp .ra: .cfa 8 - ^
STACK CFI 14820 .cfa: $rsp 128 +
STACK CFI INIT 14a10 1ed .cfa: $rsp .ra: .cfa 8 - ^
STACK CFI 14a10 .cfa: $rsp 128 +
STACK CFI INIT 14c00 1fd .cfa: $rsp .ra: .cfa 8 - ^
STACK CFI 14c00 .cfa: $rsp 144 +
STACK CFI INIT 14e00 22d .cfa: $rsp .ra: .cfa 8 - ^
STACK CFI 14e00 .cfa: $rsp 144 +
STACK CFI INIT 15030 39d .cfa: $rsp .ra: .cfa 8 - ^
STACK CFI 15030 .cfa: $rsp 160 +
STACK CFI INIT 153d0 2a0 .cfa: $rsp .ra: .cfa 8 - ^
STACK CFI 153d0 .cfa: $rsp 160 +
STACK CFI INIT 15670 2f1 .cfa: $rsp .ra: .cfa 8 - ^
STACK CFI 15670 .cfa: $rsp 176 +
STACK CFI INIT 15970 719 .cfa: $rsp .ra: .cfa 8 - ^
STACK CFI 15970 .cfa: $rsp 176 +
STACK CFI INIT 16090 274 .cfa: $rsp .ra: .cfa 8 - ^
STACK CFI 16090 .cfa: $rsp 160 +
STACK CFI INIT 16310 20d .cfa: $rsp .ra: .cfa 8 - ^
STACK CFI 16310 .cfa: $rsp 144 +
STACK CFI INIT 16520 20d .cfa: $rsp .ra: .cfa 8 - ^
STACK CFI 16520 .cfa: $rsp 144 +
STACK CFI INIT 16730 75 .cfa: $rsp .ra: .cfa 8 - ^
STACK CFI 16730 .cfa: $rsp 80 +
STACK CFI INIT 167b0 52 .cfa: $rsp .ra: .cfa 8 - ^
STACK CFI 167b0 .cfa: $rsp 48 +
STACK CFI INIT 16810 56 .cfa: $rsp .ra: .cfa 8 - ^
STACK CFI 16810 .cfa: $rsp 64 +
STACK CFI INIT 16870 b4 .cfa: $rsp .ra: .cfa 8 - ^
STACK CFI 16870 .cfa: $rsp 80 +
STACK CFI INIT 16930 41 .cfa: $rsp .ra: .cfa 8 - ^
STACK CFI 16930 .cfa: $rsp 64 +
STACK CFI INIT 16980 ec .cfa: $rsp .ra: .cfa 8 - ^
STACK CFI 16980 .cfa: $rsp 80 +
STACK CFI INIT 16a70 17c .cfa: $rsp .ra: .cfa 8 - ^
STACK CFI 16a70 .cfa: $rsp 80 +
STACK CFI INIT 16bf0 c .cfa: $rsp .ra: .cfa 8 - ^
STACK CFI 16bf0 .cfa: $rsp 8 +
STACK CFI INIT 16c00 1d1 .cfa: $rsp .ra: .cfa 8 - ^
STACK CFI 16c00 .cfa: $rsp 48 +
STACK CFI INIT 16de0 37f .cfa: $rsp .ra: .cfa 8 - ^
STACK CFI 16de0 .cfa: $rsp 112 +
STACK CFI INIT 17160 76 .cfa: $rsp .ra: .cfa 8 - ^
STACK CFI 17160 .cfa: $rsp 8 +
STACK CFI INIT 171e0 188 .cfa: $rsp .ra: .cfa 8 - ^
STACK CFI 171e0 .cfa: $rsp 112 +
STACK CFI INIT 17370 15 .cfa: $rsp .ra: .cfa 8 - ^
STACK CFI 17370 .cfa: $rsp 8 +
STACK CFI INIT 17390 3c .cfa: $rsp .ra: .cfa 8 - ^
STACK CFI 17390 .cfa: $rsp 8 +
STACK CFI INIT 173d0 9b .cfa: $rsp .ra: .cfa 8 - ^
STACK CFI 173d0 .cfa: $rsp 64 +
STACK CFI INIT 17470 144 .cfa: $rsp .ra: .cfa 8 - ^
STACK CFI 17470 .cfa: $rsp 96 +
STACK CFI INIT 175c0 db .cfa: $rsp .ra: .cfa 8 - ^
STACK CFI 175c0 .cfa: $rsp 64 +
STACK CFI INIT 176a0 79 .cfa: $rsp .ra: .cfa 8 - ^
STACK CFI 176a0 .cfa: $rsp 8 +
STACK CFI INIT 17720 52e .cfa: $rsp .ra: .cfa 8 - ^
STACK CFI 17720 .cfa: $rsp 80 +
STACK CFI INIT 17c50 1a .cfa: $rsp .ra: .cfa 8 - ^
STACK CFI 17c50 .cfa: $rsp 48 +
STACK CFI INIT 17c70 760 .cfa: $rsp .ra: .cfa 8 - ^
STACK CFI 17c70 .cfa: $rsp 96 +
STACK CFI INIT 183d0 22 .cfa: $rsp .ra: .cfa 8 - ^
STACK CFI 183d0 .cfa: $rsp 8 +
STACK CFI INIT 18400 6d .cfa: $rsp .ra: .cfa 8 - ^
STACK CFI 18400 .cfa: $rsp 64 +
STACK CFI INIT 18470 1 .cfa: $rsp .ra: .cfa 8 - ^
STACK CFI 18470 .cfa: $rsp 8 +
STACK CFI INIT 18480 1 .cfa: $rsp .ra: .cfa 8 - ^
STACK CFI 18480 .cfa: $rsp 8 +
STACK CFI INIT 18490 31 .cfa: $rsp .ra: .cfa 8 - ^
STACK CFI 18490 .cfa: $rsp 48 +
STACK CFI INIT 184d0 14 .cfa: $rsp .ra: .cfa 8 - ^
STACK CFI 184d0 .cfa: $rsp 8 +
STACK CFI INIT 184f0 69 .cfa: $rsp .ra: .cfa 8 - ^
STACK CFI 184f0 .cfa: $rsp 64 +
STACK CFI INIT 18560 134 .cfa: $rsp .ra: .cfa 8 - ^
STACK CFI 18560 .cfa: $rsp 24 +
STACK CFI INIT 186a0 c .cfa: $rsp .ra: .cfa 8 - ^
STACK CFI 186a0 .cfa: $rsp 8 +
STACK CFI INIT 186b0 1 .cfa: $rsp .ra: .cfa 8 - ^
STACK CFI 186b0 .cfa: $rsp 8 +
STACK CFI INIT 186c0 8 .cfa: $rsp .ra: .cfa 8 - ^
STACK CFI 186c0 .cfa: $rsp 8 +
STACK CFI INIT 186d0 1 .cfa: $rsp .ra: .cfa 8 - ^
STACK CFI 186d0 .cfa: $rsp 8 +
STACK CFI INIT 186e0 1 .cfa: $rsp .ra: .cfa 8 - ^
STACK CFI 186e0 .cfa: $rsp 8 +
STACK CFI INIT 186f0 a0 .cfa: $rsp .ra: .cfa 8 - ^
STACK CFI 186f0 .cfa: $rsp 80 +
STACK CFI INIT 18790 e2 .cfa: $rsp .ra: .cfa 8 - ^
STACK CFI 18790 .cfa: $rsp 96 +
STACK CFI INIT 18880 1a1 .cfa: $rsp .ra: .cfa 8 - ^
STACK CFI 18880 .cfa: $rsp 128 +
STACK CFI INIT 18a30 1 .cfa: $rsp .ra: .cfa 8 - ^
STACK CFI 18a30 .cfa: $rsp 8 +
STACK CFI INIT 18a40 3 .cfa: $rsp .ra: .cfa 8 - ^
STACK CFI 18a40 .cfa: $rsp 8 +
STACK CFI INIT 18a50 71 .cfa: $rsp .ra: .cfa 8 - ^
STACK CFI 18a50 .cfa: $rsp 8 +
STACK CFI INIT 18ad0 f7 .cfa: $rsp .ra: .cfa 8 - ^
STACK CFI 18ad0 .cfa: $rsp 24 +
STACK CFI INIT 18bd0 190 .cfa: $rsp .ra: .cfa 8 - ^
STACK CFI 18bd0 .cfa: $rsp 16 +
STACK CFI INIT 18d60 a4 .cfa: $rsp .ra: .cfa 8 - ^
STACK CFI 18d60 .cfa: $rsp 16 +
STACK CFI INIT 18e10 c9 .cfa: $rsp .ra: .cfa 8 - ^
STACK CFI 18e10 .cfa: $rsp 8 +
STACK CFI INIT 18ee0 93 .cfa: $rsp .ra: .cfa 8 - ^
STACK CFI 18ee0 .cfa: $rsp 8 +
STACK CFI INIT 18f80 3f .cfa: $rsp .ra: .cfa 8 - ^
STACK CFI 18f80 .cfa: $rsp 8 +
STACK CFI INIT 18fc0 27 .cfa: $rsp .ra: .cfa 8 - ^
STACK CFI 18fc0 .cfa: $rsp 8 +
STACK CFI INIT 18ff0 223 .cfa: $rsp .ra: .cfa 8 - ^
STACK CFI 18ff0 .cfa: $rsp 112 +
STACK CFI INIT 19220 10 .cfa: $rsp .ra: .cfa 8 - ^
STACK CFI 19220 .cfa: $rsp 8 +
STACK CFI INIT 19230 1ae .cfa: $rsp .ra: .cfa 8 - ^
STACK CFI 19230 .cfa: $rsp 64 +
STACK CFI INIT 193e0 391 .cfa: $rsp .ra: .cfa 8 - ^
STACK CFI 193e0 .cfa: $rsp 96 +
STACK CFI INIT 19780 ef .cfa: $rsp .ra: .cfa 8 - ^
STACK CFI 19780 .cfa: $rsp 96 +
STACK CFI INIT 19870 81 .cfa: $rsp .ra: .cfa 8 - ^
STACK CFI 19870 .cfa: $rsp 80 +
STACK CFI INIT 19900 1d4 .cfa: $rsp .ra: .cfa 8 - ^
STACK CFI 19900 .cfa: $rsp 48 +
STACK CFI INIT 19ae0 1ca .cfa: $rsp .ra: .cfa 8 - ^
STACK CFI 19ae0 .cfa: $rsp 48 +
STACK CFI INIT 19cb0 d4 .cfa: $rsp .ra: .cfa 8 - ^
STACK CFI 19cb0 .cfa: $rsp 96 +
STACK CFI INIT 19d90 3ea .cfa: $rsp .ra: .cfa 8 - ^
STACK CFI 19d90 .cfa: $rsp 128 +
STACK CFI INIT 1a180 1e1 .cfa: $rsp .ra: .cfa 8 - ^
STACK CFI 1a180 .cfa: $rsp 112 +
STACK CFI INIT 1a370 56 .cfa: $rsp .ra: .cfa 8 - ^
STACK CFI 1a370 .cfa: $rsp 64 +
STACK CFI INIT 1a3d0 ea .cfa: $rsp .ra: .cfa 8 - ^
STACK CFI 1a3d0 .cfa: $rsp 64 +
STACK CFI INIT 1a4c0 2a6 .cfa: $rsp .ra: .cfa 8 - ^
STACK CFI 1a4c0 .cfa: $rsp 112 +
STACK CFI INIT 1a770 3e4 .cfa: $rsp .ra: .cfa 8 - ^
STACK CFI 1a770 .cfa: $rsp 112 +
STACK CFI INIT 1ab60 491 .cfa: $rsp .ra: .cfa 8 - ^
STACK CFI 1ab60 .cfa: $rsp 112 +
STACK CFI INIT 1b000 11d .cfa: $rsp .ra: .cfa 8 - ^
STACK CFI 1b000 .cfa: $rsp 112 +
STACK CFI INIT 1b120 13d .cfa: $rsp .ra: .cfa 8 - ^
STACK CFI 1b120 .cfa: $rsp 112 +
STACK CFI INIT 1b260 6c .cfa: $rsp .ra: .cfa 8 - ^
STACK CFI 1b260 .cfa: $rsp 80 +
STACK CFI INIT 1b2d0 6c .cfa: $rsp .ra: .cfa 8 - ^
STACK CFI 1b2d0 .cfa: $rsp 64 +
STACK CFI INIT 1b340 7c .cfa: $rsp .ra: .cfa 8 - ^
STACK CFI 1b340 .cfa: $rsp 64 +
STACK CFI INIT 1b3c0 170 .cfa: $rsp .ra: .cfa 8 - ^
STACK CFI 1b3c0 .cfa: $rsp 112 +
STACK CFI INIT 1b530 173 .cfa: $rsp .ra: .cfa 8 - ^
STACK CFI 1b530 .cfa: $rsp 96 +
STACK CFI INIT 1b6b0 bc .cfa: $rsp .ra: .cfa 8 - ^
STACK CFI 1b6b0 .cfa: $rsp 80 +
STACK CFI INIT 1b770 bc .cfa: $rsp .ra: .cfa 8 - ^
STACK CFI 1b770 .cfa: $rsp 80 +
STACK CFI INIT 1b830 bc .cfa: $rsp .ra: .cfa 8 - ^
STACK CFI 1b830 .cfa: $rsp 80 +
STACK CFI INIT 1b8f0 bc .cfa: $rsp .ra: .cfa 8 - ^
STACK CFI 1b8f0 .cfa: $rsp 80 +
STACK CFI INIT 1b9b0 bc .cfa: $rsp .ra: .cfa 8 - ^
STACK CFI 1b9b0 .cfa: $rsp 80 +
STACK CFI INIT 1ba70 bc .cfa: $rsp .ra: .cfa 8 - ^
STACK CFI 1ba70 .cfa: $rsp 80 +
STACK CFI INIT 1bb30 112 .cfa: $rsp .ra: .cfa 8 - ^
STACK CFI 1bb30 .cfa: $rsp 112 +
STACK CFI INIT 1bc50 113 .cfa: $rsp .ra: .cfa 8 - ^
STACK CFI 1bc50 .cfa: $rsp 80 +
STACK CFI INIT 1bd70 113 .cfa: $rsp .ra: .cfa 8 - ^
STACK CFI 1bd70 .cfa: $rsp 80 +
STACK CFI INIT 1be90 113 .cfa: $rsp .ra: .cfa 8 - ^
STACK CFI 1be90 .cfa: $rsp 80 +
STACK CFI INIT 1bfb0 113 .cfa: $rsp .ra: .cfa 8 - ^
STACK CFI 1bfb0 .cfa: $rsp 80 +
STACK CFI INIT 1c0d0 113 .cfa: $rsp .ra: .cfa 8 - ^
STACK CFI 1c0d0 .cfa: $rsp 96 +
STACK CFI INIT 1c1f0 113 .cfa: $rsp .ra: .cfa 8 - ^
STACK CFI 1c1f0 .cfa: $rsp 80 +
STACK CFI INIT 1c310 176 .cfa: $rsp .ra: .cfa 8 - ^
STACK CFI 1c310 .cfa: $rsp 96 +
STACK CFI INIT 1c490 176 .cfa: $rsp .ra: .cfa 8 - ^
STACK CFI 1c490 .cfa: $rsp 96 +
STACK CFI INIT 1c610 176 .cfa: $rsp .ra: .cfa 8 - ^
STACK CFI 1c610 .cfa: $rsp 96 +
STACK CFI INIT 1c790 176 .cfa: $rsp .ra: .cfa 8 - ^
STACK CFI 1c790 .cfa: $rsp 96 +
STACK CFI INIT 1c910 1e1 .cfa: $rsp .ra: .cfa 8 - ^
STACK CFI 1c910 .cfa: $rsp 128 +
STACK CFI INIT 1cb00 1e1 .cfa: $rsp .ra: .cfa 8 - ^
STACK CFI 1cb00 .cfa: $rsp 128 +
STACK CFI INIT 1ccf0 f4 .cfa: $rsp .ra: .cfa 8 - ^
STACK CFI 1ccf0 .cfa: $rsp 112 +
STACK CFI INIT 1cdf0 18d .cfa: $rsp .ra: .cfa 8 - ^
STACK CFI 1cdf0 .cfa: $rsp 80 +
STACK CFI INIT 1cf80 1fe .cfa: $rsp .ra: .cfa 8 - ^
STACK CFI 1cf80 .cfa: $rsp 112 +
STACK CFI INIT 1d180 194 .cfa: $rsp .ra: .cfa 8 - ^
STACK CFI 1d180 .cfa: $rsp 80 +
STACK CFI INIT 1d320 1a2 .cfa: $rsp .ra: .cfa 8 - ^
STACK CFI 1d320 .cfa: $rsp 112 +
STACK CFI INIT 1d4d0 1d1 .cfa: $rsp .ra: .cfa 8 - ^
STACK CFI 1d4d0 .cfa: $rsp 112 +
STACK CFI INIT 1d6b0 8a .cfa: $rsp .ra: .cfa 8 - ^
STACK CFI 1d6b0 .cfa: $rsp 80 +
STACK CFI INIT 1d740 9c .cfa: $rsp .ra: .cfa 8 - ^
STACK CFI 1d740 .cfa: $rsp 96 +
STACK CFI INIT 1d7e0 1e1 .cfa: $rsp .ra: .cfa 8 - ^
STACK CFI 1d7e0 .cfa: $rsp 80 +
STACK CFI INIT 1d9d0 150 .cfa: $rsp .ra: .cfa 8 - ^
STACK CFI 1d9d0 .cfa: $rsp 80 +
STACK CFI INIT 1db20 8e .cfa: $rsp .ra: .cfa 8 - ^
STACK CFI 1db20 .cfa: $rsp 48 +
STACK CFI INIT 1dbb0 7c .cfa: $rsp .ra: .cfa 8 - ^
STACK CFI 1dbb0 .cfa: $rsp 64 +
STACK CFI INIT 1dc30 30b .cfa: $rsp .ra: .cfa 8 - ^
STACK CFI 1dc30 .cfa: $rsp 112 +
STACK CFI INIT 1df40 10a .cfa: $rsp .ra: .cfa 8 - ^
STACK CFI 1df40 .cfa: $rsp 112 +
STACK CFI INIT 1e050 22e .cfa: $rsp .ra: .cfa 8 - ^
STACK CFI 1e050 .cfa: $rsp 144 +
STACK CFI INIT 1e280 181 .cfa: $rsp .ra: .cfa 8 - ^
STACK CFI 1e280 .cfa: $rsp 144 +
STACK CFI INIT 1e410 82e .cfa: $rsp .ra: .cfa 8 - ^
STACK CFI 1e410 .cfa: $rsp 176 +
STACK CFI INIT 1ec40 30c .cfa: $rsp .ra: .cfa 8 - ^
STACK CFI 1ec40 .cfa: $rsp 144 +
STACK CFI INIT 1ef50 1a9 .cfa: $rsp .ra: .cfa 8 - ^
STACK CFI 1ef50 .cfa: $rsp 112 +
STACK CFI INIT 1f100 8d .cfa: $rsp .ra: .cfa 8 - ^
STACK CFI 1f100 .cfa: $rsp 112 +
STACK CFI INIT 1f190 161 .cfa: $rsp .ra: .cfa 8 - ^
STACK CFI 1f190 .cfa: $rsp 128 +
STACK CFI INIT 1f300 7d7 .cfa: $rsp .ra: .cfa 8 - ^
STACK CFI 1f300 .cfa: $rsp 192 +
STACK CFI INIT 1fae0 39a .cfa: $rsp .ra: .cfa 8 - ^
STACK CFI 1fae0 .cfa: $rsp 144 +
STACK CFI INIT 1fe80 37e .cfa: $rsp .ra: .cfa 8 - ^
STACK CFI 1fe80 .cfa: $rsp 144 +
STACK CFI INIT 20200 16e .cfa: $rsp .ra: .cfa 8 - ^
STACK CFI 20200 .cfa: $rsp 112 +
STACK CFI INIT 20370 16e .cfa: $rsp .ra: .cfa 8 - ^
STACK CFI 20370 .cfa: $rsp 112 +
STACK CFI INIT 204e0 11a .cfa: $rsp .ra: .cfa 8 - ^
STACK CFI 204e0 .cfa: $rsp 128 +
STACK CFI INIT 20600 11a .cfa: $rsp .ra: .cfa 8 - ^
STACK CFI 20600 .cfa: $rsp 128 +
STACK CFI INIT 20720 117 .cfa: $rsp .ra: .cfa 8 - ^
STACK CFI 20720 .cfa: $rsp 128 +
STACK CFI INIT 20840 168 .cfa: $rsp .ra: .cfa 8 - ^
STACK CFI 20840 .cfa: $rsp 144 +
STACK CFI INIT 209b0 415 .cfa: $rsp .ra: .cfa 8 - ^
STACK CFI 209b0 .cfa: $rsp 128 +
STACK CFI INIT 20dd0 37 .cfa: $rsp .ra: .cfa 8 - ^
STACK CFI 20dd0 .cfa: $rsp 64 +
STACK CFI INIT 20e10 11 .cfa: $rsp .ra: .cfa 8 - ^
STACK CFI 20e10 .cfa: $rsp 8 +
STACK CFI INIT 20e30 b0a .cfa: $rsp .ra: .cfa 8 - ^
STACK CFI 20e30 .cfa: $rsp 464 +
STACK CFI INIT 21940 f1 .cfa: $rsp .ra: .cfa 8 - ^
STACK CFI 21940 .cfa: $rsp 128 +
STACK CFI INIT 21a40 304 .cfa: $rsp .ra: .cfa 8 - ^
STACK CFI 21a40 .cfa: $rsp 144 +
STACK CFI INIT 21d50 e3 .cfa: $rsp .ra: .cfa 8 - ^
STACK CFI 21d50 .cfa: $rsp 112 +
STACK CFI INIT 21e40 27b .cfa: $rsp .ra: .cfa 8 - ^
STACK CFI 21e40 .cfa: $rsp 96 +
STACK CFI INIT 220c0 935 .cfa: $rsp .ra: .cfa 8 - ^
STACK CFI 220c0 .cfa: $rsp 400 +
STACK CFI INIT 22a00 30a .cfa: $rsp .ra: .cfa 8 - ^
STACK CFI 22a00 .cfa: $rsp 304 +
STACK CFI INIT 22d10 696 .cfa: $rsp .ra: .cfa 8 - ^
STACK CFI 22d10 .cfa: $rsp 400 +
STACK CFI INIT 233b0 4c .cfa: $rsp .ra: .cfa 8 - ^
STACK CFI 233b0 .cfa: $rsp 96 +
STACK CFI INIT 23400 68 .cfa: $rsp .ra: .cfa 8 - ^
STACK CFI 23400 .cfa: $rsp 128 +
STACK CFI INIT 23470 44f .cfa: $rsp .ra: .cfa 8 - ^
STACK CFI 23470 .cfa: $rsp 144 +
STACK CFI INIT 238c0 38d .cfa: $rsp .ra: .cfa 8 - ^
STACK CFI 238c0 .cfa: $rsp 128 +
STACK CFI INIT 23c50 a1e .cfa: $rsp .ra: .cfa 8 - ^
STACK CFI 23c50 .cfa: $rsp 224 +
STACK CFI INIT 24670 2f .cfa: $rsp .ra: .cfa 8 - ^
STACK CFI 24670 .cfa: $rsp 64 +
STACK CFI INIT 246a0 14 .cfa: $rsp .ra: .cfa 8 - ^
STACK CFI 246a0 .cfa: $rsp 8 +
STACK CFI INIT 246c0 23 .cfa: $rsp .ra: .cfa 8 - ^
STACK CFI 246c0 .cfa: $rsp 8 +
STACK CFI INIT 246f0 23 .cfa: $rsp .ra: .cfa 8 - ^
STACK CFI 246f0 .cfa: $rsp 8 +
STACK CFI INIT 24720 23 .cfa: $rsp .ra: .cfa 8 - ^
STACK CFI 24720 .cfa: $rsp 8 +
STACK CFI INIT 24750 23 .cfa: $rsp .ra: .cfa 8 - ^
STACK CFI 24750 .cfa: $rsp 8 +
STACK CFI INIT 24780 33 .cfa: $rsp .ra: .cfa 8 - ^
STACK CFI 24780 .cfa: $rsp 8 +
STACK CFI INIT 247c0 f .cfa: $rsp .ra: .cfa 8 - ^
STACK CFI 247c0 .cfa: $rsp 8 +
STACK CFI INIT 247d0 15 .cfa: $rsp .ra: .cfa 8 - ^
STACK CFI 247d0 .cfa: $rsp 8 +
STACK CFI INIT 247f0 29 .cfa: $rsp .ra: .cfa 8 - ^
STACK CFI 247f0 .cfa: $rsp 48 +
STACK CFI INIT 24820 29 .cfa: $rsp .ra: .cfa 8 - ^
STACK CFI 24820 .cfa: $rsp 48 +
STACK CFI INIT 24850 39 .cfa: $rsp .ra: .cfa 8 - ^
STACK CFI 24850 .cfa: $rsp 8 +
STACK CFI INIT 24890 22 .cfa: $rsp .ra: .cfa 8 - ^
STACK CFI 24890 .cfa: $rsp 8 +
STACK CFI INIT 248c0 3d .cfa: $rsp .ra: .cfa 8 - ^
STACK CFI 248c0 .cfa: $rsp 64 +
STACK CFI INIT 24900 166 .cfa: $rsp .ra: .cfa 8 - ^
STACK CFI 24900 .cfa: $rsp 96 +
STACK CFI INIT 24a70 c5 .cfa: $rsp .ra: .cfa 8 - ^
STACK CFI 24a70 .cfa: $rsp 96 +
STACK CFI INIT 24b40 17c .cfa: $rsp .ra: .cfa 8 - ^
STACK CFI 24b40 .cfa: $rsp 112 +
STACK CFI INIT 24cc0 102 .cfa: $rsp .ra: .cfa 8 - ^
STACK CFI 24cc0 .cfa: $rsp 128 +
STACK CFI INIT 24dd0 223 .cfa: $rsp .ra: .cfa 8 - ^
STACK CFI 24dd0 .cfa: $rsp 160 +
STACK CFI INIT 25000 101 .cfa: $rsp .ra: .cfa 8 - ^
STACK CFI 25000 .cfa: $rsp 64 +
STACK CFI INIT 25110 3fb .cfa: $rsp .ra: .cfa 8 - ^
STACK CFI 25110 .cfa: $rsp 160 +
STACK CFI INIT 25510 117 .cfa: $rsp .ra: .cfa 8 - ^
STACK CFI 25510 .cfa: $rsp 128 +
STACK CFI INIT 25630 b4 .cfa: $rsp .ra: .cfa 8 - ^
STACK CFI 25630 .cfa: $rsp 64 +
STACK CFI INIT 256f0 34d .cfa: $rsp .ra: .cfa 8 - ^
STACK CFI 256f0 .cfa: $rsp 176 +
STACK CFI INIT 25a40 303 .cfa: $rsp .ra: .cfa 8 - ^
STACK CFI 25a40 .cfa: $rsp 176 +
STACK CFI INIT 25d50 117 .cfa: $rsp .ra: .cfa 8 - ^
STACK CFI 25d50 .cfa: $rsp 80 +
STACK CFI INIT 25e70 396 .cfa: $rsp .ra: .cfa 8 - ^
STACK CFI 25e70 .cfa: $rsp 176 +
STACK CFI INIT 26210 2e0 .cfa: $rsp .ra: .cfa 8 - ^
STACK CFI 26210 .cfa: $rsp 96 +
STACK CFI INIT 264f0 28 .cfa: $rsp .ra: .cfa 8 - ^
STACK CFI 264f0 .cfa: $rsp 8 +
STACK CFI INIT 26520 28 .cfa: $rsp .ra: .cfa 8 - ^
STACK CFI 26520 .cfa: $rsp 8 +
STACK CFI INIT 26550 16 .cfa: $rsp .ra: .cfa 8 - ^
STACK CFI 26550 .cfa: $rsp 8 +
STACK CFI INIT 26570 b7 .cfa: $rsp .ra: .cfa 8 - ^
STACK CFI 26570 .cfa: $rsp 96 +
STACK CFI INIT 26630 b7 .cfa: $rsp .ra: .cfa 8 - ^
STACK CFI 26630 .cfa: $rsp 96 +
STACK CFI INIT 266f0 17c .cfa: $rsp .ra: .cfa 8 - ^
STACK CFI 266f0 .cfa: $rsp 96 +
STACK CFI INIT 26870 9d .cfa: $rsp .ra: .cfa 8 - ^
STACK CFI 26870 .cfa: $rsp 128 +
STACK CFI INIT 26910 10c .cfa: $rsp .ra: .cfa 8 - ^
STACK CFI 26910 .cfa: $rsp 144 +
STACK CFI INIT 26a20 18b .cfa: $rsp .ra: .cfa 8 - ^
STACK CFI 26a20 .cfa: $rsp 160 +
STACK CFI INIT 26bb0 180 .cfa: $rsp .ra: .cfa 8 - ^
STACK CFI 26bb0 .cfa: $rsp 96 +
STACK CFI INIT 26d30 380 .cfa: $rsp .ra: .cfa 8 - ^
STACK CFI 26d30 .cfa: $rsp 112 +
STACK CFI INIT 270b0 19c .cfa: $rsp .ra: .cfa 8 - ^
STACK CFI 270b0 .cfa: $rsp 96 +
STACK CFI INIT 27250 17c .cfa: $rsp .ra: .cfa 8 - ^
STACK CFI 27250 .cfa: $rsp 96 +
STACK CFI INIT 273d0 154 .cfa: $rsp .ra: .cfa 8 - ^
STACK CFI 273d0 .cfa: $rsp 112 +
STACK CFI INIT 27530 35a .cfa: $rsp .ra: .cfa 8 - ^
STACK CFI 27530 .cfa: $rsp 144 +
STACK CFI INIT 27890 152 .cfa: $rsp .ra: .cfa 8 - ^
STACK CFI 27890 .cfa: $rsp 80 +
STACK CFI INIT 279f0 1df .cfa: $rsp .ra: .cfa 8 - ^
STACK CFI 279f0 .cfa: $rsp 144 +
STACK CFI INIT 27bd0 283 .cfa: $rsp .ra: .cfa 8 - ^
STACK CFI 27bd0 .cfa: $rsp 160 +
STACK CFI INIT 27e60 3d8 .cfa: $rsp .ra: .cfa 8 - ^
STACK CFI 27e60 .cfa: $rsp 192 +
STACK CFI INIT 28240 5d8 .cfa: $rsp .ra: .cfa 8 - ^
STACK CFI 28240 .cfa: $rsp 208 +
STACK CFI INIT 28820 1ad .cfa: $rsp .ra: .cfa 8 - ^
STACK CFI 28820 .cfa: $rsp 112 +
STACK CFI INIT 289d0 125 .cfa: $rsp .ra: .cfa 8 - ^
STACK CFI 289d0 .cfa: $rsp 112 +
STACK CFI INIT 28b00 217 .cfa: $rsp .ra: .cfa 8 - ^
STACK CFI 28b00 .cfa: $rsp 128 +
STACK CFI INIT 28d20 240 .cfa: $rsp .ra: .cfa 8 - ^
STACK CFI 28d20 .cfa: $rsp 128 +
STACK CFI INIT 28f60 f9 .cfa: $rsp .ra: .cfa 8 - ^
STACK CFI 28f60 .cfa: $rsp 64 +
STACK CFI INIT 29060 1bd .cfa: $rsp .ra: .cfa 8 - ^
STACK CFI 29060 .cfa: $rsp 112 +
STACK CFI INIT 29220 167 .cfa: $rsp .ra: .cfa 8 - ^
STACK CFI 29220 .cfa: $rsp 96 +
STACK CFI INIT 29390 d5 .cfa: $rsp .ra: .cfa 8 - ^
STACK CFI 29390 .cfa: $rsp 128 +
STACK CFI INIT 29470 498 .cfa: $rsp .ra: .cfa 8 - ^
STACK CFI 29470 .cfa: $rsp 160 +
STACK CFI INIT 29910 1c8 .cfa: $rsp .ra: .cfa 8 - ^
STACK CFI 29910 .cfa: $rsp 128 +
STACK CFI INIT 29ae0 1e8 .cfa: $rsp .ra: .cfa 8 - ^
STACK CFI 29ae0 .cfa: $rsp 128 +
STACK CFI INIT 29cd0 125 .cfa: $rsp .ra: .cfa 8 - ^
STACK CFI 29cd0 .cfa: $rsp 128 +
STACK CFI INIT 29e00 1a8 .cfa: $rsp .ra: .cfa 8 - ^
STACK CFI 29e00 .cfa: $rsp 128 +
STACK CFI INIT 29fb0 168 .cfa: $rsp .ra: .cfa 8 - ^
STACK CFI 29fb0 .cfa: $rsp 128 +
STACK CFI INIT 2a120 188 .cfa: $rsp .ra: .cfa 8 - ^
STACK CFI 2a120 .cfa: $rsp 128 +
STACK CFI INIT 2a2b0 238 .cfa: $rsp .ra: .cfa 8 - ^
STACK CFI 2a2b0 .cfa: $rsp 128 +
STACK CFI INIT 2a4f0 1cc .cfa: $rsp .ra: .cfa 8 - ^
STACK CFI 2a4f0 .cfa: $rsp 96 +
STACK CFI INIT 2a6c0 1ef .cfa: $rsp .ra: .cfa 8 - ^
STACK CFI 2a6c0 .cfa: $rsp 112 +
STACK CFI INIT 2a8b0 1d9 .cfa: $rsp .ra: .cfa 8 - ^
STACK CFI 2a8b0 .cfa: $rsp 96 +
STACK CFI INIT 2aa90 240 .cfa: $rsp .ra: .cfa 8 - ^
STACK CFI 2aa90 .cfa: $rsp 128 +
STACK CFI INIT 2acd0 2a8 .cfa: $rsp .ra: .cfa 8 - ^
STACK CFI 2acd0 .cfa: $rsp 128 +
STACK CFI INIT 2af80 c2 .cfa: $rsp .ra: .cfa 8 - ^
STACK CFI 2af80 .cfa: $rsp 96 +
STACK CFI INIT 2b050 f4 .cfa: $rsp .ra: .cfa 8 - ^
STACK CFI 2b050 .cfa: $rsp 128 +
STACK CFI INIT 2b150 10f .cfa: $rsp .ra: .cfa 8 - ^
STACK CFI 2b150 .cfa: $rsp 128 +
STACK CFI INIT 2b260 124 .cfa: $rsp .ra: .cfa 8 - ^
STACK CFI 2b260 .cfa: $rsp 128 +
STACK CFI INIT 2b390 d4 .cfa: $rsp .ra: .cfa 8 - ^
STACK CFI 2b390 .cfa: $rsp 80 +
STACK CFI INIT 2b470 d4 .cfa: $rsp .ra: .cfa 8 - ^
STACK CFI 2b470 .cfa: $rsp 80 +
STACK CFI INIT 2b550 e2 .cfa: $rsp .ra: .cfa 8 - ^
STACK CFI 2b550 .cfa: $rsp 96 +
STACK CFI INIT 2b640 1fa .cfa: $rsp .ra: .cfa 8 - ^
STACK CFI 2b640 .cfa: $rsp 128 +
STACK CFI INIT 2b840 217 .cfa: $rsp .ra: .cfa 8 - ^
STACK CFI 2b840 .cfa: $rsp 144 +
STACK CFI INIT 2ba60 217 .cfa: $rsp .ra: .cfa 8 - ^
STACK CFI 2ba60 .cfa: $rsp 144 +
STACK CFI INIT 2bc80 117 .cfa: $rsp .ra: .cfa 8 - ^
STACK CFI 2bc80 .cfa: $rsp 96 +
STACK CFI INIT 2bda0 108 .cfa: $rsp .ra: .cfa 8 - ^
STACK CFI 2bda0 .cfa: $rsp 96 +
STACK CFI INIT 2beb0 1c6 .cfa: $rsp .ra: .cfa 8 - ^
STACK CFI 2beb0 .cfa: $rsp 144 +
STACK CFI INIT 2c080 270 .cfa: $rsp .ra: .cfa 8 - ^
STACK CFI 2c080 .cfa: $rsp 144 +
STACK CFI INIT 2c2f0 135 .cfa: $rsp .ra: .cfa 8 - ^
STACK CFI 2c2f0 .cfa: $rsp 96 +
STACK CFI INIT 2c430 108 .cfa: $rsp .ra: .cfa 8 - ^
STACK CFI 2c430 .cfa: $rsp 96 +
STACK CFI INIT 2c540 185 .cfa: $rsp .ra: .cfa 8 - ^
STACK CFI 2c540 .cfa: $rsp 96 +
STACK CFI INIT 2c6d0 7bf .cfa: $rsp .ra: .cfa 8 - ^
STACK CFI 2c6d0 .cfa: $rsp 224 +
STACK CFI INIT 2ce90 4a4 .cfa: $rsp .ra: .cfa 8 - ^
STACK CFI 2ce90 .cfa: $rsp 448 +
STACK CFI INIT 2d340 258 .cfa: $rsp .ra: .cfa 8 - ^
STACK CFI 2d340 .cfa: $rsp 128 +
STACK CFI INIT 2d5a0 2aa .cfa: $rsp .ra: .cfa 8 - ^
STACK CFI 2d5a0 .cfa: $rsp 128 +
STACK CFI INIT 2d850 5cc .cfa: $rsp .ra: .cfa 8 - ^
STACK CFI 2d850 .cfa: $rsp 176 +
STACK CFI INIT 2de20 26d .cfa: $rsp .ra: .cfa 8 - ^
STACK CFI 2de20 .cfa: $rsp 160 +
STACK CFI INIT 2e090 2e0 .cfa: $rsp .ra: .cfa 8 - ^
STACK CFI 2e090 .cfa: $rsp 176 +
STACK CFI INIT 2e370 742 .cfa: $rsp .ra: .cfa 8 - ^
STACK CFI 2e370 .cfa: $rsp 384 +
STACK CFI INIT 2eac0 e8 .cfa: $rsp .ra: .cfa 8 - ^
STACK CFI 2eac0 .cfa: $rsp 112 +
STACK CFI INIT 2ebb0 1e .cfa: $rsp .ra: .cfa 8 - ^
STACK CFI 2ebb0 .cfa: $rsp 48 +
STACK CFI INIT 2ebd0 e .cfa: $rsp .ra: .cfa 8 - ^
STACK CFI 2ebd0 .cfa: $rsp 8 +
STACK CFI INIT 2ebe0 e .cfa: $rsp .ra: .cfa 8 - ^
STACK CFI 2ebe0 .cfa: $rsp 8 +
STACK CFI INIT 2ebf0 e .cfa: $rsp .ra: .cfa 8 - ^
STACK CFI 2ebf0 .cfa: $rsp 8 +
STACK CFI INIT 2ec00 e .cfa: $rsp .ra: .cfa 8 - ^
STACK CFI 2ec00 .cfa: $rsp 8 +
STACK CFI INIT 2ec10 e .cfa: $rsp .ra: .cfa 8 - ^
STACK CFI 2ec10 .cfa: $rsp 8 +
STACK CFI INIT 2ec20 e .cfa: $rsp .ra: .cfa 8 - ^
STACK CFI 2ec20 .cfa: $rsp 8 +
STACK CFI INIT 2ec30 e .cfa: $rsp .ra: .cfa 8 - ^
STACK CFI 2ec30 .cfa: $rsp 8 +
STACK CFI INIT 2ec40 e .cfa: $rsp .ra: .cfa 8 - ^
STACK CFI 2ec40 .cfa: $rsp 8 +
STACK CFI INIT 2ec50 e .cfa: $rsp .ra: .cfa 8 - ^
STACK CFI 2ec50 .cfa: $rsp 8 +
STACK CFI INIT 2ec60 e .cfa: $rsp .ra: .cfa 8 - ^
STACK CFI 2ec60 .cfa: $rsp 8 +
STACK CFI INIT 2ec70 d8 .cfa: $rsp .ra: .cfa 8 - ^
STACK CFI 2ec70 .cfa: $rsp 80 +
STACK CFI INIT 2ed50 5d .cfa: $rsp .ra: .cfa 8 - ^
STACK CFI 2ed50 .cfa: $rsp 80 +
STACK CFI INIT 2edb0 23 .cfa: $rsp .ra: .cfa 8 - ^
STACK CFI 2edb0 .cfa: $rsp 8 +
STACK CFI INIT 2ede0 43 .cfa: $rsp .ra: .cfa 8 - ^
STACK CFI 2ede0 .cfa: $rsp 48 +
STACK CFI INIT 2ee30 f .cfa: $rsp .ra: .cfa 8 - ^
STACK CFI 2ee30 .cfa: $rsp 8 +
STACK CFI INIT 2ee40 27 .cfa: $rsp .ra: .cfa 8 - ^
STACK CFI 2ee40 .cfa: $rsp 48 +
STACK CFI INIT 2ee70 23e .cfa: $rsp .ra: .cfa 8 - ^
STACK CFI 2ee70 .cfa: $rsp 128 +
STACK CFI INIT 2f0b0 a0 .cfa: $rsp .ra: .cfa 8 - ^
STACK CFI 2f0b0 .cfa: $rsp 8 +
STACK CFI INIT 2f150 1f .cfa: $rsp .ra: .cfa 8 - ^
STACK CFI 2f150 .cfa: $rsp 48 +
STACK CFI INIT 2f170 220 .cfa: $rsp .ra: .cfa 8 - ^
STACK CFI 2f170 .cfa: $rsp 128 +
STACK CFI INIT 2f390 186 .cfa: $rsp .ra: .cfa 8 - ^
STACK CFI 2f390 .cfa: $rsp 112 +
STACK CFI INIT 2f520 8c .cfa: $rsp .ra: .cfa 8 - ^
STACK CFI 2f520 .cfa: $rsp 80 +
STACK CFI INIT 2f5b0 652 .cfa: $rsp .ra: .cfa 8 - ^
STACK CFI 2f5b0 .cfa: $rsp 336 +
STACK CFI INIT 2fc10 d .cfa: $rsp .ra: .cfa 8 - ^
STACK CFI 2fc10 .cfa: $rsp 8 +
STACK CFI INIT 2fc20 5d .cfa: $rsp .ra: .cfa 8 - ^
STACK CFI 2fc20 .cfa: $rsp 64 +
STACK CFI INIT 2fc80 54 .cfa: $rsp .ra: .cfa 8 - ^
STACK CFI 2fc80 .cfa: $rsp 64 +
STACK CFI INIT 2fce0 29 .cfa: $rsp .ra: .cfa 8 - ^
STACK CFI 2fce0 .cfa: $rsp 64 +
STACK CFI INIT 2fd10 39a .cfa: $rsp .ra: .cfa 8 - ^
STACK CFI 2fd10 .cfa: $rsp 176 +
STACK CFI INIT 300b0 3bb .cfa: $rsp .ra: .cfa 8 - ^
STACK CFI 300b0 .cfa: $rsp 176 +
STACK CFI INIT 30470 4af .cfa: $rsp .ra: .cfa 8 - ^
STACK CFI 30470 .cfa: $rsp 176 +
STACK CFI INIT 30920 266 .cfa: $rsp .ra: .cfa 8 - ^
STACK CFI 30920 .cfa: $rsp 176 +
STACK CFI INIT 30b90 3b8 .cfa: $rsp .ra: .cfa 8 - ^
STACK CFI 30b90 .cfa: $rsp 176 +
STACK CFI INIT 30f50 f4 .cfa: $rsp .ra: .cfa 8 - ^
STACK CFI 30f50 .cfa: $rsp 8 +
STACK CFI INIT 31050 3eb .cfa: $rsp .ra: .cfa 8 - ^
STACK CFI 31050 .cfa: $rsp 160 +
STACK CFI INIT 31440 9ea .cfa: $rsp .ra: .cfa 8 - ^
STACK CFI 31440 .cfa: $rsp 224 +
STACK CFI INIT 31e30 24b .cfa: $rsp .ra: .cfa 8 - ^
STACK CFI 31e30 .cfa: $rsp 128 +
STACK CFI INIT 32080 2e .cfa: $rsp .ra: .cfa 8 - ^
STACK CFI 32080 .cfa: $rsp 8 +
STACK CFI INIT 320b0 11f .cfa: $rsp .ra: .cfa 8 - ^
STACK CFI 320b0 .cfa: $rsp 80 +
STACK CFI INIT 321d0 1ed .cfa: $rsp .ra: .cfa 8 - ^
STACK CFI 321d0 .cfa: $rsp 112 +
STACK CFI INIT 323c0 30 .cfa: $rsp .ra: .cfa 8 - ^
STACK CFI 323c0 .cfa: $rsp 64 +
STACK CFI INIT 323f0 39b .cfa: $rsp .ra: .cfa 8 - ^
STACK CFI 323f0 .cfa: $rsp 144 +
STACK CFI INIT 32790 30 .cfa: $rsp .ra: .cfa 8 - ^
STACK CFI 32790 .cfa: $rsp 64 +
STACK CFI INIT 327c0 1f5 .cfa: $rsp .ra: .cfa 8 - ^
STACK CFI 327c0 .cfa: $rsp 80 +
STACK CFI INIT 329c0 42 .cfa: $rsp .ra: .cfa 8 - ^
STACK CFI 329c0 .cfa: $rsp 8 +
STACK CFI INIT 32a10 175 .cfa: $rsp .ra: .cfa 8 - ^
STACK CFI 32a10 .cfa: $rsp 96 +
STACK CFI INIT 32b90 34 .cfa: $rsp .ra: .cfa 8 - ^
STACK CFI 32b90 .cfa: $rsp 8 +
STACK CFI INIT 32bd0 1 .cfa: $rsp .ra: .cfa 8 - ^
STACK CFI 32bd0 .cfa: $rsp 8 +
STACK CFI INIT 32be0 1 .cfa: $rsp .ra: .cfa 8 - ^
STACK CFI 32be0 .cfa: $rsp 8 +
STACK CFI INIT 32bf0 1 .cfa: $rsp .ra: .cfa 8 - ^
STACK CFI 32bf0 .cfa: $rsp 8 +
STACK CFI INIT 32c00 1 .cfa: $rsp .ra: .cfa 8 - ^
STACK CFI 32c00 .cfa: $rsp 8 +
STACK CFI INIT 32c10 169 .cfa: $rsp .ra: .cfa 8 - ^
STACK CFI 32c10 .cfa: $rsp 128 +
STACK CFI INIT 32d80 81f0 .cfa: $rsp .ra: .cfa 8 - ^
STACK CFI 32d80 .cfa: $rsp 848 +
STACK CFI INIT 3af70 3e6 .cfa: $rsp .ra: .cfa 8 - ^
STACK CFI 3af70 .cfa: $rsp 96 +
STACK CFI INIT 3b360 2db .cfa: $rsp .ra: .cfa 8 - ^
STACK CFI 3b360 .cfa: $rsp 160 +
STACK CFI INIT 3b640 2e6 .cfa: $rsp .ra: .cfa 8 - ^
STACK CFI 3b640 .cfa: $rsp 144 +
STACK CFI INIT 3b930 ad .cfa: $rsp .ra: .cfa 8 - ^
STACK CFI 3b930 .cfa: $rsp 96 +
STACK CFI INIT 3b9e0 53f .cfa: $rsp .ra: .cfa 8 - ^
STACK CFI 3b9e0 .cfa: $rsp 208 +
STACK CFI INIT 3bf20 991 .cfa: $rsp .ra: .cfa 8 - ^
STACK CFI 3bf20 .cfa: $rsp 320 +
STACK CFI INIT 3c8c0 94 .cfa: $rsp .ra: .cfa 8 - ^
STACK CFI 3c8c0 .cfa: $rsp 112 +
STACK CFI INIT 3c960 13 .cfa: $rsp .ra: .cfa 8 - ^
STACK CFI 3c960 .cfa: $rsp 8 +
STACK CFI INIT 3c980 31 .cfa: $rsp .ra: .cfa 8 - ^
STACK CFI 3c980 .cfa: $rsp 48 +
STACK CFI INIT 3c9c0 21 .cfa: $rsp .ra: .cfa 8 - ^
STACK CFI 3c9c0 .cfa: $rsp 48 +
STACK CFI INIT 3c9f0 21 .cfa: $rsp .ra: .cfa 8 - ^
STACK CFI 3c9f0 .cfa: $rsp 48 +
STACK CFI INIT 3ca20 90 .cfa: $rsp .ra: .cfa 8 - ^
STACK CFI 3ca20 .cfa: $rsp 80 +
STACK CFI INIT 3cab0 b8 .cfa: $rsp .ra: .cfa 8 - ^
STACK CFI 3cab0 .cfa: $rsp 48 +
STACK CFI INIT 3cb70 a0 .cfa: $rsp .ra: .cfa 8 - ^
STACK CFI 3cb70 .cfa: $rsp 48 +
STACK CFI INIT 3cc10 99 .cfa: $rsp .ra: .cfa 8 - ^
STACK CFI 3cc10 .cfa: $rsp 16 +
STACK CFI INIT 3ccb0 17d .cfa: $rsp .ra: .cfa 8 - ^
STACK CFI 3ccb0 .cfa: $rsp 96 +
STACK CFI INIT 3ce30 b2 .cfa: $rsp .ra: .cfa 8 - ^
STACK CFI 3ce30 .cfa: $rsp 64 +
STACK CFI INIT 3cef0 14e .cfa: $rsp .ra: .cfa 8 - ^
STACK CFI 3cef0 .cfa: $rsp 64 +
STACK CFI INIT 3d040 e7 .cfa: $rsp .ra: .cfa 8 - ^
STACK CFI 3d040 .cfa: $rsp 96 +
STACK CFI INIT 3d130 141 .cfa: $rsp .ra: .cfa 8 - ^
STACK CFI 3d130 .cfa: $rsp 48 +
STACK CFI INIT 3d280 64a .cfa: $rsp .ra: .cfa 8 - ^
STACK CFI 3d280 .cfa: $rsp 144 +
STACK CFI INIT 3d8d0 31ba .cfa: $rsp .ra: .cfa 8 - ^
STACK CFI 3d8d0 .cfa: $rsp 144 +
STACK CFI INIT 40a90 8 .cfa: $rsp .ra: .cfa 8 - ^
STACK CFI 40a90 .cfa: $rsp 8 +
STACK CFI INIT 40aa0 1b1 .cfa: $rsp .ra: .cfa 8 - ^
STACK CFI 40aa0 .cfa: $rsp 80 +
STACK CFI INIT 40c60 de .cfa: $rsp .ra: .cfa 8 - ^
STACK CFI 40c60 .cfa: $rsp 64 +
STACK CFI INIT 40d40 147 .cfa: $rsp .ra: .cfa 8 - ^
STACK CFI 40d40 .cfa: $rsp 112 +
STACK CFI INIT 40e90 21 .cfa: $rsp .ra: .cfa 8 - ^
STACK CFI 40e90 .cfa: $rsp 8 +
STACK CFI INIT 40ec0 99 .cfa: $rsp .ra: .cfa 8 - ^
STACK CFI 40ec0 .cfa: $rsp 112 +
STACK CFI INIT 40f60 99 .cfa: $rsp .ra: .cfa 8 - ^
STACK CFI 40f60 .cfa: $rsp 112 +
STACK CFI INIT 41000 120 .cfa: $rsp .ra: .cfa 8 - ^
STACK CFI 41000 .cfa: $rsp 96 +
STACK CFI INIT 41120 60 .cfa: $rsp .ra: .cfa 8 - ^
STACK CFI 41120 .cfa: $rsp 64 +
STACK CFI INIT 41180 b8 .cfa: $rsp .ra: .cfa 8 - ^
STACK CFI 41180 .cfa: $rsp 112 +
STACK CFI INIT 41240 19e .cfa: $rsp .ra: .cfa 8 - ^
STACK CFI 41240 .cfa: $rsp 96 +
STACK CFI INIT 413e0 89 .cfa: $rsp .ra: .cfa 8 - ^
STACK CFI 413e0 .cfa: $rsp 64 +
STACK CFI INIT 41470 86 .cfa: $rsp .ra: .cfa 8 - ^
STACK CFI 41470 .cfa: $rsp 64 +
STACK CFI INIT 41500 38 .cfa: $rsp .ra: .cfa 8 - ^
STACK CFI 41500 .cfa: $rsp 8 +
STACK CFI INIT 41540 e .cfa: $rsp .ra: .cfa 8 - ^
STACK CFI 41540 .cfa: $rsp 8 +
STACK CFI INIT 41550 31 .cfa: $rsp .ra: .cfa 8 - ^
STACK CFI 41550 .cfa: $rsp 8 +
STACK CFI INIT 41590 f2 .cfa: $rsp .ra: .cfa 8 - ^
STACK CFI 41590 .cfa: $rsp 80 +
STACK CFI INIT 41690 11 .cfa: $rsp .ra: .cfa 8 - ^
STACK CFI 41690 .cfa: $rsp 8 +
STACK CFI INIT 416b0 c1 .cfa: $rsp .ra: .cfa 8 - ^
STACK CFI 416b0 .cfa: $rsp 48 +
STACK CFI INIT 41780 a0 .cfa: $rsp .ra: .cfa 8 - ^
STACK CFI 41780 .cfa: $rsp 96 +
STACK CFI INIT 41820 2a7 .cfa: $rsp .ra: .cfa 8 - ^
STACK CFI 41820 .cfa: $rsp 80 +
STACK CFI INIT 41ad0 27b .cfa: $rsp .ra: .cfa 8 - ^
STACK CFI 41ad0 .cfa: $rsp 80 +
STACK CFI INIT 41d50 95 .cfa: $rsp .ra: .cfa 8 - ^
STACK CFI 41d50 .cfa: $rsp 80 +
STACK CFI INIT 41df0 42 .cfa: $rsp .ra: .cfa 8 - ^
STACK CFI 41df0 .cfa: $rsp 64 +
STACK CFI INIT 41e40 110 .cfa: $rsp .ra: .cfa 8 - ^
STACK CFI 41e40 .cfa: $rsp 112 +
STACK CFI INIT 41f50 2e .cfa: $rsp .ra: .cfa 8 - ^
STACK CFI 41f50 .cfa: $rsp 8 +
STACK CFI INIT 41f80 a5 .cfa: $rsp .ra: .cfa 8 - ^
STACK CFI 41f80 .cfa: $rsp 80 +
STACK CFI INIT 42030 69 .cfa: $rsp .ra: .cfa 8 - ^
STACK CFI 42030 .cfa: $rsp 80 +
STACK CFI INIT 420a0 67 .cfa: $rsp .ra: .cfa 8 - ^
STACK CFI 420a0 .cfa: $rsp 64 +
STACK CFI INIT 42110 29 .cfa: $rsp .ra: .cfa 8 - ^
STACK CFI 42110 .cfa: $rsp 64 +
STACK CFI INIT 42140 726 .cfa: $rsp .ra: .cfa 8 - ^
STACK CFI 42140 .cfa: $rsp 240 +
STACK CFI INIT 42870 1a .cfa: $rsp .ra: .cfa 8 - ^
STACK CFI 42870 .cfa: $rsp 48 +
STACK CFI INIT 42890 860 .cfa: $rsp .ra: .cfa 8 - ^
STACK CFI 42890 .cfa: $rsp 272 +
STACK CFI INIT 430f0 3b .cfa: $rsp .ra: .cfa 8 - ^
STACK CFI 430f0 .cfa: $rsp 80 +
STACK CFI INIT 43130 9 .cfa: $rsp .ra: .cfa 8 - ^
STACK CFI 43130 .cfa: $rsp 8 +
STACK CFI INIT 43140 7d .cfa: $rsp .ra: .cfa 8 - ^
STACK CFI 43140 .cfa: $rsp 48 +
STACK CFI INIT 431c0 8d .cfa: $rsp .ra: .cfa 8 - ^
STACK CFI 431c0 .cfa: $rsp 48 +
STACK CFI INIT 43250 71b .cfa: $rsp .ra: .cfa 8 - ^
STACK CFI 43250 .cfa: $rsp 224 +
STACK CFI INIT 43970 d7e .cfa: $rsp .ra: .cfa 8 - ^
STACK CFI 43970 .cfa: $rsp 208 +
STACK CFI INIT 446f0 e96 .cfa: $rsp .ra: .cfa 8 - ^
STACK CFI 446f0 .cfa: $rsp 320 +
STACK CFI INIT 45590 f35 .cfa: $rsp .ra: .cfa 8 - ^
STACK CFI 45590 .cfa: $rsp 240 +
STACK CFI INIT 464d0 45 .cfa: $rsp .ra: .cfa 8 - ^
STACK CFI 464d0 .cfa: $rsp 80 +
STACK CFI INIT 46520 dcb .cfa: $rsp .ra: .cfa 8 - ^
STACK CFI 46520 .cfa: $rsp 304 +
STACK CFI INIT 472f0 4f .cfa: $rsp .ra: .cfa 8 - ^
STACK CFI 472f0 .cfa: $rsp 64 +
STACK CFI INIT 47340 3a .cfa: $rsp .ra: .cfa 8 - ^
STACK CFI 47340 .cfa: $rsp 8 +
STACK CFI INIT 47380 a4 .cfa: $rsp .ra: .cfa 8 - ^
STACK CFI 47380 .cfa: $rsp 48 +
STACK CFI INIT 47430 a2 .cfa: $rsp .ra: .cfa 8 - ^
STACK CFI 47430 .cfa: $rsp 8 +
STACK CFI INIT 474e0 1a1 .cfa: $rsp .ra: .cfa 8 - ^
STACK CFI 474e0 .cfa: $rsp 96 +
STACK CFI INIT 47690 35 .cfa: $rsp .ra: .cfa 8 - ^
STACK CFI 47690 .cfa: $rsp 8 +
STACK CFI INIT 476d0 21 .cfa: $rsp .ra: .cfa 8 - ^
STACK CFI 476d0 .cfa: $rsp 8 +
STACK CFI INIT 47700 6a .cfa: $rsp .ra: .cfa 8 - ^
STACK CFI 47700 .cfa: $rsp 48 +
STACK CFI INIT 47770 4f .cfa: $rsp .ra: .cfa 8 - ^
STACK CFI 47770 .cfa: $rsp 8 +
STACK CFI INIT 477c0 1a1 .cfa: $rsp .ra: .cfa 8 - ^
STACK CFI 477c0 .cfa: $rsp 64 +
STACK CFI INIT 47970 1a1 .cfa: $rsp .ra: .cfa 8 - ^
STACK CFI 47970 .cfa: $rsp 64 +
STACK CFI INIT 47b20 19 .cfa: $rsp .ra: .cfa 8 - ^
STACK CFI 47b20 .cfa: $rsp 8 +
STACK CFI INIT 47b40 3d .cfa: $rsp .ra: .cfa 8 - ^
STACK CFI 47b40 .cfa: $rsp 48 +
STACK CFI INIT 47b80 17 .cfa: $rsp .ra: .cfa 8 - ^
STACK CFI 47b80 .cfa: $rsp 48 +
STACK CFI INIT 47ba0 6c .cfa: $rsp .ra: .cfa 8 - ^
STACK CFI 47ba0 .cfa: $rsp 48 +
STACK CFI INIT 47c10 32 .cfa: $rsp .ra: .cfa 8 - ^
STACK CFI 47c10 .cfa: $rsp 48 +
STACK CFI INIT 47c50 47 .cfa: $rsp .ra: .cfa 8 - ^
STACK CFI 47c50 .cfa: $rsp 8 +
STACK CFI INIT 47ca0 7d0 .cfa: $rsp .ra: .cfa 8 - ^
STACK CFI 47ca0 .cfa: $rsp 208 +
STACK CFI INIT 48470 82f .cfa: $rsp .ra: .cfa 8 - ^
STACK CFI 48470 .cfa: $rsp 192 +
STACK CFI INIT 48ca0 62d .cfa: $rsp .ra: .cfa 8 - ^
STACK CFI 48ca0 .cfa: $rsp 192 +
STACK CFI INIT 492d0 14c9 .cfa: $rsp .ra: .cfa 8 - ^
STACK CFI 492d0 .cfa: $rsp 256 +
STACK CFI INIT 4a7a0 43 .cfa: $rsp .ra: .cfa 8 - ^
STACK CFI 4a7a0 .cfa: $rsp 48 +
STACK CFI INIT 4a7f0 326 .cfa: $rsp .ra: .cfa 8 - ^
STACK CFI 4a7f0 .cfa: $rsp 96 +
STACK CFI INIT 4ab20 134 .cfa: $rsp .ra: .cfa 8 - ^
STACK CFI 4ab20 .cfa: $rsp 160 +
STACK CFI INIT 4ac60 e2 .cfa: $rsp .ra: .cfa 8 - ^
STACK CFI 4ac60 .cfa: $rsp 128 +
STACK CFI INIT 4ad50 134 .cfa: $rsp .ra: .cfa 8 - ^
STACK CFI 4ad50 .cfa: $rsp 160 +
STACK CFI INIT 4ae90 e2 .cfa: $rsp .ra: .cfa 8 - ^
STACK CFI 4ae90 .cfa: $rsp 128 +
STACK CFI INIT 4af80 a11 .cfa: $rsp .ra: .cfa 8 - ^
STACK CFI 4af80 .cfa: $rsp 176 +
STACK CFI INIT 4b9a0 b68 .cfa: $rsp .ra: .cfa 8 - ^
STACK CFI 4b9a0 .cfa: $rsp 192 +
STACK CFI INIT 4c510 2d .cfa: $rsp .ra: .cfa 8 - ^
STACK CFI 4c510 .cfa: $rsp 8 +
STACK CFI INIT 4c540 147 .cfa: $rsp .ra: .cfa 8 - ^
STACK CFI 4c540 .cfa: $rsp 144 +
STACK CFI INIT 4c690 1ed .cfa: $rsp .ra: .cfa 8 - ^
STACK CFI 4c690 .cfa: $rsp 144 +
STACK CFI INIT 4c880 150 .cfa: $rsp .ra: .cfa 8 - ^
STACK CFI 4c880 .cfa: $rsp 112 +
STACK CFI INIT 4c9d0 11a .cfa: $rsp .ra: .cfa 8 - ^
STACK CFI 4c9d0 .cfa: $rsp 112 +
STACK CFI INIT 4caf0 33d .cfa: $rsp .ra: .cfa 8 - ^
STACK CFI 4caf0 .cfa: $rsp 128 +
STACK CFI INIT 4ce30 e8 .cfa: $rsp .ra: .cfa 8 - ^
STACK CFI 4ce30 .cfa: $rsp 64 +
STACK CFI INIT 4cf20 1f .cfa: $rsp .ra: .cfa 8 - ^
STACK CFI 4cf20 .cfa: $rsp 48 +
STACK CFI INIT 4cf40 16a .cfa: $rsp .ra: .cfa 8 - ^
STACK CFI 4cf40 .cfa: $rsp 128 +
STACK CFI INIT 4d0b0 16a .cfa: $rsp .ra: .cfa 8 - ^
STACK CFI 4d0b0 .cfa: $rsp 128 +
STACK CFI INIT 4d220 145 .cfa: $rsp .ra: .cfa 8 - ^
STACK CFI 4d220 .cfa: $rsp 112 +
STACK CFI INIT 4d370 37e .cfa: $rsp .ra: .cfa 8 - ^
STACK CFI 4d370 .cfa: $rsp 112 +
STACK CFI INIT 4d6f0 343 .cfa: $rsp .ra: .cfa 8 - ^
STACK CFI 4d6f0 .cfa: $rsp 112 +
STACK CFI INIT 4da40 3ae .cfa: $rsp .ra: .cfa 8 - ^
STACK CFI 4da40 .cfa: $rsp 160 +
STACK CFI INIT 4ddf0 92d .cfa: $rsp .ra: .cfa 8 - ^
STACK CFI 4ddf0 .cfa: $rsp 208 +
STACK CFI INIT 4e720 a6b .cfa: $rsp .ra: .cfa 8 - ^
STACK CFI 4e720 .cfa: $rsp 208 +
STACK CFI INIT 4f190 14 .cfa: $rsp .ra: .cfa 8 - ^
STACK CFI 4f190 .cfa: $rsp 8 +
STACK CFI INIT 4f1b0 10 .cfa: $rsp .ra: .cfa 8 - ^
STACK CFI 4f1b0 .cfa: $rsp 8 +
STACK CFI INIT 4f1c0 6a .cfa: $rsp .ra: .cfa 8 - ^
STACK CFI 4f1c0 .cfa: $rsp 48 +
STACK CFI INIT 4f230 246 .cfa: $rsp .ra: .cfa 8 - ^
STACK CFI 4f230 .cfa: $rsp 112 +
STACK CFI INIT 4f480 246 .cfa: $rsp .ra: .cfa 8 - ^
STACK CFI 4f480 .cfa: $rsp 112 +
STACK CFI INIT 4f6d0 28a .cfa: $rsp .ra: .cfa 8 - ^
STACK CFI 4f6d0 .cfa: $rsp 128 +
STACK CFI INIT 4f960 90 .cfa: $rsp .ra: .cfa 8 - ^
STACK CFI 4f960 .cfa: $rsp 80 +
STACK CFI INIT 4f9f0 166 .cfa: $rsp .ra: .cfa 8 - ^
STACK CFI 4f9f0 .cfa: $rsp 176 +
STACK CFI INIT 4fb60 71a .cfa: $rsp .ra: .cfa 8 - ^
STACK CFI 4fb60 .cfa: $rsp 208 +
STACK CFI INIT 50280 619 .cfa: $rsp .ra: .cfa 8 - ^
STACK CFI 50280 .cfa: $rsp 224 +
STACK CFI INIT 508a0 654 .cfa: $rsp .ra: .cfa 8 - ^
STACK CFI 508a0 .cfa: $rsp 224 +
STACK CFI INIT 50f00 4b4 .cfa: $rsp .ra: .cfa 8 - ^
STACK CFI 50f00 .cfa: $rsp 192 +
STACK CFI INIT 513c0 659 .cfa: $rsp .ra: .cfa 8 - ^
STACK CFI 513c0 .cfa: $rsp 192 +
STACK CFI INIT 51a20 5d0 .cfa: $rsp .ra: .cfa 8 - ^
STACK CFI 51a20 .cfa: $rsp 240 +
STACK CFI INIT 51ff0 6da .cfa: $rsp .ra: .cfa 8 - ^
STACK CFI 51ff0 .cfa: $rsp 208 +
STACK CFI INIT 526d0 4d3 .cfa: $rsp .ra: .cfa 8 - ^
STACK CFI 526d0 .cfa: $rsp 192 +
STACK CFI INIT 52bb0 428 .cfa: $rsp .ra: .cfa 8 - ^
STACK CFI 52bb0 .cfa: $rsp 176 +
STACK CFI INIT 52fe0 62e .cfa: $rsp .ra: .cfa 8 - ^
STACK CFI 52fe0 .cfa: $rsp 208 +
STACK CFI INIT 53610 62 .cfa: $rsp .ra: .cfa 8 - ^
STACK CFI 53610 .cfa: $rsp 80 +
STACK CFI INIT 53680 1070 .cfa: $rsp .ra: .cfa 8 - ^
STACK CFI 53680 .cfa: $rsp 848 +
STACK CFI INIT 546f0 ccf .cfa: $rsp .ra: .cfa 8 - ^
STACK CFI 546f0 .cfa: $rsp 800 +
STACK CFI INIT 553c0 1050 .cfa: $rsp .ra: .cfa 8 - ^
STACK CFI 553c0 .cfa: $rsp 2352 +
STACK CFI INIT 56410 b90 .cfa: $rsp .ra: .cfa 8 - ^
STACK CFI 56410 .cfa: $rsp 416 +
STACK CFI INIT 56fa0 b0d .cfa: $rsp .ra: .cfa 8 - ^
STACK CFI 56fa0 .cfa: $rsp 496 +
STACK CFI INIT 57ab0 1386 .cfa: $rsp .ra: .cfa 8 - ^
STACK CFI 57ab0 .cfa: $rsp 480 +
STACK CFI INIT 58e40 9e8 .cfa: $rsp .ra: .cfa 8 - ^
STACK CFI 58e40 .cfa: $rsp 432 +
STACK CFI INIT 59830 b2b .cfa: $rsp .ra: .cfa 8 - ^
STACK CFI 59830 .cfa: $rsp 432 +
STACK CFI INIT 5a360 905 .cfa: $rsp .ra: .cfa 8 - ^
STACK CFI 5a360 .cfa: $rsp 416 +
STACK CFI INIT 5ac70 8d1 .cfa: $rsp .ra: .cfa 8 - ^
STACK CFI 5ac70 .cfa: $rsp 400 +
STACK CFI INIT 5b550 c92 .cfa: $rsp .ra: .cfa 8 - ^
STACK CFI 5b550 .cfa: $rsp 432 +
STACK CFI INIT 5c1f0 c4 .cfa: $rsp .ra: .cfa 8 - ^
STACK CFI 5c1f0 .cfa: $rsp 112 +
STACK CFI INIT 5c2c0 132 .cfa: $rsp .ra: .cfa 8 - ^
STACK CFI 5c2c0 .cfa: $rsp 176 +
STACK CFI INIT 5c400 14 .cfa: $rsp .ra: .cfa 8 - ^
STACK CFI 5c400 .cfa: $rsp 8 +
STACK CFI INIT 5c420 10 .cfa: $rsp .ra: .cfa 8 - ^
STACK CFI 5c420 .cfa: $rsp 8 +
STACK CFI INIT 5c430 aa .cfa: $rsp .ra: .cfa 8 - ^
STACK CFI 5c430 .cfa: $rsp 64 +
STACK CFI INIT 5c4e0 1e5 .cfa: $rsp .ra: .cfa 8 - ^
STACK CFI 5c4e0 .cfa: $rsp 96 +
STACK CFI INIT 5c6d0 171 .cfa: $rsp .ra: .cfa 8 - ^
STACK CFI 5c6d0 .cfa: $rsp 112 +
STACK CFI INIT 5c850 8 .cfa: $rsp .ra: .cfa 8 - ^
STACK CFI 5c850 .cfa: $rsp 8 +
STACK CFI INIT 5c860 b2 .cfa: $rsp .ra: .cfa 8 - ^
STACK CFI 5c860 .cfa: $rsp 80 +
STACK CFI INIT 5c920 b2 .cfa: $rsp .ra: .cfa 8 - ^
STACK CFI 5c920 .cfa: $rsp 80 +
STACK CFI INIT 5c9e0 8a .cfa: $rsp .ra: .cfa 8 - ^
STACK CFI 5c9e0 .cfa: $rsp 48 +
STACK CFI INIT 5ca70 433 .cfa: $rsp .ra: .cfa 8 - ^
STACK CFI 5ca70 .cfa: $rsp 80 +
STACK CFI INIT 5ceb0 1f5 .cfa: $rsp .ra: .cfa 8 - ^
STACK CFI 5ceb0 .cfa: $rsp 128 +
STACK CFI INIT 5d0b0 d1 .cfa: $rsp .ra: .cfa 8 - ^
STACK CFI 5d0b0 .cfa: $rsp 112 +
STACK CFI INIT 5d190 43 .cfa: $rsp .ra: .cfa 8 - ^
STACK CFI 5d190 .cfa: $rsp 8 +
STACK CFI INIT 5d1e0 9 .cfa: $rsp .ra: .cfa 8 - ^
STACK CFI 5d1e0 .cfa: $rsp 8 +
STACK CFI INIT 5d1f0 110 .cfa: $rsp .ra: .cfa 8 - ^
STACK CFI 5d1f0 .cfa: $rsp 64 +
STACK CFI INIT 5d300 68 .cfa: $rsp .ra: .cfa 8 - ^
STACK CFI 5d300 .cfa: $rsp 8 +
STACK CFI INIT 5d370 a .cfa: $rsp .ra: .cfa 8 - ^
STACK CFI 5d370 .cfa: $rsp 8 +
STACK CFI INIT 5d380 b1 .cfa: $rsp .ra: .cfa 8 - ^
STACK CFI 5d380 .cfa: $rsp 80 +
STACK CFI INIT 5d440 27 .cfa: $rsp .ra: .cfa 8 - ^
STACK CFI 5d440 .cfa: $rsp 64 +
STACK CFI INIT 5d470 c1 .cfa: $rsp .ra: .cfa 8 - ^
STACK CFI 5d470 .cfa: $rsp 64 +
STACK CFI INIT 5d540 1 .cfa: $rsp .ra: .cfa 8 - ^
STACK CFI 5d540 .cfa: $rsp 8 +
STACK CFI INIT 5d550 1b4 .cfa: $rsp .ra: .cfa 8 - ^
STACK CFI 5d550 .cfa: $rsp 144 +
STACK CFI INIT 5d710 21 .cfa: $rsp .ra: .cfa 8 - ^
STACK CFI 5d710 .cfa: $rsp 64 +
STACK CFI INIT 5d740 39 .cfa: $rsp .ra: .cfa 8 - ^
STACK CFI 5d740 .cfa: $rsp 304 +
STACK CFI INIT 5d780 2 .cfa: $rsp .ra: .cfa 8 - ^
STACK CFI 5d780 .cfa: $rsp 8 +
STACK CFI INIT 5d790 144 .cfa: $rsp .ra: .cfa 8 - ^
STACK CFI 5d790 .cfa: $rsp 96 +
STACK CFI INIT 5d8e0 5f .cfa: $rsp .ra: .cfa 8 - ^
STACK CFI 5d8e0 .cfa: $rsp 16 +
STACK CFI INIT 5d940 40 .cfa: $rsp .ra: .cfa 8 - ^
STACK CFI 5d940 .cfa: $rsp 16 +
STACK CFI INIT 5d980 15a .cfa: $rsp .ra: .cfa 8 - ^
STACK CFI 5d980 .cfa: $rsp 40 +
STACK CFI INIT 5dae0 11e .cfa: $rsp .ra: .cfa 8 - ^
STACK CFI 5dae0 .cfa: $rsp 64 +
STACK CFI INIT 5dc00 119 .cfa: $rsp .ra: .cfa 8 - ^
STACK CFI 5dc00 .cfa: $rsp 112 +
STACK CFI INIT 5dd20 23a .cfa: $rsp .ra: .cfa 8 - ^
STACK CFI 5dd20 .cfa: $rsp 96 +
STACK CFI INIT 5df60 77 .cfa: $rsp .ra: .cfa 8 - ^
STACK CFI 5df60 .cfa: $rsp 64 +
STACK CFI INIT 5dfe0 c0 .cfa: $rsp .ra: .cfa 8 - ^
STACK CFI 5dfe0 .cfa: $rsp 64 +
STACK CFI INIT 5e0a0 35 .cfa: $rsp .ra: .cfa 8 - ^
STACK CFI 5e0a0 .cfa: $rsp 64 +
STACK CFI INIT 5e0e0 36 .cfa: $rsp .ra: .cfa 8 - ^
STACK CFI 5e0e0 .cfa: $rsp 64 +
STACK CFI INIT 5e120 2b .cfa: $rsp .ra: .cfa 8 - ^
STACK CFI 5e120 .cfa: $rsp 48 +
STACK CFI INIT 5e150 27 .cfa: $rsp .ra: .cfa 8 - ^
STACK CFI 5e150 .cfa: $rsp 8 +
STACK CFI INIT 5e180 102 .cfa: $rsp .ra: .cfa 8 - ^
STACK CFI 5e180 .cfa: $rsp 24 +
STACK CFI INIT 5e290 5 .cfa: $rsp .ra: .cfa 8 - ^
STACK CFI 5e290 .cfa: $rsp 8 +
STACK CFI INIT 5e2a0 9 .cfa: $rsp .ra: .cfa 8 - ^
STACK CFI 5e2a0 .cfa: $rsp 8 +
STACK CFI INIT 5e2b0 39 .cfa: $rsp .ra: .cfa 8 - ^
STACK CFI 5e2b0 .cfa: $rsp 48 +
STACK CFI INIT 5e2f0 57 .cfa: $rsp .ra: .cfa 8 - ^
STACK CFI 5e2f0 .cfa: $rsp 48 +
STACK CFI INIT 5e350 a5 .cfa: $rsp .ra: .cfa 8 - ^
STACK CFI 5e350 .cfa: $rsp 48 +
STACK CFI INIT 5e400 17 .cfa: $rsp .ra: .cfa 8 - ^
STACK CFI 5e400 .cfa: $rsp 8 +
STACK CFI INIT 5e420 2b5 .cfa: $rsp .ra: .cfa 8 - ^
STACK CFI 5e420 .cfa: $rsp 112 +
STACK CFI INIT 5e6e0 77 .cfa: $rsp .ra: .cfa 8 - ^
STACK CFI 5e6e0 .cfa: $rsp 64 +
STACK CFI INIT 5e760 1df .cfa: $rsp .ra: .cfa 8 - ^
STACK CFI 5e760 .cfa: $rsp 128 +
STACK CFI INIT 5e940 9d .cfa: $rsp .ra: .cfa 8 - ^
STACK CFI 5e940 .cfa: $rsp 96 +
STACK CFI INIT 5e9e0 433 .cfa: $rsp .ra: .cfa 8 - ^
STACK CFI 5e9e0 .cfa: $rsp 160 +
STACK CFI INIT 5ee20 6b2 .cfa: $rsp .ra: .cfa 8 - ^
STACK CFI 5ee20 .cfa: $rsp 80 +
STACK CFI INIT 5f4e0 e1 .cfa: $rsp .ra: .cfa 8 - ^
STACK CFI 5f4e0 .cfa: $rsp 96 +
STACK CFI INIT 5f5d0 23c .cfa: $rsp .ra: .cfa 8 - ^
STACK CFI 5f5d0 .cfa: $rsp 112 +
STACK CFI INIT 5f810 cc .cfa: $rsp .ra: .cfa 8 - ^
STACK CFI 5f810 .cfa: $rsp 128 +
STACK CFI INIT 5f8e0 2d .cfa: $rsp .ra: .cfa 8 - ^
STACK CFI 5f8e0 .cfa: $rsp 8 +
STACK CFI INIT 5f910 14 .cfa: $rsp .ra: .cfa 8 - ^
STACK CFI 5f910 .cfa: $rsp 8 +
STACK CFI INIT 5f930 10 .cfa: $rsp .ra: .cfa 8 - ^
STACK CFI 5f930 .cfa: $rsp 8 +
STACK CFI INIT 5f940 b6 .cfa: $rsp .ra: .cfa 8 - ^
STACK CFI 5f940 .cfa: $rsp 48 +
STACK CFI INIT 5fa00 4d5 .cfa: $rsp .ra: .cfa 8 - ^
STACK CFI 5fa00 .cfa: $rsp 128 +
STACK CFI INIT 5fee0 ae8 .cfa: $rsp .ra: .cfa 8 - ^
STACK CFI 5fee0 .cfa: $rsp 144 +
STACK CFI INIT 609d0 3f5 .cfa: $rsp .ra: .cfa 8 - ^
STACK CFI 609d0 .cfa: $rsp 128 +
STACK CFI INIT 60dd0 cd7 .cfa: $rsp .ra: .cfa 8 - ^
STACK CFI 60dd0 .cfa: $rsp 160 +
STACK CFI INIT 61ab0 8 .cfa: $rsp .ra: .cfa 8 - ^
STACK CFI 61ab0 .cfa: $rsp 8 +
STACK CFI INIT 61ac0 1b2 .cfa: $rsp .ra: .cfa 8 - ^
STACK CFI 61ac0 .cfa: $rsp 368 +
STACK CFI INIT 61c80 22 .cfa: $rsp .ra: .cfa 8 - ^
STACK CFI 61c80 .cfa: $rsp 64 +
STACK CFI INIT 61cb0 167 .cfa: $rsp .ra: .cfa 8 - ^
STACK CFI 61cb0 .cfa: $rsp 96 +
STACK CFI INIT 61e20 81 .cfa: $rsp .ra: .cfa 8 - ^
STACK CFI 61e20 .cfa: $rsp 80 +
STACK CFI INIT 61eb0 81 .cfa: $rsp .ra: .cfa 8 - ^
STACK CFI 61eb0 .cfa: $rsp 80 +
STACK CFI INIT 61f40 ff .cfa: $rsp .ra: .cfa 8 - ^
STACK CFI 61f40 .cfa: $rsp 304 +
STACK CFI INIT 62040 32 .cfa: $rsp .ra: .cfa 8 - ^
STACK CFI 62040 .cfa: $rsp 64 +
STACK CFI INIT 62080 145 .cfa: $rsp .ra: .cfa 8 - ^
STACK CFI 62080 .cfa: $rsp 80 +
STACK CFI INIT 621d0 166 .cfa: $rsp .ra: .cfa 8 - ^
STACK CFI 621d0 .cfa: $rsp 96 +
STACK CFI INIT 62340 2ee .cfa: $rsp .ra: .cfa 8 - ^
STACK CFI 62340 .cfa: $rsp 112 +
STACK CFI INIT 62630 30e .cfa: $rsp .ra: .cfa 8 - ^
STACK CFI 62630 .cfa: $rsp 112 +
STACK CFI INIT 62940 6d .cfa: $rsp .ra: .cfa 8 - ^
STACK CFI 62940 .cfa: $rsp 64 +
STACK CFI INIT 629b0 1d .cfa: $rsp .ra: .cfa 8 - ^
STACK CFI 629b0 .cfa: $rsp 64 +
STACK CFI INIT 629d0 3f8 .cfa: $rsp .ra: .cfa 8 - ^
STACK CFI 629d0 .cfa: $rsp 208 +
STACK CFI INIT 62dd0 132 .cfa: $rsp .ra: .cfa 8 - ^
STACK CFI 62dd0 .cfa: $rsp 176 +
STACK CFI INIT 62f10 52 .cfa: $rsp .ra: .cfa 8 - ^
STACK CFI 62f10 .cfa: $rsp 8 +
STACK CFI INIT 62f70 12c .cfa: $rsp .ra: .cfa 8 - ^
STACK CFI 62f70 .cfa: $rsp 96 +
STACK CFI INIT 630a0 12c .cfa: $rsp .ra: .cfa 8 - ^
STACK CFI 630a0 .cfa: $rsp 96 +
STACK CFI INIT 631d0 12c .cfa: $rsp .ra: .cfa 8 - ^
STACK CFI 631d0 .cfa: $rsp 96 +
STACK CFI INIT 63300 12c .cfa: $rsp .ra: .cfa 8 - ^
STACK CFI 63300 .cfa: $rsp 96 +
STACK CFI INIT 63430 12c .cfa: $rsp .ra: .cfa 8 - ^
STACK CFI 63430 .cfa: $rsp 96 +
STACK CFI INIT 63560 12c .cfa: $rsp .ra: .cfa 8 - ^
STACK CFI 63560 .cfa: $rsp 96 +
STACK CFI INIT 63690 12c .cfa: $rsp .ra: .cfa 8 - ^
STACK CFI 63690 .cfa: $rsp 96 +
STACK CFI INIT 637c0 2bc .cfa: $rsp .ra: .cfa 8 - ^
STACK CFI 637c0 .cfa: $rsp 128 +
STACK CFI INIT 63a80 171 .cfa: $rsp .ra: .cfa 8 - ^
STACK CFI 63a80 .cfa: $rsp 80 +
STACK CFI INIT 63c00 12c .cfa: $rsp .ra: .cfa 8 - ^
STACK CFI 63c00 .cfa: $rsp 96 +
STACK CFI INIT 63d30 12c .cfa: $rsp .ra: .cfa 8 - ^
STACK CFI 63d30 .cfa: $rsp 96 +
STACK CFI INIT 63e60 12c .cfa: $rsp .ra: .cfa 8 - ^
STACK CFI 63e60 .cfa: $rsp 96 +
STACK CFI INIT 63f90 12c .cfa: $rsp .ra: .cfa 8 - ^
STACK CFI 63f90 .cfa: $rsp 96 +
STACK CFI INIT 640c0 12c .cfa: $rsp .ra: .cfa 8 - ^
STACK CFI 640c0 .cfa: $rsp 96 +
STACK CFI INIT 641f0 12c .cfa: $rsp .ra: .cfa 8 - ^
STACK CFI 641f0 .cfa: $rsp 96 +
STACK CFI INIT 64320 12c .cfa: $rsp .ra: .cfa 8 - ^
STACK CFI 64320 .cfa: $rsp 96 +
STACK CFI INIT 64450 12c .cfa: $rsp .ra: .cfa 8 - ^
STACK CFI 64450 .cfa: $rsp 96 +
STACK CFI INIT 64580 44b .cfa: $rsp .ra: .cfa 8 - ^
STACK CFI 64580 .cfa: $rsp 304 +
STACK CFI INIT 649d0 9a .cfa: $rsp .ra: .cfa 8 - ^
STACK CFI 649d0 .cfa: $rsp 64 +
STACK CFI INIT 64a70 9a .cfa: $rsp .ra: .cfa 8 - ^
STACK CFI 64a70 .cfa: $rsp 64 +
STACK CFI INIT 64b10 97 .cfa: $rsp .ra: .cfa 8 - ^
STACK CFI 64b10 .cfa: $rsp 64 +
STACK CFI INIT 64bb0 407 .cfa: $rsp .ra: .cfa 8 - ^
STACK CFI 64bb0 .cfa: $rsp 192 +
STACK CFI INIT 64fc0 192 .cfa: $rsp .ra: .cfa 8 - ^
STACK CFI 64fc0 .cfa: $rsp 96 +
STACK CFI INIT 65160 33d .cfa: $rsp .ra: .cfa 8 - ^
STACK CFI 65160 .cfa: $rsp 224 +
STACK CFI INIT 654a0 33d .cfa: $rsp .ra: .cfa 8 - ^
STACK CFI 654a0 .cfa: $rsp 224 +
STACK CFI INIT 657e0 1cc .cfa: $rsp .ra: .cfa 8 - ^
STACK CFI 657e0 .cfa: $rsp 96 +
STACK CFI INIT 659b0 5 .cfa: $rsp .ra: .cfa 8 - ^
STACK CFI 659b0 .cfa: $rsp 8 +
STACK CFI INIT 659c0 8bb .cfa: $rsp .ra: .cfa 8 - ^
STACK CFI 659c0 .cfa: $rsp 208 +
STACK CFI INIT 66280 22 .cfa: $rsp .ra: .cfa 8 - ^
STACK CFI 66280 .cfa: $rsp 64 +
STACK CFI INIT 662b0 22 .cfa: $rsp .ra: .cfa 8 - ^
STACK CFI 662b0 .cfa: $rsp 64 +
STACK CFI INIT 662e0 22 .cfa: $rsp .ra: .cfa 8 - ^
STACK CFI 662e0 .cfa: $rsp 64 +
STACK CFI INIT 66310 22 .cfa: $rsp .ra: .cfa 8 - ^
STACK CFI 66310 .cfa: $rsp 64 +
STACK CFI INIT 66340 22 .cfa: $rsp .ra: .cfa 8 - ^
STACK CFI 66340 .cfa: $rsp 64 +
STACK CFI INIT 66370 22 .cfa: $rsp .ra: .cfa 8 - ^
STACK CFI 66370 .cfa: $rsp 64 +
STACK CFI INIT 663a0 52c .cfa: $rsp .ra: .cfa 8 - ^
STACK CFI 663a0 .cfa: $rsp 192 +
STACK CFI INIT 668d0 9b8 .cfa: $rsp .ra: .cfa 8 - ^
STACK CFI 668d0 .cfa: $rsp 224 +
STACK CFI INIT 67290 22 .cfa: $rsp .ra: .cfa 8 - ^
STACK CFI 67290 .cfa: $rsp 64 +
STACK CFI INIT 672c0 22 .cfa: $rsp .ra: .cfa 8 - ^
STACK CFI 672c0 .cfa: $rsp 64 +
STACK CFI INIT 672f0 22 .cfa: $rsp .ra: .cfa 8 - ^
STACK CFI 672f0 .cfa: $rsp 64 +
STACK CFI INIT 67320 22 .cfa: $rsp .ra: .cfa 8 - ^
STACK CFI 67320 .cfa: $rsp 64 +
STACK CFI INIT 67350 22 .cfa: $rsp .ra: .cfa 8 - ^
STACK CFI 67350 .cfa: $rsp 64 +
STACK CFI INIT 67380 22 .cfa: $rsp .ra: .cfa 8 - ^
STACK CFI 67380 .cfa: $rsp 64 +
STACK CFI INIT 673b0 22 .cfa: $rsp .ra: .cfa 8 - ^
STACK CFI 673b0 .cfa: $rsp 64 +
STACK CFI INIT 673e0 22 .cfa: $rsp .ra: .cfa 8 - ^
STACK CFI 673e0 .cfa: $rsp 64 +
STACK CFI INIT 67410 62 .cfa: $rsp .ra: .cfa 8 - ^
STACK CFI 67410 .cfa: $rsp 80 +
STACK CFI INIT 67480 38d .cfa: $rsp .ra: .cfa 8 - ^
STACK CFI 67480 .cfa: $rsp 352 +
STACK CFI INIT 67810 5 .cfa: $rsp .ra: .cfa 8 - ^
STACK CFI 67810 .cfa: $rsp 8 +
STACK CFI INIT 67820 38d .cfa: $rsp .ra: .cfa 8 - ^
STACK CFI 67820 .cfa: $rsp 352 +
STACK CFI INIT 67bb0 14 .cfa: $rsp .ra: .cfa 8 - ^
STACK CFI 67bb0 .cfa: $rsp 8 +
STACK CFI INIT 67bd0 10 .cfa: $rsp .ra: .cfa 8 - ^
STACK CFI 67bd0 .cfa: $rsp 8 +
STACK CFI INIT 67be0 1e5 .cfa: $rsp .ra: .cfa 8 - ^
STACK CFI 67be0 .cfa: $rsp 96 +
STACK CFI INIT 67dd0 938 .cfa: $rsp .ra: .cfa 8 - ^
STACK CFI 67dd0 .cfa: $rsp 192 +
STACK CFI INIT 68710 8 .cfa: $rsp .ra: .cfa 8 - ^
STACK CFI 68710 .cfa: $rsp 8 +
STACK CFI INIT 68720 11 .cfa: $rsp .ra: .cfa 8 - ^
STACK CFI 68720 .cfa: $rsp 48 +
STACK CFI INIT 68740 13 .cfa: $rsp .ra: .cfa 8 - ^
STACK CFI 68740 .cfa: $rsp 8 +
STACK CFI INIT 68760 9f3 .cfa: $rsp .ra: .cfa 8 - ^
STACK CFI 68760 .cfa: $rsp 320 +
STACK CFI INIT 69160 d1 .cfa: $rsp .ra: .cfa 8 - ^
STACK CFI 69160 .cfa: $rsp 128 +
STACK CFI INIT 69240 dc .cfa: $rsp .ra: .cfa 8 - ^
STACK CFI 69240 .cfa: $rsp 112 +
STACK CFI INIT 69320 8c .cfa: $rsp .ra: .cfa 8 - ^
STACK CFI 69320 .cfa: $rsp 128 +
STACK CFI INIT 693b0 dc .cfa: $rsp .ra: .cfa 8 - ^
STACK CFI 693b0 .cfa: $rsp 128 +
STACK CFI INIT 69490 36 .cfa: $rsp .ra: .cfa 8 - ^
STACK CFI 69490 .cfa: $rsp 64 +
STACK CFI INIT 694d0 21 .cfa: $rsp .ra: .cfa 8 - ^
STACK CFI 694d0 .cfa: $rsp 8 +
STACK CFI INIT 69500 435 .cfa: $rsp .ra: .cfa 8 - ^
STACK CFI 69500 .cfa: $rsp 144 +
STACK CFI INIT 69940 1970 .cfa: $rsp .ra: .cfa 8 - ^
STACK CFI 69940 .cfa: $rsp 192 +
STACK CFI INIT 6b2b0 d1 .cfa: $rsp .ra: .cfa 8 - ^
STACK CFI 6b2b0 .cfa: $rsp 128 +
STACK CFI INIT 6b390 3c .cfa: $rsp .ra: .cfa 8 - ^
STACK CFI 6b390 .cfa: $rsp 48 +
STACK CFI INIT 6b3d0 11 .cfa: $rsp .ra: .cfa 8 - ^
STACK CFI 6b3d0 .cfa: $rsp 8 +
STACK CFI INIT 6b3f0 d .cfa: $rsp .ra: .cfa 8 - ^
STACK CFI 6b3f0 .cfa: $rsp 8 +
STACK CFI INIT 6b400 54 .cfa: $rsp .ra: .cfa 8 - ^
STACK CFI 6b400 .cfa: $rsp 64 +
STACK CFI INIT 6b460 2ba .cfa: $rsp .ra: .cfa 8 - ^
STACK CFI 6b460 .cfa: $rsp 144 +
STACK CFI INIT 6b720 101a .cfa: $rsp .ra: .cfa 8 - ^
STACK CFI 6b720 .cfa: $rsp 192 +
STACK CFI INIT 6c740 345 .cfa: $rsp .ra: .cfa 8 - ^
STACK CFI 6c740 .cfa: $rsp 192 +
STACK CFI INIT 6ca90 2da .cfa: $rsp .ra: .cfa 8 - ^
STACK CFI 6ca90 .cfa: $rsp 176 +
STACK CFI INIT 6cd70 2ea .cfa: $rsp .ra: .cfa 8 - ^
STACK CFI 6cd70 .cfa: $rsp 176 +
STACK CFI INIT 6d060 345 .cfa: $rsp .ra: .cfa 8 - ^
STACK CFI 6d060 .cfa: $rsp 176 +
STACK CFI INIT 6d3b0 1 .cfa: $rsp .ra: .cfa 8 - ^
STACK CFI 6d3b0 .cfa: $rsp 8 +
STACK CFI INIT 6d3c0 5 .cfa: $rsp .ra: .cfa 8 - ^
STACK CFI 6d3c0 .cfa: $rsp 8 +
STACK CFI INIT 6d3d0 5f .cfa: $rsp .ra: .cfa 8 - ^
STACK CFI 6d3d0 .cfa: $rsp 48 +
STACK CFI INIT 6d430 1a .cfa: $rsp .ra: .cfa 8 - ^
STACK CFI 6d430 .cfa: $rsp 48 +
STACK CFI INIT 6d450 5f .cfa: $rsp .ra: .cfa 8 - ^
STACK CFI 6d450 .cfa: $rsp 48 +
STACK CFI INIT 6d4b0 1a .cfa: $rsp .ra: .cfa 8 - ^
STACK CFI 6d4b0 .cfa: $rsp 48 +
STACK CFI INIT 6d4d0 11 .cfa: $rsp .ra: .cfa 8 - ^
STACK CFI 6d4d0 .cfa: $rsp 8 +
STACK CFI INIT 6d4f0 2c .cfa: $rsp .ra: .cfa 8 - ^
STACK CFI 6d4f0 .cfa: $rsp 48 +
STACK CFI INIT 6d520 139 .cfa: $rsp .ra: .cfa 8 - ^
STACK CFI 6d520 .cfa: $rsp 144 +
STACK CFI INIT 6d660 1ac .cfa: $rsp .ra: .cfa 8 - ^
STACK CFI 6d660 .cfa: $rsp 144 +
STACK CFI INIT 6d810 dc .cfa: $rsp .ra: .cfa 8 - ^
STACK CFI 6d810 .cfa: $rsp 64 +
STACK CFI INIT 6d8f0 1a .cfa: $rsp .ra: .cfa 8 - ^
STACK CFI 6d8f0 .cfa: $rsp 48 +
STACK CFI INIT 6d910 435 .cfa: $rsp .ra: .cfa 8 - ^
STACK CFI 6d910 .cfa: $rsp 288 +
STACK CFI INIT 6dd50 bfb .cfa: $rsp .ra: .cfa 8 - ^
STACK CFI 6dd50 .cfa: $rsp 224 +
STACK CFI INIT 6e950 afb .cfa: $rsp .ra: .cfa 8 - ^
STACK CFI 6e950 .cfa: $rsp 208 +
STACK CFI INIT 6f450 bc8 .cfa: $rsp .ra: .cfa 8 - ^
STACK CFI 6f450 .cfa: $rsp 176 +
STACK CFI INIT 70020 b99 .cfa: $rsp .ra: .cfa 8 - ^
STACK CFI 70020 .cfa: $rsp 144 +
STACK CFI INIT 70bc0 bcb .cfa: $rsp .ra: .cfa 8 - ^
STACK CFI 70bc0 .cfa: $rsp 208 +
STACK CFI INIT 71790 14 .cfa: $rsp .ra: .cfa 8 - ^
STACK CFI 71790 .cfa: $rsp 8 +
STACK CFI INIT 717b0 10 .cfa: $rsp .ra: .cfa 8 - ^
STACK CFI 717b0 .cfa: $rsp 8 +
STACK CFI INIT 717c0 1c5 .cfa: $rsp .ra: .cfa 8 - ^
STACK CFI 717c0 .cfa: $rsp 96 +
STACK CFI INIT 71990 1949 .cfa: $rsp .ra: .cfa 8 - ^
STACK CFI 71990 .cfa: $rsp 352 +
STACK CFI INIT 732e0 dd .cfa: $rsp .ra: .cfa 8 - ^
STACK CFI 732e0 .cfa: $rsp 128 +
STACK CFI INIT 733c0 8 .cfa: $rsp .ra: .cfa 8 - ^
STACK CFI 733c0 .cfa: $rsp 8 +
STACK CFI INIT 733d0 11 .cfa: $rsp .ra: .cfa 8 - ^
STACK CFI 733d0 .cfa: $rsp 48 +
STACK CFI INIT 733f0 6 .cfa: $rsp .ra: .cfa 8 - ^
STACK CFI 733f0 .cfa: $rsp 8 +
STACK CFI INIT 73400 10 .cfa: $rsp .ra: .cfa 8 - ^
STACK CFI 73400 .cfa: $rsp 8 +
STACK CFI INIT 73410 b6 .cfa: $rsp .ra: .cfa 8 - ^
STACK CFI 73410 .cfa: $rsp 144 +
STACK CFI INIT 734d0 f6 .cfa: $rsp .ra: .cfa 8 - ^
STACK CFI 734d0 .cfa: $rsp 80 +
STACK CFI INIT 735d0 239 .cfa: $rsp .ra: .cfa 8 - ^
STACK CFI 735d0 .cfa: $rsp 144 +
STACK CFI INIT 73810 868 .cfa: $rsp .ra: .cfa 8 - ^
STACK CFI 73810 .cfa: $rsp 208 +
STACK CFI INIT 74080 a1c .cfa: $rsp .ra: .cfa 8 - ^
STACK CFI 74080 .cfa: $rsp 400 +
STACK CFI INIT 74aa0 6 .cfa: $rsp .ra: .cfa 8 - ^
STACK CFI 74aa0 .cfa: $rsp 8 +
STACK CFI INIT 74ab0 198 .cfa: $rsp .ra: .cfa 8 - ^
STACK CFI 74ab0 .cfa: $rsp 80 +
STACK CFI INIT 74c50 d8 .cfa: $rsp .ra: .cfa 8 - ^
STACK CFI 74c50 .cfa: $rsp 80 +
STACK CFI INIT 74d30 83 .cfa: $rsp .ra: .cfa 8 - ^
STACK CFI 74d30 .cfa: $rsp 96 +
STACK CFI INIT 74dc0 1a1 .cfa: $rsp .ra: .cfa 8 - ^
STACK CFI 74dc0 .cfa: $rsp 128 +
STACK CFI INIT 74f70 43 .cfa: $rsp .ra: .cfa 8 - ^
STACK CFI 74f70 .cfa: $rsp 48 +
STACK CFI INIT 74fc0 48 .cfa: $rsp .ra: .cfa 8 - ^
STACK CFI 74fc0 .cfa: $rsp 8 +
STACK CFI INIT 75010 53 .cfa: $rsp .ra: .cfa 8 - ^
STACK CFI 75010 .cfa: $rsp 8 +
STACK CFI INIT 75070 1 .cfa: $rsp .ra: .cfa 8 - ^
STACK CFI 75070 .cfa: $rsp 8 +
STACK CFI INIT 75080 1 .cfa: $rsp .ra: .cfa 8 - ^
STACK CFI 75080 .cfa: $rsp 8 +
STACK CFI INIT 75090 2f .cfa: $rsp .ra: .cfa 8 - ^
STACK CFI 75090 .cfa: $rsp 48 +
STACK CFI INIT 750c0 c6 .cfa: $rsp .ra: .cfa 8 - ^
STACK CFI 750c0 .cfa: $rsp 48 +
STACK CFI INIT 75190 18e .cfa: $rsp .ra: .cfa 8 - ^
STACK CFI 75190 .cfa: $rsp 112 +
STACK CFI INIT 75320 4d3 .cfa: $rsp .ra: .cfa 8 - ^
STACK CFI 75320 .cfa: $rsp 224 +
STACK CFI INIT 75800 1e .cfa: $rsp .ra: .cfa 8 - ^
STACK CFI 75800 .cfa: $rsp 48 +
STACK CFI INIT 75820 1e .cfa: $rsp .ra: .cfa 8 - ^
STACK CFI 75820 .cfa: $rsp 48 +
STACK CFI INIT 75840 144 .cfa: $rsp .ra: .cfa 8 - ^
STACK CFI 75840 .cfa: $rsp 96 +
STACK CFI INIT 75990 7c4 .cfa: $rsp .ra: .cfa 8 - ^
STACK CFI 75990 .cfa: $rsp 240 +
STACK CFI INIT 76160 1e .cfa: $rsp .ra: .cfa 8 - ^
STACK CFI 76160 .cfa: $rsp 48 +
STACK CFI INIT 76180 2d .cfa: $rsp .ra: .cfa 8 - ^
STACK CFI 76180 .cfa: $rsp 48 +
STACK CFI INIT 761b0 8 .cfa: $rsp .ra: .cfa 8 - ^
STACK CFI 761b0 .cfa: $rsp 8 +
STACK CFI INIT 761c0 4d8 .cfa: $rsp .ra: .cfa 8 - ^
STACK CFI 761c0 .cfa: $rsp 176 +
STACK CFI INIT 766a0 135 .cfa: $rsp .ra: .cfa 8 - ^
STACK CFI 766a0 .cfa: $rsp 80 +
STACK CFI INIT 767e0 19d .cfa: $rsp .ra: .cfa 8 - ^
STACK CFI 767e0 .cfa: $rsp 80 +
STACK CFI INIT 76980 9c .cfa: $rsp .ra: .cfa 8 - ^
STACK CFI 76980 .cfa: $rsp 96 +
STACK CFI INIT 76a20 9 .cfa: $rsp .ra: .cfa 8 - ^
STACK CFI 76a20 .cfa: $rsp 8 +
STACK CFI INIT 76a30 f .cfa: $rsp .ra: .cfa 8 - ^
STACK CFI 76a30 .cfa: $rsp 8 +
STACK CFI INIT 76a40 23 .cfa: $rsp .ra: .cfa 8 - ^
STACK CFI 76a40 .cfa: $rsp 8 +
STACK CFI INIT 76a70 3c7 .cfa: $rsp .ra: .cfa 8 - ^
STACK CFI 76a70 .cfa: $rsp 144 +
STACK CFI INIT 76e40 1a8 .cfa: $rsp .ra: .cfa 8 - ^
STACK CFI 76e40 .cfa: $rsp 128 +
STACK CFI INIT 76ff0 180 .cfa: $rsp .ra: .cfa 8 - ^
STACK CFI 76ff0 .cfa: $rsp 96 +
STACK CFI INIT 77170 1f .cfa: $rsp .ra: .cfa 8 - ^
STACK CFI 77170 .cfa: $rsp 48 +
STACK CFI INIT 77190 15b .cfa: $rsp .ra: .cfa 8 - ^
STACK CFI 77190 .cfa: $rsp 160 +
STACK CFI INIT 772f0 44a .cfa: $rsp .ra: .cfa 8 - ^
STACK CFI 772f0 .cfa: $rsp 160 +
STACK CFI INIT 77740 7b .cfa: $rsp .ra: .cfa 8 - ^
STACK CFI 77740 .cfa: $rsp 64 +
STACK CFI INIT 777c0 8 .cfa: $rsp .ra: .cfa 8 - ^
STACK CFI 777c0 .cfa: $rsp 8 +
STACK CFI INIT 777d0 258 .cfa: $rsp .ra: .cfa 8 - ^
STACK CFI 777d0 .cfa: $rsp 96 +
STACK CFI INIT 77a30 d .cfa: $rsp .ra: .cfa 8 - ^
STACK CFI 77a30 .cfa: $rsp 8 +
STACK CFI INIT 77a40 82 .cfa: $rsp .ra: .cfa 8 - ^
STACK CFI 77a40 .cfa: $rsp 80 +
STACK CFI INIT 77ad0 fa .cfa: $rsp .ra: .cfa 8 - ^
STACK CFI 77ad0 .cfa: $rsp 80 +
STACK CFI INIT 77bd0 b8 .cfa: $rsp .ra: .cfa 8 - ^
STACK CFI 77bd0 .cfa: $rsp 64 +
STACK CFI INIT 77c90 1f .cfa: $rsp .ra: .cfa 8 - ^
STACK CFI 77c90 .cfa: $rsp 48 +
STACK CFI INIT 77cb0 3f7 .cfa: $rsp .ra: .cfa 8 - ^
STACK CFI 77cb0 .cfa: $rsp 144 +
STACK CFI INIT 780b0 2d3 .cfa: $rsp .ra: .cfa 8 - ^
STACK CFI 780b0 .cfa: $rsp 144 +
STACK CFI INIT 78390 43 .cfa: $rsp .ra: .cfa 8 - ^
STACK CFI 78390 .cfa: $rsp 48 +
STACK CFI INIT 783e0 ed .cfa: $rsp .ra: .cfa 8 - ^
STACK CFI 783e0 .cfa: $rsp 80 +
STACK CFI INIT 784d0 ee .cfa: $rsp .ra: .cfa 8 - ^
STACK CFI 784d0 .cfa: $rsp 80 +
STACK CFI INIT 785c0 de .cfa: $rsp .ra: .cfa 8 - ^
STACK CFI 785c0 .cfa: $rsp 96 +
STACK CFI INIT 786a0 286 .cfa: $rsp .ra: .cfa 8 - ^
STACK CFI 786a0 .cfa: $rsp 208 +
STACK CFI INIT 78930 1f6 .cfa: $rsp .ra: .cfa 8 - ^
STACK CFI 78930 .cfa: $rsp 208 +
STACK CFI INIT 78b30 23c .cfa: $rsp .ra: .cfa 8 - ^
STACK CFI 78b30 .cfa: $rsp 96 +
STACK CFI INIT 78d70 693 .cfa: $rsp .ra: .cfa 8 - ^
STACK CFI 78d70 .cfa: $rsp 160 +
STACK CFI INIT 79410 9 .cfa: $rsp .ra: .cfa 8 - ^
STACK CFI 79410 .cfa: $rsp 8 +
STACK CFI INIT 79420 9 .cfa: $rsp .ra: .cfa 8 - ^
STACK CFI 79420 .cfa: $rsp 8 +
STACK CFI INIT 79430 47f .cfa: $rsp .ra: .cfa 8 - ^
STACK CFI 79430 .cfa: $rsp 144 +
STACK CFI INIT 798b0 270 .cfa: $rsp .ra: .cfa 8 - ^
STACK CFI 798b0 .cfa: $rsp 112 +
STACK CFI INIT 79b20 17c .cfa: $rsp .ra: .cfa 8 - ^
STACK CFI 79b20 .cfa: $rsp 128 +
STACK CFI INIT 79ca0 8f0 .cfa: $rsp .ra: .cfa 8 - ^
STACK CFI 79ca0 .cfa: $rsp 224 +
STACK CFI INIT 7a590 45 .cfa: $rsp .ra: .cfa 8 - ^
STACK CFI 7a590 .cfa: $rsp 8 +
STACK CFI INIT 7a5e0 9e .cfa: $rsp .ra: .cfa 8 - ^
STACK CFI 7a5e0 .cfa: $rsp 80 +
STACK CFI INIT 7a680 1a8 .cfa: $rsp .ra: .cfa 8 - ^
STACK CFI 7a680 .cfa: $rsp 144 +
STACK CFI INIT 7a830 de .cfa: $rsp .ra: .cfa 8 - ^
STACK CFI 7a830 .cfa: $rsp 96 +
STACK CFI INIT 7a910 19d .cfa: $rsp .ra: .cfa 8 - ^
STACK CFI 7a910 .cfa: $rsp 144 +
STACK CFI INIT 7aab0 278 .cfa: $rsp .ra: .cfa 8 - ^
STACK CFI 7aab0 .cfa: $rsp 144 +
STACK CFI INIT 7ad30 7f8 .cfa: $rsp .ra: .cfa 8 - ^
STACK CFI 7ad30 .cfa: $rsp 528 +
STACK CFI INIT 7b530 c2 .cfa: $rsp .ra: .cfa 8 - ^
STACK CFI 7b530 .cfa: $rsp 80 +
STACK CFI INIT 7b600 8f .cfa: $rsp .ra: .cfa 8 - ^
STACK CFI 7b600 .cfa: $rsp 96 +
STACK CFI INIT 7b690 13f .cfa: $rsp .ra: .cfa 8 - ^
STACK CFI 7b690 .cfa: $rsp 128 +
STACK CFI INIT 7b7d0 fd .cfa: $rsp .ra: .cfa 8 - ^
STACK CFI 7b7d0 .cfa: $rsp 80 +
STACK CFI INIT 7b8d0 110 .cfa: $rsp .ra: .cfa 8 - ^
STACK CFI 7b8d0 .cfa: $rsp 144 +
STACK CFI INIT 7b9e0 300 .cfa: $rsp .ra: .cfa 8 - ^
STACK CFI 7b9e0 .cfa: $rsp 112 +
STACK CFI INIT 7bce0 253 .cfa: $rsp .ra: .cfa 8 - ^
STACK CFI 7bce0 .cfa: $rsp 96 +
STACK CFI INIT 7bf40 3c8 .cfa: $rsp .ra: .cfa 8 - ^
STACK CFI 7bf40 .cfa: $rsp 176 +
STACK CFI INIT 7c310 47 .cfa: $rsp .ra: .cfa 8 - ^
STACK CFI 7c310 .cfa: $rsp 80 +
STACK CFI INIT 7c360 3 .cfa: $rsp .ra: .cfa 8 - ^
STACK CFI 7c360 .cfa: $rsp 8 +
STACK CFI INIT 7c370 3 .cfa: $rsp .ra: .cfa 8 - ^
STACK CFI 7c370 .cfa: $rsp 8 +
STACK CFI INIT 7c380 3 .cfa: $rsp .ra: .cfa 8 - ^
STACK CFI 7c380 .cfa: $rsp 8 +
STACK CFI INIT 7c390 42 .cfa: $rsp .ra: .cfa 8 - ^
STACK CFI 7c390 .cfa: $rsp 80 +
STACK CFI INIT 7c3e0 36 .cfa: $rsp .ra: .cfa 8 - ^
STACK CFI 7c3e0 .cfa: $rsp 64 +
STACK CFI INIT 7c420 2e .cfa: $rsp .ra: .cfa 8 - ^
STACK CFI 7c420 .cfa: $rsp 64 +
STACK CFI INIT 7c450 2e .cfa: $rsp .ra: .cfa 8 - ^
STACK CFI 7c450 .cfa: $rsp 64 +
STACK CFI INIT 7c480 7 .cfa: $rsp .ra: .cfa 8 - ^
STACK CFI 7c480 .cfa: $rsp 8 +
STACK CFI INIT 7c490 35 .cfa: $rsp .ra: .cfa 8 - ^
STACK CFI 7c490 .cfa: $rsp 64 +
STACK CFI INIT 7c4d0 3 .cfa: $rsp .ra: .cfa 8 - ^
STACK CFI 7c4d0 .cfa: $rsp 8 +
STACK CFI INIT 7c4e0 3 .cfa: $rsp .ra: .cfa 8 - ^
STACK CFI 7c4e0 .cfa: $rsp 8 +
STACK CFI INIT 7c4f0 3 .cfa: $rsp .ra: .cfa 8 - ^
STACK CFI 7c4f0 .cfa: $rsp 8 +
STACK CFI INIT 7c500 3 .cfa: $rsp .ra: .cfa 8 - ^
STACK CFI 7c500 .cfa: $rsp 8 +
STACK CFI INIT 7c510 3 .cfa: $rsp .ra: .cfa 8 - ^
STACK CFI 7c510 .cfa: $rsp 8 +
STACK CFI INIT 7c520 5 .cfa: $rsp .ra: .cfa 8 - ^
STACK CFI 7c520 .cfa: $rsp 8 +
STACK CFI INIT 7c530 1a .cfa: $rsp .ra: .cfa 8 - ^
STACK CFI 7c530 .cfa: $rsp 8 +
STACK CFI INIT 7c550 3 .cfa: $rsp .ra: .cfa 8 - ^
STACK CFI 7c550 .cfa: $rsp 8 +
STACK CFI INIT 7c560 8c .cfa: $rsp .ra: .cfa 8 - ^
STACK CFI 7c560 .cfa: $rsp 80 +
STACK CFI INIT 7c5f0 23f .cfa: $rsp .ra: .cfa 8 - ^
STACK CFI 7c5f0 .cfa: $rsp 96 +
STACK CFI INIT 7c830 1dd .cfa: $rsp .ra: .cfa 8 - ^
STACK CFI 7c830 .cfa: $rsp 96 +
STACK CFI INIT 7ca10 76 .cfa: $rsp .ra: .cfa 8 - ^
STACK CFI 7ca10 .cfa: $rsp 48 +
STACK CFI INIT 7ca90 67 .cfa: $rsp .ra: .cfa 8 - ^
STACK CFI 7ca90 .cfa: $rsp 48 +
STACK CFI INIT 7cb00 15 .cfa: $rsp .ra: .cfa 8 - ^
STACK CFI 7cb00 .cfa: $rsp 8 +
STACK CFI INIT 7cb20 2 .cfa: $rsp .ra: .cfa 8 - ^
STACK CFI 7cb20 .cfa: $rsp 8 +
STACK CFI INIT 7cb30 2d .cfa: $rsp .ra: .cfa 8 - ^
STACK CFI 7cb30 .cfa: $rsp 8 +
STACK CFI INIT 7cb60 20 .cfa: $rsp .ra: .cfa 8 - ^
STACK CFI 7cb60 .cfa: $rsp 8 +
STACK CFI INIT 7cb80 105 .cfa: $rsp .ra: .cfa 8 - ^
STACK CFI 7cb80 .cfa: $rsp 96 +
STACK CFI INIT 7cc90 1b .cfa: $rsp .ra: .cfa 8 - ^
STACK CFI 7cc90 .cfa: $rsp 8 +
STACK CFI INIT 7ccb0 1b .cfa: $rsp .ra: .cfa 8 - ^
STACK CFI 7ccb0 .cfa: $rsp 8 +
STACK CFI INIT 7ccd0 17b .cfa: $rsp .ra: .cfa 8 - ^
STACK CFI 7ccd0 .cfa: $rsp 128 +
STACK CFI INIT 7ce50 c7 .cfa: $rsp .ra: .cfa 8 - ^
STACK CFI 7ce50 .cfa: $rsp 80 +
STACK CFI INIT 7cf20 41 .cfa: $rsp .ra: .cfa 8 - ^
STACK CFI 7cf20 .cfa: $rsp 8 +
STACK CFI INIT 7cf70 34 .cfa: $rsp .ra: .cfa 8 - ^
STACK CFI 7cf70 .cfa: $rsp 8 +
STACK CFI INIT 7cfb0 7b .cfa: $rsp .ra: .cfa 8 - ^
STACK CFI 7cfb0 .cfa: $rsp 8 +
STACK CFI INIT 7d030 fe .cfa: $rsp .ra: .cfa 8 - ^
STACK CFI 7d030 .cfa: $rsp 64 +
STACK CFI INIT 7d130 1f .cfa: $rsp .ra: .cfa 8 - ^
STACK CFI 7d130 .cfa: $rsp 48 +
STACK CFI INIT 7d150 c5e .cfa: $rsp .ra: .cfa 8 - ^
STACK CFI 7d150 .cfa: $rsp 192 +
STACK CFI INIT 7ddb0 d .cfa: $rsp .ra: .cfa 8 - ^
STACK CFI 7ddb0 .cfa: $rsp 8 +
STACK CFI INIT 7ddc0 52 .cfa: $rsp .ra: .cfa 8 - ^
STACK CFI 7ddc0 .cfa: $rsp 48 +
STACK CFI INIT 7de20 72 .cfa: $rsp .ra: .cfa 8 - ^
STACK CFI 7de20 .cfa: $rsp 80 +
STACK CFI INIT 7dea0 a2 .cfa: $rsp .ra: .cfa 8 - ^
STACK CFI 7dea0 .cfa: $rsp 96 +
STACK CFI INIT 7df50 94 .cfa: $rsp .ra: .cfa 8 - ^
STACK CFI 7df50 .cfa: $rsp 128 +
STACK CFI INIT 7dff0 37c .cfa: $rsp .ra: .cfa 8 - ^
STACK CFI 7dff0 .cfa: $rsp 208 +
STACK CFI INIT 7e370 1f8 .cfa: $rsp .ra: .cfa 8 - ^
STACK CFI 7e370 .cfa: $rsp 144 +
STACK CFI INIT 7e570 68e .cfa: $rsp .ra: .cfa 8 - ^
STACK CFI 7e570 .cfa: $rsp 96 +
STACK CFI INIT 7ec00 2d .cfa: $rsp .ra: .cfa 8 - ^
STACK CFI 7ec00 .cfa: $rsp 64 +
STACK CFI INIT 7ec30 18e .cfa: $rsp .ra: .cfa 8 - ^
STACK CFI 7ec30 .cfa: $rsp 96 +
STACK CFI INIT 7edc0 2f .cfa: $rsp .ra: .cfa 8 - ^
STACK CFI 7edc0 .cfa: $rsp 80 +
STACK CFI INIT 7edf0 c .cfa: $rsp .ra: .cfa 8 - ^
STACK CFI 7edf0 .cfa: $rsp 8 +
STACK CFI INIT 7ee00 42 .cfa: $rsp .ra: .cfa 8 - ^
STACK CFI 7ee00 .cfa: $rsp 64 +
STACK CFI INIT 7ee50 8 .cfa: $rsp .ra: .cfa 8 - ^
STACK CFI 7ee50 .cfa: $rsp 8 +
STACK CFI INIT 7ee60 1 .cfa: $rsp .ra: .cfa 8 - ^
STACK CFI 7ee60 .cfa: $rsp 8 +
STACK CFI INIT 7ee70 a .cfa: $rsp .ra: .cfa 8 - ^
STACK CFI 7ee70 .cfa: $rsp 8 +
STACK CFI INIT 7ee80 101 .cfa: $rsp .ra: .cfa 8 - ^
STACK CFI 7ee80 .cfa: $rsp 64 +
STACK CFI INIT 7ef90 c .cfa: $rsp .ra: .cfa 8 - ^
STACK CFI 7ef90 .cfa: $rsp 8 +
STACK CFI INIT 7efa0 c .cfa: $rsp .ra: .cfa 8 - ^
STACK CFI 7efa0 .cfa: $rsp 8 +
STACK CFI INIT 7efb0 c .cfa: $rsp .ra: .cfa 8 - ^
STACK CFI 7efb0 .cfa: $rsp 8 +
STACK CFI INIT 7efc0 2bf .cfa: $rsp .ra: .cfa 8 - ^
STACK CFI 7efc0 .cfa: $rsp 192 +
STACK CFI INIT 7f280 69e .cfa: $rsp .ra: .cfa 8 - ^
STACK CFI 7f280 .cfa: $rsp 80 +
STACK CFI INIT 7f920 b .cfa: $rsp .ra: .cfa 8 - ^
STACK CFI 7f920 .cfa: $rsp 8 +
STACK CFI INIT 7f930 6 .cfa: $rsp .ra: .cfa 8 - ^
STACK CFI 7f930 .cfa: $rsp 8 +
STACK CFI INIT 7f940 af .cfa: $rsp .ra: .cfa 8 - ^
STACK CFI 7f940 .cfa: $rsp 48 +
STACK CFI INIT 7f9f0 af .cfa: $rsp .ra: .cfa 8 - ^
STACK CFI 7f9f0 .cfa: $rsp 48 +
STACK CFI INIT 7faa0 d5 .cfa: $rsp .ra: .cfa 8 - ^
STACK CFI 7faa0 .cfa: $rsp 56 +
STACK CFI INIT 7fb80 377 .cfa: $rsp .ra: .cfa 8 - ^
STACK CFI 7fb80 .cfa: $rsp 144 +
STACK CFI INIT 7ff00 279 .cfa: $rsp .ra: .cfa 8 - ^
STACK CFI 7ff00 .cfa: $rsp 80 +
STACK CFI INIT 80180 1f .cfa: $rsp .ra: .cfa 8 - ^
STACK CFI 80180 .cfa: $rsp 48 +
STACK CFI INIT 801a0 2332 .cfa: $rsp .ra: .cfa 8 - ^
STACK CFI 801a0 .cfa: $rsp 112 +
STACK CFI INIT 824e0 d7 .cfa: $rsp .ra: .cfa 8 - ^
STACK CFI 824e0 .cfa: $rsp 96 +
STACK CFI INIT 825c0 aa .cfa: $rsp .ra: .cfa 8 - ^
STACK CFI 825c0 .cfa: $rsp 80 +
STACK CFI INIT 82670 97 .cfa: $rsp .ra: .cfa 8 - ^
STACK CFI 82670 .cfa: $rsp 64 +
STACK CFI INIT 82710 12 .cfa: $rsp .ra: .cfa 8 - ^
STACK CFI 82710 .cfa: $rsp 8 +
STACK CFI INIT 82730 3ca .cfa: $rsp .ra: .cfa 8 - ^
STACK CFI 82730 .cfa: $rsp 64 +
STACK CFI INIT 82b00 4f5d .cfa: $rsp .ra: .cfa 8 - ^
STACK CFI 82b00 .cfa: $rsp 464 +
STACK CFI INIT 87a60 215 .cfa: $rsp .ra: .cfa 8 - ^
STACK CFI 87a60 .cfa: $rsp 80 +
STACK CFI INIT 87c80 22 .cfa: $rsp .ra: .cfa 8 - ^
STACK CFI 87c80 .cfa: $rsp 64 +
STACK CFI INIT 87cb0 12 .cfa: $rsp .ra: .cfa 8 - ^
STACK CFI 87cb0 .cfa: $rsp 8 +
STACK CFI INIT 87cd0 29 .cfa: $rsp .ra: .cfa 8 - ^
STACK CFI 87cd0 .cfa: $rsp 64 +
STACK CFI INIT 87d00 56 .cfa: $rsp .ra: .cfa 8 - ^
STACK CFI 87d00 .cfa: $rsp 48 +
STACK CFI INIT 87d60 b6 .cfa: $rsp .ra: .cfa 8 - ^
STACK CFI 87d60 .cfa: $rsp 8 +
STACK CFI INIT 87e20 2e6 .cfa: $rsp .ra: .cfa 8 - ^
STACK CFI 87e20 .cfa: $rsp 160 +
STACK CFI INIT 88110 47d .cfa: $rsp .ra: .cfa 8 - ^
STACK CFI 88110 .cfa: $rsp 240 +
STACK CFI INIT 88590 6fd .cfa: $rsp .ra: .cfa 8 - ^
STACK CFI 88590 .cfa: $rsp 128 +
STACK CFI INIT 88c90 567 .cfa: $rsp .ra: .cfa 8 - ^
STACK CFI 88c90 .cfa: $rsp 128 +
STACK CFI INIT 89200 9b .cfa: $rsp .ra: .cfa 8 - ^
STACK CFI 89200 .cfa: $rsp 64 +
STACK CFI INIT 892a0 c2 .cfa: $rsp .ra: .cfa 8 - ^
STACK CFI 892a0 .cfa: $rsp 64 +
STACK CFI INIT 89370 a35 .cfa: $rsp .ra: .cfa 8 - ^
STACK CFI 89370 .cfa: $rsp 320 +
STACK CFI INIT 89db0 a8f .cfa: $rsp .ra: .cfa 8 - ^
STACK CFI 89db0 .cfa: $rsp 304 +
STACK CFI INIT 8a840 b3b .cfa: $rsp .ra: .cfa 8 - ^
STACK CFI 8a840 .cfa: $rsp 336 +
STACK CFI INIT 8b380 f .cfa: $rsp .ra: .cfa 8 - ^
STACK CFI 8b380 .cfa: $rsp 8 +
STACK CFI INIT 8b390 f .cfa: $rsp .ra: .cfa 8 - ^
STACK CFI 8b390 .cfa: $rsp 8 +
STACK CFI INIT 8b3a0 9c5 .cfa: $rsp .ra: .cfa 8 - ^
STACK CFI 8b3a0 .cfa: $rsp 320 +
STACK CFI INIT 8bd70 f .cfa: $rsp .ra: .cfa 8 - ^
STACK CFI 8bd70 .cfa: $rsp 8 +
STACK CFI INIT 8bd80 f .cfa: $rsp .ra: .cfa 8 - ^
STACK CFI 8bd80 .cfa: $rsp 8 +
STACK CFI INIT 8bd90 7 .cfa: $rsp .ra: .cfa 8 - ^
STACK CFI 8bd90 .cfa: $rsp 8 +
STACK CFI INIT 8bda0 6 .cfa: $rsp .ra: .cfa 8 - ^
STACK CFI 8bda0 .cfa: $rsp 8 +
STACK CFI INIT 8bdb0 6 .cfa: $rsp .ra: .cfa 8 - ^
STACK CFI 8bdb0 .cfa: $rsp 8 +
STACK CFI INIT 8bdc0 1 .cfa: $rsp .ra: .cfa 8 - ^
STACK CFI 8bdc0 .cfa: $rsp 8 +
STACK CFI INIT 8bdd0 1 .cfa: $rsp .ra: .cfa 8 - ^
STACK CFI 8bdd0 .cfa: $rsp 8 +
STACK CFI INIT 8bde0 1 .cfa: $rsp .ra: .cfa 8 - ^
STACK CFI 8bde0 .cfa: $rsp 8 +
STACK CFI INIT 8bdf0 1 .cfa: $rsp .ra: .cfa 8 - ^
STACK CFI 8bdf0 .cfa: $rsp 8 +
STACK CFI INIT 8be00 1 .cfa: $rsp .ra: .cfa 8 - ^
STACK CFI 8be00 .cfa: $rsp 8 +
STACK CFI INIT 8be10 1 .cfa: $rsp .ra: .cfa 8 - ^
STACK CFI 8be10 .cfa: $rsp 8 +
STACK CFI INIT 8be20 1 .cfa: $rsp .ra: .cfa 8 - ^
STACK CFI 8be20 .cfa: $rsp 8 +
STACK CFI INIT 8be30 5 .cfa: $rsp .ra: .cfa 8 - ^
STACK CFI 8be30 .cfa: $rsp 8 +
STACK CFI INIT 8be40 3 .cfa: $rsp .ra: .cfa 8 - ^
STACK CFI 8be40 .cfa: $rsp 8 +
STACK CFI INIT 8be50 3 .cfa: $rsp .ra: .cfa 8 - ^
STACK CFI 8be50 .cfa: $rsp 8 +
STACK CFI INIT 8be60 c .cfa: $rsp .ra: .cfa 8 - ^
STACK CFI 8be60 .cfa: $rsp 8 +
STACK CFI INIT 8be70 5 .cfa: $rsp .ra: .cfa 8 - ^
STACK CFI 8be70 .cfa: $rsp 8 +
STACK CFI INIT 8be80 3 .cfa: $rsp .ra: .cfa 8 - ^
STACK CFI 8be80 .cfa: $rsp 8 +
STACK CFI INIT 8be90 1 .cfa: $rsp .ra: .cfa 8 - ^
STACK CFI 8be90 .cfa: $rsp 8 +
STACK CFI INIT 8bea0 1 .cfa: $rsp .ra: .cfa 8 - ^
STACK CFI 8bea0 .cfa: $rsp 8 +
STACK CFI INIT 8beb0 3 .cfa: $rsp .ra: .cfa 8 - ^
STACK CFI 8beb0 .cfa: $rsp 8 +
STACK CFI INIT 8bec0 3 .cfa: $rsp .ra: .cfa 8 - ^
STACK CFI 8bec0 .cfa: $rsp 8 +
STACK CFI INIT 8bed0 1 .cfa: $rsp .ra: .cfa 8 - ^
STACK CFI 8bed0 .cfa: $rsp 8 +
STACK CFI INIT 8bee0 1d .cfa: $rsp .ra: .cfa 8 - ^
STACK CFI 8bee0 .cfa: $rsp 48 +
STACK CFI INIT 8bf00 d8 .cfa: $rsp .ra: .cfa 8 - ^
STACK CFI 8bf00 .cfa: $rsp 80 +
STACK CFI INIT 8bfe0 3 .cfa: $rsp .ra: .cfa 8 - ^
STACK CFI 8bfe0 .cfa: $rsp 8 +
STACK CFI INIT 8bff0 7e .cfa: $rsp .ra: .cfa 8 - ^
STACK CFI 8bff0 .cfa: $rsp 80 +
STACK CFI INIT 8c070 6 .cfa: $rsp .ra: .cfa 8 - ^
STACK CFI 8c070 .cfa: $rsp 8 +
STACK CFI INIT 8c080 4 .cfa: $rsp .ra: .cfa 8 - ^
STACK CFI 8c080 .cfa: $rsp 8 +
STACK CFI INIT 8c090 4 .cfa: $rsp .ra: .cfa 8 - ^
STACK CFI 8c090 .cfa: $rsp 8 +
STACK CFI INIT 8c0a0 48 .cfa: $rsp .ra: .cfa 8 - ^
STACK CFI 8c0a0 .cfa: $rsp 48 +
STACK CFI INIT 8c0f0 df .cfa: $rsp .ra: .cfa 8 - ^
STACK CFI 8c0f0 .cfa: $rsp 80 +
STACK CFI INIT 8c1d0 e9 .cfa: $rsp .ra: .cfa 8 - ^
STACK CFI 8c1d0 .cfa: $rsp 96 +
STACK CFI INIT 8c2c0 76 .cfa: $rsp .ra: .cfa 8 - ^
STACK CFI 8c2c0 .cfa: $rsp 80 +
STACK CFI INIT 8c340 8f .cfa: $rsp .ra: .cfa 8 - ^
STACK CFI 8c340 .cfa: $rsp 48 +
STACK CFI INIT 8c3d0 16a .cfa: $rsp .ra: .cfa 8 - ^
STACK CFI 8c3d0 .cfa: $rsp 112 +
STACK CFI INIT 8c540 1db .cfa: $rsp .ra: .cfa 8 - ^
STACK CFI 8c540 .cfa: $rsp 112 +
STACK CFI INIT 8c720 d7 .cfa: $rsp .ra: .cfa 8 - ^
STACK CFI 8c720 .cfa: $rsp 64 +
STACK CFI INIT 8c800 e7 .cfa: $rsp .ra: .cfa 8 - ^
STACK CFI 8c800 .cfa: $rsp 128 +
STACK CFI INIT 8c8f0 f9 .cfa: $rsp .ra: .cfa 8 - ^
STACK CFI 8c8f0 .cfa: $rsp 128 +
STACK CFI INIT 8c9f0 f5 .cfa: $rsp .ra: .cfa 8 - ^
STACK CFI 8c9f0 .cfa: $rsp 128 +
STACK CFI INIT 8caf0 105 .cfa: $rsp .ra: .cfa 8 - ^
STACK CFI 8caf0 .cfa: $rsp 160 +
STACK CFI INIT 8cc00 14a .cfa: $rsp .ra: .cfa 8 - ^
STACK CFI 8cc00 .cfa: $rsp 80 +
STACK CFI INIT 8cd50 14a .cfa: $rsp .ra: .cfa 8 - ^
STACK CFI 8cd50 .cfa: $rsp 80 +
STACK CFI INIT 8cea0 408 .cfa: $rsp .ra: .cfa 8 - ^
STACK CFI 8cea0 .cfa: $rsp 112 +
STACK CFI INIT 8d2b0 4e0 .cfa: $rsp .ra: .cfa 8 - ^
STACK CFI 8d2b0 .cfa: $rsp 176 +
STACK CFI INIT 8d790 5e5 .cfa: $rsp .ra: .cfa 8 - ^
STACK CFI 8d790 .cfa: $rsp 176 +
STACK CFI INIT 8dd80 694 .cfa: $rsp .ra: .cfa 8 - ^
STACK CFI 8dd80 .cfa: $rsp 176 +
STACK CFI INIT 8e420 694 .cfa: $rsp .ra: .cfa 8 - ^
STACK CFI 8e420 .cfa: $rsp 176 +
STACK CFI INIT 8eac0 df9 .cfa: $rsp .ra: .cfa 8 - ^
STACK CFI 8eac0 .cfa: $rsp 240 +
STACK CFI INIT 8f8c0 78 .cfa: $rsp .ra: .cfa 8 - ^
STACK CFI 8f8c0 .cfa: $rsp 128 +
STACK CFI INIT 8f940 32 .cfa: $rsp .ra: .cfa 8 - ^
STACK CFI 8f940 .cfa: $rsp 96 +
STACK CFI INIT 8f980 c3 .cfa: $rsp .ra: .cfa 8 - ^
STACK CFI 8f980 .cfa: $rsp 80 +
STACK CFI INIT 8fa50 58 .cfa: $rsp .ra: .cfa 8 - ^
STACK CFI 8fa50 .cfa: $rsp 80 +
STACK CFI INIT 8fab0 24 .cfa: $rsp .ra: .cfa 8 - ^
STACK CFI 8fab0 .cfa: $rsp 64 +
STACK CFI INIT 8fae0 a5 .cfa: $rsp .ra: .cfa 8 - ^
STACK CFI 8fae0 .cfa: $rsp 80 +
STACK CFI INIT 8fb90 90 .cfa: $rsp .ra: .cfa 8 - ^
STACK CFI 8fb90 .cfa: $rsp 80 +
STACK CFI INIT 8fc20 530 .cfa: $rsp .ra: .cfa 8 - ^
STACK CFI 8fc20 .cfa: $rsp 192 +
STACK CFI INIT 90150 161 .cfa: $rsp .ra: .cfa 8 - ^
STACK CFI 90150 .cfa: $rsp 112 +
STACK CFI INIT 902c0 40 .cfa: $rsp .ra: .cfa 8 - ^
STACK CFI 902c0 .cfa: $rsp 8 +
STACK CFI INIT 90300 1d9 .cfa: $rsp .ra: .cfa 8 - ^
STACK CFI 90300 .cfa: $rsp 160 +
STACK CFI INIT 904e0 c71 .cfa: $rsp .ra: .cfa 8 - ^
STACK CFI 904e0 .cfa: $rsp 224 +
STACK CFI INIT 91160 7f .cfa: $rsp .ra: .cfa 8 - ^
STACK CFI 91160 .cfa: $rsp 80 +
STACK CFI INIT 911e0 a1 .cfa: $rsp .ra: .cfa 8 - ^
STACK CFI 911e0 .cfa: $rsp 80 +
STACK CFI INIT 91290 5b .cfa: $rsp .ra: .cfa 8 - ^
STACK CFI 91290 .cfa: $rsp 80 +
STACK CFI INIT 912f0 e72 .cfa: $rsp .ra: .cfa 8 - ^
STACK CFI 912f0 .cfa: $rsp 352 +
STACK CFI INIT 92170 132 .cfa: $rsp .ra: .cfa 8 - ^
STACK CFI 92170 .cfa: $rsp 176 +
STACK CFI INIT 922b0 c0 .cfa: $rsp .ra: .cfa 8 - ^
STACK CFI 922b0 .cfa: $rsp 96 +
STACK CFI INIT 92370 2bc .cfa: $rsp .ra: .cfa 8 - ^
STACK CFI 92370 .cfa: $rsp 128 +
STACK CFI INIT 92630 1ab .cfa: $rsp .ra: .cfa 8 - ^
STACK CFI 92630 .cfa: $rsp 80 +
STACK CFI INIT 927e0 1101 .cfa: $rsp .ra: .cfa 8 - ^
STACK CFI 927e0 .cfa: $rsp 224 +
STACK CFI INIT 938f0 11e .cfa: $rsp .ra: .cfa 8 - ^
STACK CFI 938f0 .cfa: $rsp 128 +
STACK CFI INIT 93a10 e .cfa: $rsp .ra: .cfa 8 - ^
STACK CFI 93a10 .cfa: $rsp 8 +
STACK CFI INIT 93a20 5d9 .cfa: $rsp .ra: .cfa 8 - ^
STACK CFI 93a20 .cfa: $rsp 112 +
STACK CFI INIT 94000 1bf .cfa: $rsp .ra: .cfa 8 - ^
STACK CFI 94000 .cfa: $rsp 80 +
STACK CFI INIT 941c0 1011 .cfa: $rsp .ra: .cfa 8 - ^
STACK CFI 941c0 .cfa: $rsp 304 +
STACK CFI INIT 951e0 801 .cfa: $rsp .ra: .cfa 8 - ^
STACK CFI 951e0 .cfa: $rsp 368 +
STACK CFI INIT 959f0 9e .cfa: $rsp .ra: .cfa 8 - ^
STACK CFI 959f0 .cfa: $rsp 752 +
STACK CFI INIT 95a90 111a .cfa: $rsp .ra: .cfa 8 - ^
STACK CFI 95a90 .cfa: $rsp 240 +
STACK CFI INIT 96bb0 174d .cfa: $rsp .ra: .cfa 8 - ^
STACK CFI 96bb0 .cfa: $rsp 1664 +
STACK CFI INIT 98300 73b .cfa: $rsp .ra: .cfa 8 - ^
STACK CFI 98300 .cfa: $rsp 288 +
STACK CFI INIT 98a40 c4 .cfa: $rsp .ra: .cfa 8 - ^
STACK CFI 98a40 .cfa: $rsp 112 +
STACK CFI INIT 98b10 6ac .cfa: $rsp .ra: .cfa 8 - ^
STACK CFI 98b10 .cfa: $rsp 192 +
STACK CFI INIT 991c0 23e .cfa: $rsp .ra: .cfa 8 - ^
STACK CFI 991c0 .cfa: $rsp 144 +
STACK CFI INIT 99400 9 .cfa: $rsp .ra: .cfa 8 - ^
STACK CFI 99400 .cfa: $rsp 8 +
STACK CFI INIT 99410 3 .cfa: $rsp .ra: .cfa 8 - ^
STACK CFI 99410 .cfa: $rsp 8 +
STACK CFI INIT 99420 f8 .cfa: $rsp .ra: .cfa 8 - ^
STACK CFI 99420 .cfa: $rsp 40 +
STACK CFI INIT 99520 da .cfa: $rsp .ra: .cfa 8 - ^
STACK CFI 99520 .cfa: $rsp 80 +
STACK CFI INIT 99600 12e .cfa: $rsp .ra: .cfa 8 - ^
STACK CFI 99600 .cfa: $rsp 96 +
STACK CFI INIT 99730 1f .cfa: $rsp .ra: .cfa 8 - ^
STACK CFI 99730 .cfa: $rsp 48 +
STACK CFI INIT 99750 99 .cfa: $rsp .ra: .cfa 8 - ^
STACK CFI 99750 .cfa: $rsp 24 +
STACK CFI INIT 997f0 4 .cfa: $rsp .ra: .cfa 8 - ^
STACK CFI 997f0 .cfa: $rsp 8 +
STACK CFI INIT 99800 9 .cfa: $rsp .ra: .cfa 8 - ^
STACK CFI 99800 .cfa: $rsp 8 +
STACK CFI INIT 99810 4 .cfa: $rsp .ra: .cfa 8 - ^
STACK CFI 99810 .cfa: $rsp 8 +
STACK CFI INIT 99820 84 .cfa: $rsp .ra: .cfa 8 - ^
STACK CFI 99820 .cfa: $rsp 80 +
STACK CFI INIT 998b0 185 .cfa: $rsp .ra: .cfa 8 - ^
STACK CFI 998b0 .cfa: $rsp 400 +
STACK CFI INIT 99a40 5 .cfa: $rsp .ra: .cfa 8 - ^
STACK CFI 99a40 .cfa: $rsp 8 +
STACK CFI INIT 99a50 41f .cfa: $rsp .ra: .cfa 8 - ^
STACK CFI 99a50 .cfa: $rsp 384 +
STACK CFI INIT 99e70 37 .cfa: $rsp .ra: .cfa 8 - ^
STACK CFI 99e70 .cfa: $rsp 64 +
STACK CFI INIT 99eb0 33 .cfa: $rsp .ra: .cfa 8 - ^
STACK CFI 99eb0 .cfa: $rsp 48 +
STACK CFI INIT 99ef0 3d .cfa: $rsp .ra: .cfa 8 - ^
STACK CFI 99ef0 .cfa: $rsp 64 +
STACK CFI INIT 99f30 369 .cfa: $rsp .ra: .cfa 8 - ^
STACK CFI 99f30 .cfa: $rsp 128 +
STACK CFI INIT 9a2a0 2bd .cfa: $rsp .ra: .cfa 8 - ^
STACK CFI 9a2a0 .cfa: $rsp 128 +
STACK CFI INIT 9a560 6a .cfa: $rsp .ra: .cfa 8 - ^
STACK CFI 9a560 .cfa: $rsp 64 +
STACK CFI INIT 9a5d0 30b .cfa: $rsp .ra: .cfa 8 - ^
STACK CFI 9a5d0 .cfa: $rsp 144 +
STACK CFI INIT 9a8e0 be .cfa: $rsp .ra: .cfa 8 - ^
STACK CFI 9a8e0 .cfa: $rsp 64 +
STACK CFI INIT 9a9a0 3d .cfa: $rsp .ra: .cfa 8 - ^
STACK CFI 9a9a0 .cfa: $rsp 8 +
STACK CFI INIT 9a9e0 bf .cfa: $rsp .ra: .cfa 8 - ^
STACK CFI 9a9e0 .cfa: $rsp 64 +
STACK CFI INIT 9aaa0 d2 .cfa: $rsp .ra: .cfa 8 - ^
STACK CFI 9aaa0 .cfa: $rsp 64 +
STACK CFI INIT 9ab80 da .cfa: $rsp .ra: .cfa 8 - ^
STACK CFI 9ab80 .cfa: $rsp 64 +
STACK CFI INIT 9ac60 b1 .cfa: $rsp .ra: .cfa 8 - ^
STACK CFI 9ac60 .cfa: $rsp 64 +
STACK CFI INIT 9ad20 9 .cfa: $rsp .ra: .cfa 8 - ^
STACK CFI 9ad20 .cfa: $rsp 8 +
STACK CFI INIT 9ad30 dd .cfa: $rsp .ra: .cfa 8 - ^
STACK CFI 9ad30 .cfa: $rsp 64 +
STACK CFI INIT 9ae10 10d .cfa: $rsp .ra: .cfa 8 - ^
STACK CFI 9ae10 .cfa: $rsp 64 +
STACK CFI INIT 9af20 6 .cfa: $rsp .ra: .cfa 8 - ^
STACK CFI 9af20 .cfa: $rsp 8 +
STACK CFI INIT 9af30 e9 .cfa: $rsp .ra: .cfa 8 - ^
STACK CFI 9af30 .cfa: $rsp 64 +
STACK CFI INIT 9b020 8a .cfa: $rsp .ra: .cfa 8 - ^
STACK CFI 9b020 .cfa: $rsp 24 +
STACK CFI INIT 9b0b0 145 .cfa: $rsp .ra: .cfa 8 - ^
STACK CFI 9b0b0 .cfa: $rsp 128 +
STACK CFI INIT 9b200 e5 .cfa: $rsp .ra: .cfa 8 - ^
STACK CFI 9b200 .cfa: $rsp 80 +
STACK CFI INIT 9b2f0 328 .cfa: $rsp .ra: .cfa 8 - ^
STACK CFI 9b2f0 .cfa: $rsp 176 +
STACK CFI INIT 9b620 c8f .cfa: $rsp .ra: .cfa 8 - ^
STACK CFI 9b620 .cfa: $rsp 288 +
STACK CFI INIT 9c2b0 1044 .cfa: $rsp .ra: .cfa 8 - ^
STACK CFI 9c2b0 .cfa: $rsp 608 +
STACK CFI INIT 9d300 132 .cfa: $rsp .ra: .cfa 8 - ^
STACK CFI 9d300 .cfa: $rsp 112 +
STACK CFI INIT 9d440 8b .cfa: $rsp .ra: .cfa 8 - ^
STACK CFI 9d440 .cfa: $rsp 80 +
STACK CFI INIT 9d4d0 648 .cfa: $rsp .ra: .cfa 8 - ^
STACK CFI 9d4d0 .cfa: $rsp 176 +
STACK CFI INIT 9db20 22 .cfa: $rsp .ra: .cfa 8 - ^
STACK CFI 9db20 .cfa: $rsp 96 +
STACK CFI INIT 9db50 18 .cfa: $rsp .ra: .cfa 8 - ^
STACK CFI 9db50 .cfa: $rsp 8 +
STACK CFI INIT 9db70 f .cfa: $rsp .ra: .cfa 8 - ^
STACK CFI 9db70 .cfa: $rsp 8 +
STACK CFI INIT 9db80 87 .cfa: $rsp .ra: .cfa 8 - ^
STACK CFI 9db80 .cfa: $rsp 64 +
STACK CFI INIT 9dc10 52 .cfa: $rsp .ra: .cfa 8 - ^
STACK CFI 9dc10 .cfa: $rsp 8 +
STACK CFI INIT 9dc70 132 .cfa: $rsp .ra: .cfa 8 - ^
STACK CFI 9dc70 .cfa: $rsp 176 +
STACK CFI INIT 9ddb0 2bc .cfa: $rsp .ra: .cfa 8 - ^
STACK CFI 9ddb0 .cfa: $rsp 128 +
STACK CFI INIT 9e070 18e .cfa: $rsp .ra: .cfa 8 - ^
STACK CFI 9e070 .cfa: $rsp 128 +
STACK CFI INIT 9e200 19e .cfa: $rsp .ra: .cfa 8 - ^
STACK CFI 9e200 .cfa: $rsp 128 +
STACK CFI INIT 9e3a0 a8 .cfa: $rsp .ra: .cfa 8 - ^
STACK CFI 9e3a0 .cfa: $rsp 64 +
STACK CFI INIT 9e450 a8 .cfa: $rsp .ra: .cfa 8 - ^
STACK CFI 9e450 .cfa: $rsp 64 +
STACK CFI INIT 9e500 10a .cfa: $rsp .ra: .cfa 8 - ^
STACK CFI 9e500 .cfa: $rsp 64 +
STACK CFI INIT 9e610 a8 .cfa: $rsp .ra: .cfa 8 - ^
STACK CFI 9e610 .cfa: $rsp 64 +
STACK CFI INIT 9e6c0 a8 .cfa: $rsp .ra: .cfa 8 - ^
STACK CFI 9e6c0 .cfa: $rsp 64 +
STACK CFI INIT 9e770 10a .cfa: $rsp .ra: .cfa 8 - ^
STACK CFI 9e770 .cfa: $rsp 64 +
STACK CFI INIT 9e880 e4 .cfa: $rsp .ra: .cfa 8 - ^
STACK CFI 9e880 .cfa: $rsp 64 +
STACK CFI INIT 9e970 10a .cfa: $rsp .ra: .cfa 8 - ^
STACK CFI 9e970 .cfa: $rsp 64 +
STACK CFI INIT 9ea80 10a .cfa: $rsp .ra: .cfa 8 - ^
STACK CFI 9ea80 .cfa: $rsp 64 +
STACK CFI INIT 9eb90 f9 .cfa: $rsp .ra: .cfa 8 - ^
STACK CFI 9eb90 .cfa: $rsp 64 +
STACK CFI INIT 9ec90 153 .cfa: $rsp .ra: .cfa 8 - ^
STACK CFI 9ec90 .cfa: $rsp 64 +
STACK CFI INIT 9edf0 163 .cfa: $rsp .ra: .cfa 8 - ^
STACK CFI 9edf0 .cfa: $rsp 64 +
STACK CFI INIT 9ef60 1b0 .cfa: $rsp .ra: .cfa 8 - ^
STACK CFI 9ef60 .cfa: $rsp 64 +
STACK CFI INIT 9f110 182 .cfa: $rsp .ra: .cfa 8 - ^
STACK CFI 9f110 .cfa: $rsp 64 +
STACK CFI INIT 9f2a0 36d .cfa: $rsp .ra: .cfa 8 - ^
STACK CFI 9f2a0 .cfa: $rsp 128 +
STACK CFI INIT 9f610 5b5 .cfa: $rsp .ra: .cfa 8 - ^
STACK CFI 9f610 .cfa: $rsp 112 +
STACK CFI INIT 9fbd0 14 .cfa: $rsp .ra: .cfa 8 - ^
STACK CFI 9fbd0 .cfa: $rsp 8 +
STACK CFI INIT 9fbf0 10 .cfa: $rsp .ra: .cfa 8 - ^
STACK CFI 9fbf0 .cfa: $rsp 8 +
STACK CFI INIT 9fc00 985 .cfa: $rsp .ra: .cfa 8 - ^
STACK CFI 9fc00 .cfa: $rsp 176 +
STACK CFI INIT a0590 928 .cfa: $rsp .ra: .cfa 8 - ^
STACK CFI a0590 .cfa: $rsp 192 +
STACK CFI INIT a0ec0 e .cfa: $rsp .ra: .cfa 8 - ^
STACK CFI a0ec0 .cfa: $rsp 8 +
STACK CFI INIT a0ed0 1a .cfa: $rsp .ra: .cfa 8 - ^
STACK CFI a0ed0 .cfa: $rsp 48 +
STACK CFI INIT a0ef0 a05 .cfa: $rsp .ra: .cfa 8 - ^
STACK CFI a0ef0 .cfa: $rsp 176 +
STACK CFI INIT a1900 14 .cfa: $rsp .ra: .cfa 8 - ^
STACK CFI a1900 .cfa: $rsp 8 +
STACK CFI INIT a1920 10 .cfa: $rsp .ra: .cfa 8 - ^
STACK CFI a1920 .cfa: $rsp 8 +
STACK CFI INIT a1930 101 .cfa: $rsp .ra: .cfa 8 - ^
STACK CFI a1930 .cfa: $rsp 128 +
STACK CFI INIT a1a40 b .cfa: $rsp .ra: .cfa 8 - ^
STACK CFI a1a40 .cfa: $rsp 8 +
STACK CFI INIT a1a50 b .cfa: $rsp .ra: .cfa 8 - ^
STACK CFI a1a50 .cfa: $rsp 8 +
STACK CFI INIT a1a60 25e .cfa: $rsp .ra: .cfa 8 - ^
STACK CFI a1a60 .cfa: $rsp 80 +
STACK CFI INIT a1cc0 52 .cfa: $rsp .ra: .cfa 8 - ^
STACK CFI a1cc0 .cfa: $rsp 8 +
STACK CFI INIT a1d20 52 .cfa: $rsp .ra: .cfa 8 - ^
STACK CFI a1d20 .cfa: $rsp 8 +
STACK CFI INIT a1d80 60 .cfa: $rsp .ra: .cfa 8 - ^
STACK CFI a1d80 .cfa: $rsp 8 +
STACK CFI INIT a1de0 124 .cfa: $rsp .ra: .cfa 8 - ^
STACK CFI a1de0 .cfa: $rsp 64 +
STACK CFI INIT a1f10 1c9 .cfa: $rsp .ra: .cfa 8 - ^
STACK CFI a1f10 .cfa: $rsp 112 +
STACK CFI INIT a20e0 1b5 .cfa: $rsp .ra: .cfa 8 - ^
STACK CFI a20e0 .cfa: $rsp 96 +
STACK CFI INIT a22a0 5 .cfa: $rsp .ra: .cfa 8 - ^
STACK CFI a22a0 .cfa: $rsp 8 +
STACK CFI INIT a22b0 b2 .cfa: $rsp .ra: .cfa 8 - ^
STACK CFI a22b0 .cfa: $rsp 80 +
STACK CFI INIT a2370 b2 .cfa: $rsp .ra: .cfa 8 - ^
STACK CFI a2370 .cfa: $rsp 80 +
STACK CFI INIT a2430 92 .cfa: $rsp .ra: .cfa 8 - ^
STACK CFI a2430 .cfa: $rsp 32 +
STACK CFI INIT a24d0 c4 .cfa: $rsp .ra: .cfa 8 - ^
STACK CFI a24d0 .cfa: $rsp 2144 +
STACK CFI INIT a25a0 53 .cfa: $rsp .ra: .cfa 8 - ^
STACK CFI a25a0 .cfa: $rsp 48 +
STACK CFI INIT a2600 5cf .cfa: $rsp .ra: .cfa 8 - ^
STACK CFI a2600 .cfa: $rsp 112 +
STACK CFI INIT a2bd0 b72 .cfa: $rsp .ra: .cfa 8 - ^
STACK CFI a2bd0 .cfa: $rsp 432 +
STACK CFI INIT a3750 c50 .cfa: $rsp .ra: .cfa 8 - ^
STACK CFI a3750 .cfa: $rsp 2368 +
STACK CFI INIT a43a0 4d5 .cfa: $rsp .ra: .cfa 8 - ^
STACK CFI a43a0 .cfa: $rsp 128 +
STACK CFI INIT a4880 53a .cfa: $rsp .ra: .cfa 8 - ^
STACK CFI a4880 .cfa: $rsp 1424 +
STACK CFI INIT a4dc0 1788 .cfa: $rsp .ra: .cfa 8 - ^
STACK CFI a4dc0 .cfa: $rsp 256 +
STACK CFI INIT a6550 fce .cfa: $rsp .ra: .cfa 8 - ^
STACK CFI a6550 .cfa: $rsp 384 +
STACK CFI INIT a7520 14 .cfa: $rsp .ra: .cfa 8 - ^
STACK CFI a7520 .cfa: $rsp 8 +
STACK CFI INIT a7540 10 .cfa: $rsp .ra: .cfa 8 - ^
STACK CFI a7540 .cfa: $rsp 8 +
STACK CFI INIT a7550 49 .cfa: $rsp .ra: .cfa 8 - ^
STACK CFI a7550 .cfa: $rsp 48 +
STACK CFI INIT a75a0 c0 .cfa: $rsp .ra: .cfa 8 - ^
STACK CFI a75a0 .cfa: $rsp 64 +
STACK CFI INIT a7660 c0 .cfa: $rsp .ra: .cfa 8 - ^
STACK CFI a7660 .cfa: $rsp 64 +
STACK CFI INIT a7720 367 .cfa: $rsp .ra: .cfa 8 - ^
STACK CFI a7720 .cfa: $rsp 160 +
STACK CFI INIT a7a90 357 .cfa: $rsp .ra: .cfa 8 - ^
STACK CFI a7a90 .cfa: $rsp 160 +
STACK CFI INIT a7df0 1501 .cfa: $rsp .ra: .cfa 8 - ^
STACK CFI a7df0 .cfa: $rsp 432 +
STACK CFI INIT a9300 65f .cfa: $rsp .ra: .cfa 8 - ^
STACK CFI a9300 .cfa: $rsp 192 +
STACK CFI INIT a9960 1734 .cfa: $rsp .ra: .cfa 8 - ^
STACK CFI a9960 .cfa: $rsp 240 +
STACK CFI INIT ab0a0 68a .cfa: $rsp .ra: .cfa 8 - ^
STACK CFI ab0a0 .cfa: $rsp 128 +
STACK CFI INIT ab730 9cb .cfa: $rsp .ra: .cfa 8 - ^
STACK CFI ab730 .cfa: $rsp 416 +
STACK CFI INIT ac100 167 .cfa: $rsp .ra: .cfa 8 - ^
STACK CFI ac100 .cfa: $rsp 96 +
STACK CFI INIT ac270 7b .cfa: $rsp .ra: .cfa 8 - ^
STACK CFI ac270 .cfa: $rsp 48 +
STACK CFI INIT ac2f0 15 .cfa: $rsp .ra: .cfa 8 - ^
STACK CFI ac2f0 .cfa: $rsp 8 +
STACK CFI INIT ac310 4f .cfa: $rsp .ra: .cfa 8 - ^
STACK CFI ac310 .cfa: $rsp 96 +
STACK CFI INIT ac360 3f .cfa: $rsp .ra: .cfa 8 - ^
STACK CFI ac360 .cfa: $rsp 48 +
STACK CFI INIT ac3a0 9b .cfa: $rsp .ra: .cfa 8 - ^
STACK CFI ac3a0 .cfa: $rsp 48 +
STACK CFI INIT ac440 5d5 .cfa: $rsp .ra: .cfa 8 - ^
STACK CFI ac440 .cfa: $rsp 192 +
STACK CFI INIT aca20 565 .cfa: $rsp .ra: .cfa 8 - ^
STACK CFI aca20 .cfa: $rsp 144 +
STACK CFI INIT acf90 565 .cfa: $rsp .ra: .cfa 8 - ^
STACK CFI acf90 .cfa: $rsp 144 +
STACK CFI INIT ad500 595 .cfa: $rsp .ra: .cfa 8 - ^
STACK CFI ad500 .cfa: $rsp 144 +
STACK CFI INIT adaa0 595 .cfa: $rsp .ra: .cfa 8 - ^
STACK CFI adaa0 .cfa: $rsp 144 +
STACK CFI INIT ae040 576 .cfa: $rsp .ra: .cfa 8 - ^
STACK CFI ae040 .cfa: $rsp 112 +
STACK CFI INIT ae5c0 5d5 .cfa: $rsp .ra: .cfa 8 - ^
STACK CFI ae5c0 .cfa: $rsp 192 +
STACK CFI INIT aeba0 70a .cfa: $rsp .ra: .cfa 8 - ^
STACK CFI aeba0 .cfa: $rsp 128 +
STACK CFI INIT af2b0 192 .cfa: $rsp .ra: .cfa 8 - ^
STACK CFI af2b0 .cfa: $rsp 80 +
STACK CFI INIT af450 5af .cfa: $rsp .ra: .cfa 8 - ^
STACK CFI af450 .cfa: $rsp 128 +
STACK CFI INIT afa00 110 .cfa: $rsp .ra: .cfa 8 - ^
STACK CFI afa00 .cfa: $rsp 64 +
STACK CFI INIT afb10 2b .cfa: $rsp .ra: .cfa 8 - ^
STACK CFI afb10 .cfa: $rsp 48 +
STACK CFI INIT afb40 10c6 .cfa: $rsp .ra: .cfa 8 - ^
STACK CFI afb40 .cfa: $rsp 144 +
STACK CFI INIT b0c10 631 .cfa: $rsp .ra: .cfa 8 - ^
STACK CFI b0c10 .cfa: $rsp 96 +
STACK CFI INIT b1250 59 .cfa: $rsp .ra: .cfa 8 - ^
STACK CFI b1250 .cfa: $rsp 64 +
STACK CFI INIT b12b0 39 .cfa: $rsp .ra: .cfa 8 - ^
STACK CFI b12b0 .cfa: $rsp 64 +
STACK CFI INIT b12f0 c .cfa: $rsp .ra: .cfa 8 - ^
STACK CFI b12f0 .cfa: $rsp 8 +
STACK CFI INIT b1300 d .cfa: $rsp .ra: .cfa 8 - ^
STACK CFI b1300 .cfa: $rsp 8 +
STACK CFI INIT b1310 d .cfa: $rsp .ra: .cfa 8 - ^
STACK CFI b1310 .cfa: $rsp 8 +
STACK CFI INIT b1320 17 .cfa: $rsp .ra: .cfa 8 - ^
STACK CFI b1320 .cfa: $rsp 8 +
STACK CFI INIT b1340 26 .cfa: $rsp .ra: .cfa 8 - ^
STACK CFI b1340 .cfa: $rsp 8 +
STACK CFI INIT b1370 19 .cfa: $rsp .ra: .cfa 8 - ^
STACK CFI b1370 .cfa: $rsp 8 +
STACK CFI INIT b1390 f .cfa: $rsp .ra: .cfa 8 - ^
STACK CFI b1390 .cfa: $rsp 8 +
STACK CFI INIT b13a0 5 .cfa: $rsp .ra: .cfa 8 - ^
STACK CFI b13a0 .cfa: $rsp 8 +
STACK CFI INIT b13b0 5 .cfa: $rsp .ra: .cfa 8 - ^
STACK CFI b13b0 .cfa: $rsp 8 +
STACK CFI INIT b13c0 3b .cfa: $rsp .ra: .cfa 8 - ^
STACK CFI b13c0 .cfa: $rsp 8 +
STACK CFI INIT b1400 18 .cfa: $rsp .ra: .cfa 8 - ^
STACK CFI b1400 .cfa: $rsp 8 +
STACK CFI INIT b1420 1b .cfa: $rsp .ra: .cfa 8 - ^
STACK CFI b1420 .cfa: $rsp 8 +
STACK CFI INIT b1440 1b .cfa: $rsp .ra: .cfa 8 - ^
STACK CFI b1440 .cfa: $rsp 8 +
STACK CFI INIT b1460 1b .cfa: $rsp .ra: .cfa 8 - ^
STACK CFI b1460 .cfa: $rsp 8 +
STACK CFI INIT b1480 11 .cfa: $rsp .ra: .cfa 8 - ^
STACK CFI b1480 .cfa: $rsp 8 +
STACK CFI INIT b14a0 11 .cfa: $rsp .ra: .cfa 8 - ^
STACK CFI b14a0 .cfa: $rsp 8 +
STACK CFI INIT b14c0 3f .cfa: $rsp .ra: .cfa 8 - ^
STACK CFI b14c0 .cfa: $rsp 8 +
STACK CFI INIT b1500 616 .cfa: $rsp .ra: .cfa 8 - ^
STACK CFI b1500 .cfa: $rsp 112 +
STACK CFI INIT b1b20 4a .cfa: $rsp .ra: .cfa 8 - ^
STACK CFI b1b20 .cfa: $rsp 8 +
STACK CFI INIT b1b70 1be .cfa: $rsp .ra: .cfa 8 - ^
STACK CFI b1b70 .cfa: $rsp 144 +
STACK CFI INIT b1d30 d4 .cfa: $rsp .ra: .cfa 8 - ^
STACK CFI b1d30 .cfa: $rsp 112 +
STACK CFI INIT b1e10 d .cfa: $rsp .ra: .cfa 8 - ^
STACK CFI b1e10 .cfa: $rsp 8 +
STACK CFI INIT b1e20 403 .cfa: $rsp .ra: .cfa 8 - ^
STACK CFI b1e20 .cfa: $rsp 176 +
STACK CFI INIT b2230 3f3 .cfa: $rsp .ra: .cfa 8 - ^
STACK CFI b2230 .cfa: $rsp 176 +
STACK CFI INIT b2630 20 .cfa: $rsp .ra: .cfa 8 - ^
STACK CFI b2630 .cfa: $rsp 8 +
STACK CFI INIT b2650 a9 .cfa: $rsp .ra: .cfa 8 - ^
STACK CFI b2650 .cfa: $rsp 64 +
STACK CFI INIT b2700 14 .cfa: $rsp .ra: .cfa 8 - ^
STACK CFI b2700 .cfa: $rsp 8 +
STACK CFI INIT b2720 10 .cfa: $rsp .ra: .cfa 8 - ^
STACK CFI b2720 .cfa: $rsp 8 +
STACK CFI INIT b2730 101 .cfa: $rsp .ra: .cfa 8 - ^
STACK CFI b2730 .cfa: $rsp 128 +
STACK CFI INIT b2840 3c .cfa: $rsp .ra: .cfa 8 - ^
STACK CFI b2840 .cfa: $rsp 48 +
STACK CFI INIT b2880 16e .cfa: $rsp .ra: .cfa 8 - ^
STACK CFI b2880 .cfa: $rsp 80 +
STACK CFI INIT b29f0 25e .cfa: $rsp .ra: .cfa 8 - ^
STACK CFI b29f0 .cfa: $rsp 80 +
STACK CFI INIT b2c50 d4 .cfa: $rsp .ra: .cfa 8 - ^
STACK CFI b2c50 .cfa: $rsp 80 +
STACK CFI INIT b2d30 1f .cfa: $rsp .ra: .cfa 8 - ^
STACK CFI b2d30 .cfa: $rsp 48 +
STACK CFI INIT b2d50 4f7 .cfa: $rsp .ra: .cfa 8 - ^
STACK CFI b2d50 .cfa: $rsp 112 +
STACK CFI INIT b3250 532 .cfa: $rsp .ra: .cfa 8 - ^
STACK CFI b3250 .cfa: $rsp 160 +
STACK CFI INIT b3790 245 .cfa: $rsp .ra: .cfa 8 - ^
STACK CFI b3790 .cfa: $rsp 96 +
STACK CFI INIT b39e0 21f .cfa: $rsp .ra: .cfa 8 - ^
STACK CFI b39e0 .cfa: $rsp 112 +
STACK CFI INIT b3c00 12 .cfa: $rsp .ra: .cfa 8 - ^
STACK CFI b3c00 .cfa: $rsp 8 +
STACK CFI INIT b3c20 12 .cfa: $rsp .ra: .cfa 8 - ^
STACK CFI b3c20 .cfa: $rsp 8 +
STACK CFI INIT b3c40 12 .cfa: $rsp .ra: .cfa 8 - ^
STACK CFI b3c40 .cfa: $rsp 8 +
STACK CFI INIT b3c60 12 .cfa: $rsp .ra: .cfa 8 - ^
STACK CFI b3c60 .cfa: $rsp 8 +
STACK CFI INIT b3c80 12 .cfa: $rsp .ra: .cfa 8 - ^
STACK CFI b3c80 .cfa: $rsp 8 +
STACK CFI INIT b3ca0 12 .cfa: $rsp .ra: .cfa 8 - ^
STACK CFI b3ca0 .cfa: $rsp 8 +
STACK CFI INIT b3cc0 12 .cfa: $rsp .ra: .cfa 8 - ^
STACK CFI b3cc0 .cfa: $rsp 8 +
STACK CFI INIT b3ce0 12 .cfa: $rsp .ra: .cfa 8 - ^
STACK CFI b3ce0 .cfa: $rsp 8 +
STACK CFI INIT b3d00 12 .cfa: $rsp .ra: .cfa 8 - ^
STACK CFI b3d00 .cfa: $rsp 8 +
STACK CFI INIT b3d20 f .cfa: $rsp .ra: .cfa 8 - ^
STACK CFI b3d20 .cfa: $rsp 8 +
STACK CFI INIT b3d30 21f .cfa: $rsp .ra: .cfa 8 - ^
STACK CFI b3d30 .cfa: $rsp 112 +
STACK CFI INIT b3f50 c .cfa: $rsp .ra: .cfa 8 - ^
STACK CFI b3f50 .cfa: $rsp 8 +
STACK CFI INIT b3f60 20b .cfa: $rsp .ra: .cfa 8 - ^
STACK CFI b3f60 .cfa: $rsp 112 +
STACK CFI INIT b4170 c .cfa: $rsp .ra: .cfa 8 - ^
STACK CFI b4170 .cfa: $rsp 8 +
STACK CFI INIT b4180 20b .cfa: $rsp .ra: .cfa 8 - ^
STACK CFI b4180 .cfa: $rsp 112 +
STACK CFI INIT b4390 c .cfa: $rsp .ra: .cfa 8 - ^
STACK CFI b4390 .cfa: $rsp 8 +
STACK CFI INIT b43a0 55 .cfa: $rsp .ra: .cfa 8 - ^
STACK CFI b43a0 .cfa: $rsp 48 +
STACK CFI INIT b4400 9 .cfa: $rsp .ra: .cfa 8 - ^
STACK CFI b4400 .cfa: $rsp 8 +
STACK CFI INIT b4410 1c .cfa: $rsp .ra: .cfa 8 - ^
STACK CFI b4410 .cfa: $rsp 8 +
STACK CFI INIT b4430 f .cfa: $rsp .ra: .cfa 8 - ^
STACK CFI b4430 .cfa: $rsp 8 +
STACK CFI INIT b4440 ae9 .cfa: $rsp .ra: .cfa 8 - ^
STACK CFI b4440 .cfa: $rsp 144 +
STACK CFI INIT b4f30 8 .cfa: $rsp .ra: .cfa 8 - ^
STACK CFI b4f30 .cfa: $rsp 8 +
STACK CFI INIT b4f40 11 .cfa: $rsp .ra: .cfa 8 - ^
STACK CFI b4f40 .cfa: $rsp 48 +
STACK CFI INIT b4f60 296 .cfa: $rsp .ra: .cfa 8 - ^
STACK CFI b4f60 .cfa: $rsp 96 +
STACK CFI INIT b5200 43 .cfa: $rsp .ra: .cfa 8 - ^
STACK CFI b5200 .cfa: $rsp 64 +
STACK CFI INIT b5250 56d .cfa: $rsp .ra: .cfa 8 - ^
STACK CFI b5250 .cfa: $rsp 192 +
STACK CFI INIT b57c0 52 .cfa: $rsp .ra: .cfa 8 - ^
STACK CFI b57c0 .cfa: $rsp 64 +
STACK CFI INIT b5820 45 .cfa: $rsp .ra: .cfa 8 - ^
STACK CFI b5820 .cfa: $rsp 48 +
STACK CFI INIT b5870 51 .cfa: $rsp .ra: .cfa 8 - ^
STACK CFI b5870 .cfa: $rsp 64 +
STACK CFI INIT b58d0 e6 .cfa: $rsp .ra: .cfa 8 - ^
STACK CFI b58d0 .cfa: $rsp 96 +
STACK CFI INIT b59c0 65 .cfa: $rsp .ra: .cfa 8 - ^
STACK CFI b59c0 .cfa: $rsp 80 +
STACK CFI INIT b5a30 127 .cfa: $rsp .ra: .cfa 8 - ^
STACK CFI b5a30 .cfa: $rsp 128 +
STACK CFI INIT b5b60 21 .cfa: $rsp .ra: .cfa 8 - ^
STACK CFI b5b60 .cfa: $rsp 8 +
STACK CFI INIT b5b90 21 .cfa: $rsp .ra: .cfa 8 - ^
STACK CFI b5b90 .cfa: $rsp 8 +
STACK CFI INIT b5bc0 21 .cfa: $rsp .ra: .cfa 8 - ^
STACK CFI b5bc0 .cfa: $rsp 8 +
STACK CFI INIT b5bf0 10 .cfa: $rsp .ra: .cfa 8 - ^
STACK CFI b5bf0 .cfa: $rsp 8 +
STACK CFI INIT b5c00 2c .cfa: $rsp .ra: .cfa 8 - ^
STACK CFI b5c00 .cfa: $rsp 48 +
STACK CFI INIT b5c30 54 .cfa: $rsp .ra: .cfa 8 - ^
STACK CFI b5c30 .cfa: $rsp 8 +
STACK CFI INIT b5c90 101 .cfa: $rsp .ra: .cfa 8 - ^
STACK CFI b5c90 .cfa: $rsp 128 +
STACK CFI INIT b5da0 16e .cfa: $rsp .ra: .cfa 8 - ^
STACK CFI b5da0 .cfa: $rsp 80 +
STACK CFI INIT b5f10 25e .cfa: $rsp .ra: .cfa 8 - ^
STACK CFI b5f10 .cfa: $rsp 80 +
STACK CFI INIT b6170 d5 .cfa: $rsp .ra: .cfa 8 - ^
STACK CFI b6170 .cfa: $rsp 64 +
STACK CFI INIT b6250 d9 .cfa: $rsp .ra: .cfa 8 - ^
STACK CFI b6250 .cfa: $rsp 64 +
STACK CFI INIT b6330 532 .cfa: $rsp .ra: .cfa 8 - ^
STACK CFI b6330 .cfa: $rsp 160 +
STACK CFI INIT b6870 54 .cfa: $rsp .ra: .cfa 8 - ^
STACK CFI b6870 .cfa: $rsp 64 +
STACK CFI INIT b68d0 926 .cfa: $rsp .ra: .cfa 8 - ^
STACK CFI b68d0 .cfa: $rsp 160 +
STACK CFI INIT b7200 1b .cfa: $rsp .ra: .cfa 8 - ^
STACK CFI b7200 .cfa: $rsp 48 +
STACK CFI INIT b7220 47 .cfa: $rsp .ra: .cfa 8 - ^
STACK CFI b7220 .cfa: $rsp 48 +
STACK CFI INIT b7270 e .cfa: $rsp .ra: .cfa 8 - ^
STACK CFI b7270 .cfa: $rsp 8 +
STACK CFI INIT b7280 78 .cfa: $rsp .ra: .cfa 8 - ^
STACK CFI b7280 .cfa: $rsp 64 +
STACK CFI INIT b7300 78 .cfa: $rsp .ra: .cfa 8 - ^
STACK CFI b7300 .cfa: $rsp 64 +
STACK CFI INIT b7380 2d5 .cfa: $rsp .ra: .cfa 8 - ^
STACK CFI b7380 .cfa: $rsp 128 +
STACK CFI INIT b7660 aa3 .cfa: $rsp .ra: .cfa 8 - ^
STACK CFI b7660 .cfa: $rsp 160 +
STACK CFI INIT b8110 13af .cfa: $rsp .ra: .cfa 8 - ^
STACK CFI b8110 .cfa: $rsp 224 +
STACK CFI INIT b94c0 4d .cfa: $rsp .ra: .cfa 8 - ^
STACK CFI b94c0 .cfa: $rsp 64 +
STACK CFI INIT b9510 a6 .cfa: $rsp .ra: .cfa 8 - ^
STACK CFI b9510 .cfa: $rsp 64 +
STACK CFI INIT b95c0 31 .cfa: $rsp .ra: .cfa 8 - ^
STACK CFI b95c0 .cfa: $rsp 8 +
STACK CFI INIT b9600 48 .cfa: $rsp .ra: .cfa 8 - ^
STACK CFI b9600 .cfa: $rsp 64 +
STACK CFI INIT b9650 1b7 .cfa: $rsp .ra: .cfa 8 - ^
STACK CFI b9650 .cfa: $rsp 96 +
STACK CFI INIT b9810 25 .cfa: $rsp .ra: .cfa 8 - ^
STACK CFI b9810 .cfa: $rsp 8 +
STACK CFI INIT b9840 a8 .cfa: $rsp .ra: .cfa 8 - ^
STACK CFI b9840 .cfa: $rsp 80 +
STACK CFI INIT b98f0 105 .cfa: $rsp .ra: .cfa 8 - ^
STACK CFI b98f0 .cfa: $rsp 112 +
STACK CFI INIT b9a00 82 .cfa: $rsp .ra: .cfa 8 - ^
STACK CFI b9a00 .cfa: $rsp 96 +
STACK CFI INIT b9a90 14 .cfa: $rsp .ra: .cfa 8 - ^
STACK CFI b9a90 .cfa: $rsp 8 +
STACK CFI INIT b9ab0 10 .cfa: $rsp .ra: .cfa 8 - ^
STACK CFI b9ab0 .cfa: $rsp 8 +
STACK CFI INIT b9ac0 2c5 .cfa: $rsp .ra: .cfa 8 - ^
STACK CFI b9ac0 .cfa: $rsp 128 +
STACK CFI INIT b9d90 25d .cfa: $rsp .ra: .cfa 8 - ^
STACK CFI b9d90 .cfa: $rsp 96 +
STACK CFI INIT b9ff0 57a .cfa: $rsp .ra: .cfa 8 - ^
STACK CFI b9ff0 .cfa: $rsp 128 +
STACK CFI INIT ba570 65c .cfa: $rsp .ra: .cfa 8 - ^
STACK CFI ba570 .cfa: $rsp 128 +
STACK CFI INIT babd0 2a5 .cfa: $rsp .ra: .cfa 8 - ^
STACK CFI babd0 .cfa: $rsp 128 +
STACK CFI INIT bae80 49 .cfa: $rsp .ra: .cfa 8 - ^
STACK CFI bae80 .cfa: $rsp 80 +
STACK CFI INIT baed0 21 .cfa: $rsp .ra: .cfa 8 - ^
STACK CFI baed0 .cfa: $rsp 8 +
STACK CFI INIT baf00 66 .cfa: $rsp .ra: .cfa 8 - ^
STACK CFI baf00 .cfa: $rsp 96 +
STACK CFI INIT baf70 143 .cfa: $rsp .ra: .cfa 8 - ^
STACK CFI baf70 .cfa: $rsp 128 +
STACK CFI INIT bb0c0 490 .cfa: $rsp .ra: .cfa 8 - ^
STACK CFI bb0c0 .cfa: $rsp 128 +
STACK CFI INIT bb550 4e2 .cfa: $rsp .ra: .cfa 8 - ^
STACK CFI bb550 .cfa: $rsp 128 +
STACK CFI INIT bba40 10a .cfa: $rsp .ra: .cfa 8 - ^
STACK CFI bba40 .cfa: $rsp 96 +
STACK CFI INIT bbb50 e2 .cfa: $rsp .ra: .cfa 8 - ^
STACK CFI bbb50 .cfa: $rsp 96 +
STACK CFI INIT bbc40 24e .cfa: $rsp .ra: .cfa 8 - ^
STACK CFI bbc40 .cfa: $rsp 112 +
STACK CFI INIT bbe90 7a .cfa: $rsp .ra: .cfa 8 - ^
STACK CFI bbe90 .cfa: $rsp 64 +
STACK CFI INIT bbf10 132 .cfa: $rsp .ra: .cfa 8 - ^
STACK CFI bbf10 .cfa: $rsp 176 +
STACK CFI INIT bc050 c4 .cfa: $rsp .ra: .cfa 8 - ^
STACK CFI bc050 .cfa: $rsp 112 +
STACK CFI INIT bc120 576 .cfa: $rsp .ra: .cfa 8 - ^
STACK CFI bc120 .cfa: $rsp 128 +
STACK CFI INIT bc6a0 780 .cfa: $rsp .ra: .cfa 8 - ^
STACK CFI bc6a0 .cfa: $rsp 128 +
STACK CFI INIT bce20 52a .cfa: $rsp .ra: .cfa 8 - ^
STACK CFI bce20 .cfa: $rsp 160 +
STACK CFI INIT bd350 51a .cfa: $rsp .ra: .cfa 8 - ^
STACK CFI bd350 .cfa: $rsp 160 +
STACK CFI INIT bd870 8a2 .cfa: $rsp .ra: .cfa 8 - ^
STACK CFI bd870 .cfa: $rsp 160 +
STACK CFI INIT be120 b56 .cfa: $rsp .ra: .cfa 8 - ^
STACK CFI be120 .cfa: $rsp 368 +
STACK CFI INIT bec80 4ed .cfa: $rsp .ra: .cfa 8 - ^
STACK CFI bec80 .cfa: $rsp 160 +
STACK CFI INIT bf170 595 .cfa: $rsp .ra: .cfa 8 - ^
STACK CFI bf170 .cfa: $rsp 160 +
STACK CFI INIT bf710 5ff .cfa: $rsp .ra: .cfa 8 - ^
STACK CFI bf710 .cfa: $rsp 160 +
STACK CFI INIT bfd10 589 .cfa: $rsp .ra: .cfa 8 - ^
STACK CFI bfd10 .cfa: $rsp 144 +
STACK CFI INIT c02a0 752 .cfa: $rsp .ra: .cfa 8 - ^
STACK CFI c02a0 .cfa: $rsp 144 +
STACK CFI INIT c0a00 2db .cfa: $rsp .ra: .cfa 8 - ^
STACK CFI c0a00 .cfa: $rsp 112 +
STACK CFI INIT c0ce0 71b .cfa: $rsp .ra: .cfa 8 - ^
STACK CFI c0ce0 .cfa: $rsp 144 +
STACK CFI INIT c1400 338 .cfa: $rsp .ra: .cfa 8 - ^
STACK CFI c1400 .cfa: $rsp 128 +
STACK CFI INIT c1740 2d0 .cfa: $rsp .ra: .cfa 8 - ^
STACK CFI c1740 .cfa: $rsp 112 +
STACK CFI INIT c1a10 e6 .cfa: $rsp .ra: .cfa 8 - ^
STACK CFI c1a10 .cfa: $rsp 80 +
STACK CFI INIT c1b00 1ca .cfa: $rsp .ra: .cfa 8 - ^
STACK CFI c1b00 .cfa: $rsp 96 +
STACK CFI INIT c1cd0 1ca .cfa: $rsp .ra: .cfa 8 - ^
STACK CFI c1cd0 .cfa: $rsp 96 +
STACK CFI INIT c1ea0 1ca .cfa: $rsp .ra: .cfa 8 - ^
STACK CFI c1ea0 .cfa: $rsp 96 +
STACK CFI INIT c2070 1ca .cfa: $rsp .ra: .cfa 8 - ^
STACK CFI c2070 .cfa: $rsp 96 +
STACK CFI INIT c2240 5f6 .cfa: $rsp .ra: .cfa 8 - ^
STACK CFI c2240 .cfa: $rsp 144 +
STACK CFI INIT c2840 1ca .cfa: $rsp .ra: .cfa 8 - ^
STACK CFI c2840 .cfa: $rsp 96 +
STACK CFI INIT c2a10 1ca .cfa: $rsp .ra: .cfa 8 - ^
STACK CFI c2a10 .cfa: $rsp 96 +
STACK CFI INIT c2be0 1ca .cfa: $rsp .ra: .cfa 8 - ^
STACK CFI c2be0 .cfa: $rsp 96 +
STACK CFI INIT c2db0 1ca .cfa: $rsp .ra: .cfa 8 - ^
STACK CFI c2db0 .cfa: $rsp 96 +
STACK CFI INIT c2f80 6b5 .cfa: $rsp .ra: .cfa 8 - ^
STACK CFI c2f80 .cfa: $rsp 160 +
STACK CFI INIT c3640 6b5 .cfa: $rsp .ra: .cfa 8 - ^
STACK CFI c3640 .cfa: $rsp 160 +
STACK CFI INIT c3d00 936 .cfa: $rsp .ra: .cfa 8 - ^
STACK CFI c3d00 .cfa: $rsp 160 +
STACK CFI INIT c4640 3b4 .cfa: $rsp .ra: .cfa 8 - ^
STACK CFI c4640 .cfa: $rsp 160 +
STACK CFI INIT c4a00 88b .cfa: $rsp .ra: .cfa 8 - ^
STACK CFI c4a00 .cfa: $rsp 208 +
STACK CFI INIT c5290 915 .cfa: $rsp .ra: .cfa 8 - ^
STACK CFI c5290 .cfa: $rsp 192 +
STACK CFI INIT c5bb0 a60 .cfa: $rsp .ra: .cfa 8 - ^
STACK CFI c5bb0 .cfa: $rsp 336 +
STACK CFI INIT c6610 1ed6 .cfa: $rsp .ra: .cfa 8 - ^
STACK CFI c6610 .cfa: $rsp 848 +
STACK CFI INIT c84f0 229 .cfa: $rsp .ra: .cfa 8 - ^
STACK CFI c84f0 .cfa: $rsp 80 +
STACK CFI INIT c8720 1a .cfa: $rsp .ra: .cfa 8 - ^
STACK CFI c8720 .cfa: $rsp 8 +
STACK CFI INIT c8740 3a .cfa: $rsp .ra: .cfa 8 - ^
STACK CFI c8740 .cfa: $rsp 8 +
STACK CFI INIT c8780 41 .cfa: $rsp .ra: .cfa 8 - ^
STACK CFI c8780 .cfa: $rsp 64 +
STACK CFI INIT c87d0 9 .cfa: $rsp .ra: .cfa 8 - ^
STACK CFI c87d0 .cfa: $rsp 8 +
STACK CFI INIT c87e0 70 .cfa: $rsp .ra: .cfa 8 - ^
STACK CFI c87e0 .cfa: $rsp 8 +
STACK CFI INIT c8850 1 .cfa: $rsp .ra: .cfa 8 - ^
STACK CFI c8850 .cfa: $rsp 8 +
STACK CFI INIT c8860 1 .cfa: $rsp .ra: .cfa 8 - ^
STACK CFI c8860 .cfa: $rsp 8 +
STACK CFI INIT c8870 15 .cfa: $rsp .ra: .cfa 8 - ^
STACK CFI c8870 .cfa: $rsp 8 +
STACK CFI INIT c8890 1be .cfa: $rsp .ra: .cfa 8 - ^
STACK CFI c8890 .cfa: $rsp 64 +
STACK CFI INIT c8a50 120 .cfa: $rsp .ra: .cfa 8 - ^
STACK CFI c8a50 .cfa: $rsp 80 +
STACK CFI INIT c8b70 8 .cfa: $rsp .ra: .cfa 8 - ^
STACK CFI c8b70 .cfa: $rsp 8 +
STACK CFI INIT c8b80 129 .cfa: $rsp .ra: .cfa 8 - ^
STACK CFI c8b80 .cfa: $rsp 64 +
STACK CFI INIT c8cb0 b4 .cfa: $rsp .ra: .cfa 8 - ^
STACK CFI c8cb0 .cfa: $rsp 8 +
STACK CFI INIT c8d70 2d .cfa: $rsp .ra: .cfa 8 - ^
STACK CFI c8d70 .cfa: $rsp 48 +
STACK CFI INIT c8da0 3b .cfa: $rsp .ra: .cfa 8 - ^
STACK CFI c8da0 .cfa: $rsp 64 +
STACK CFI INIT c8de0 b5 .cfa: $rsp .ra: .cfa 8 - ^
STACK CFI c8de0 .cfa: $rsp 80 +
STACK CFI INIT c8ea0 e .cfa: $rsp .ra: .cfa 8 - ^
STACK CFI c8ea0 .cfa: $rsp 8 +
STACK CFI INIT c8eb0 c .cfa: $rsp .ra: .cfa 8 - ^
STACK CFI c8eb0 .cfa: $rsp 8 +
STACK CFI INIT c8ec0 238 .cfa: $rsp .ra: .cfa 8 - ^
STACK CFI c8ec0 .cfa: $rsp 128 +
STACK CFI INIT c9100 2e1 .cfa: $rsp .ra: .cfa 8 - ^
STACK CFI c9100 .cfa: $rsp 128 +
STACK CFI INIT c93f0 21f .cfa: $rsp .ra: .cfa 8 - ^
STACK CFI c93f0 .cfa: $rsp 224 +
STACK CFI INIT c9610 b9 .cfa: $rsp .ra: .cfa 8 - ^
STACK CFI c9610 .cfa: $rsp 64 +
STACK CFI INIT c96d0 a9 .cfa: $rsp .ra: .cfa 8 - ^
STACK CFI c96d0 .cfa: $rsp 48 +
STACK CFI INIT c9780 10f .cfa: $rsp .ra: .cfa 8 - ^
STACK CFI c9780 .cfa: $rsp 80 +
STACK CFI INIT c9890 df .cfa: $rsp .ra: .cfa 8 - ^
STACK CFI c9890 .cfa: $rsp 64 +
STACK CFI INIT c9970 6a .cfa: $rsp .ra: .cfa 8 - ^
STACK CFI c9970 .cfa: $rsp 48 +
STACK CFI INIT c99e0 530 .cfa: $rsp .ra: .cfa 8 - ^
STACK CFI c99e0 .cfa: $rsp 8368 +
STACK CFI INIT c9f10 104 .cfa: $rsp .ra: .cfa 8 - ^
STACK CFI c9f10 .cfa: $rsp 80 +
STACK CFI INIT ca020 13b .cfa: $rsp .ra: .cfa 8 - ^
STACK CFI ca020 .cfa: $rsp 80 +
STACK CFI INIT ca160 105 .cfa: $rsp .ra: .cfa 8 - ^
STACK CFI ca160 .cfa: $rsp 80 +
STACK CFI INIT ca270 114 .cfa: $rsp .ra: .cfa 8 - ^
STACK CFI ca270 .cfa: $rsp 80 +
STACK CFI INIT ca390 1c .cfa: $rsp .ra: .cfa 8 - ^
STACK CFI ca390 .cfa: $rsp 48 +
STACK CFI INIT ca3b0 1c .cfa: $rsp .ra: .cfa 8 - ^
STACK CFI ca3b0 .cfa: $rsp 48 +
STACK CFI INIT ca3d0 210 .cfa: $rsp .ra: .cfa 8 - ^
STACK CFI ca3d0 .cfa: $rsp 80 +
STACK CFI INIT ca5e0 38 .cfa: $rsp .ra: .cfa 8 - ^
STACK CFI ca5e0 .cfa: $rsp 64 +
STACK CFI INIT ca620 43 .cfa: $rsp .ra: .cfa 8 - ^
STACK CFI ca620 .cfa: $rsp 96 +
STACK CFI INIT ca670 42f .cfa: $rsp .ra: .cfa 8 - ^
STACK CFI ca670 .cfa: $rsp 112 +
STACK CFI INIT caaa0 1617 .cfa: $rsp .ra: .cfa 8 - ^
STACK CFI caaa0 .cfa: $rsp 272 +
STACK CFI INIT cc0c0 1a93 .cfa: $rsp .ra: .cfa 8 - ^
STACK CFI cc0c0 .cfa: $rsp 304 +
STACK CFI INIT cdb60 1 .cfa: $rsp .ra: .cfa 8 - ^
STACK CFI cdb60 .cfa: $rsp 8 +
STACK CFI INIT cdb70 a .cfa: $rsp .ra: .cfa 8 - ^
STACK CFI cdb70 .cfa: $rsp 8 +
STACK CFI INIT cdb80 156 .cfa: $rsp .ra: .cfa 8 - ^
STACK CFI cdb80 .cfa: $rsp 112 +
STACK CFI INIT cdce0 29 .cfa: $rsp .ra: .cfa 8 - ^
STACK CFI cdce0 .cfa: $rsp 8 +
STACK CFI INIT cdd10 10 .cfa: $rsp .ra: .cfa 8 - ^
STACK CFI cdd10 .cfa: $rsp 8 +
STACK CFI INIT cdd20 13 .cfa: $rsp .ra: .cfa 8 - ^
STACK CFI cdd20 .cfa: $rsp 8 +
STACK CFI INIT cdd40 22 .cfa: $rsp .ra: .cfa 8 - ^
STACK CFI cdd40 .cfa: $rsp 64 +
STACK CFI INIT cdd70 29 .cfa: $rsp .ra: .cfa 8 - ^
STACK CFI cdd70 .cfa: $rsp 64 +
STACK CFI INIT cdda0 d8 .cfa: $rsp .ra: .cfa 8 - ^
STACK CFI cdda0 .cfa: $rsp 80 +
STACK CFI INIT cde80 3c .cfa: $rsp .ra: .cfa 8 - ^
STACK CFI cde80 .cfa: $rsp 64 +
STACK CFI INIT cdec0 38 .cfa: $rsp .ra: .cfa 8 - ^
STACK CFI cdec0 .cfa: $rsp 64 +
STACK CFI INIT cdf00 4f .cfa: $rsp .ra: .cfa 8 - ^
STACK CFI cdf00 .cfa: $rsp 64 +
STACK CFI INIT cdf50 11 .cfa: $rsp .ra: .cfa 8 - ^
STACK CFI cdf50 .cfa: $rsp 8 +
STACK CFI INIT cdf70 b .cfa: $rsp .ra: .cfa 8 - ^
STACK CFI cdf70 .cfa: $rsp 8 +
STACK CFI INIT cdf80 b7 .cfa: $rsp .ra: .cfa 8 - ^
STACK CFI cdf80 .cfa: $rsp 96 +
STACK CFI INIT ce040 4e .cfa: $rsp .ra: .cfa 8 - ^
STACK CFI ce040 .cfa: $rsp 64 +
STACK CFI INIT ce090 72 .cfa: $rsp .ra: .cfa 8 - ^
STACK CFI ce090 .cfa: $rsp 64 +
STACK CFI INIT ce110 34 .cfa: $rsp .ra: .cfa 8 - ^
STACK CFI ce110 .cfa: $rsp 48 +
STACK CFI INIT ce150 92 .cfa: $rsp .ra: .cfa 8 - ^
STACK CFI ce150 .cfa: $rsp 48 +
STACK CFI INIT ce1f0 20 .cfa: $rsp .ra: .cfa 8 - ^
STACK CFI ce1f0 .cfa: $rsp 64 +
STACK CFI INIT ce210 bb .cfa: $rsp .ra: .cfa 8 - ^
STACK CFI ce210 .cfa: $rsp 80 +
STACK CFI INIT ce2d0 142 .cfa: $rsp .ra: .cfa 8 - ^
STACK CFI ce2d0 .cfa: $rsp 96 +
STACK CFI INIT ce420 14d .cfa: $rsp .ra: .cfa 8 - ^
STACK CFI ce420 .cfa: $rsp 2192 +
STACK CFI INIT ce570 105 .cfa: $rsp .ra: .cfa 8 - ^
STACK CFI ce570 .cfa: $rsp 112 +
STACK CFI INIT ce680 11a .cfa: $rsp .ra: .cfa 8 - ^
STACK CFI ce680 .cfa: $rsp 144 +
STACK CFI INIT ce7a0 85 .cfa: $rsp .ra: .cfa 8 - ^
STACK CFI ce7a0 .cfa: $rsp 80 +
STACK CFI INIT ce830 105 .cfa: $rsp .ra: .cfa 8 - ^
STACK CFI ce830 .cfa: $rsp 112 +
STACK CFI INIT ce940 c9 .cfa: $rsp .ra: .cfa 8 - ^
STACK CFI ce940 .cfa: $rsp 160 +
STACK CFI INIT cea10 38f .cfa: $rsp .ra: .cfa 8 - ^
STACK CFI cea10 .cfa: $rsp 144 +
STACK CFI INIT ceda0 1da .cfa: $rsp .ra: .cfa 8 - ^
STACK CFI ceda0 .cfa: $rsp 144 +
STACK CFI INIT cef80 8e .cfa: $rsp .ra: .cfa 8 - ^
STACK CFI cef80 .cfa: $rsp 64 +
STACK CFI INIT cf010 36 .cfa: $rsp .ra: .cfa 8 - ^
STACK CFI cf010 .cfa: $rsp 8 +
STACK CFI INIT cf050 15 .cfa: $rsp .ra: .cfa 8 - ^
STACK CFI cf050 .cfa: $rsp 8 +
STACK CFI INIT cf070 9f .cfa: $rsp .ra: .cfa 8 - ^
STACK CFI cf070 .cfa: $rsp 8 +
STACK CFI INIT cf110 11b .cfa: $rsp .ra: .cfa 8 - ^
STACK CFI cf110 .cfa: $rsp 96 +
STACK CFI INIT cf230 5a .cfa: $rsp .ra: .cfa 8 - ^
STACK CFI cf230 .cfa: $rsp 8 +
STACK CFI INIT cf290 bb .cfa: $rsp .ra: .cfa 8 - ^
STACK CFI cf290 .cfa: $rsp 80 +
STACK CFI INIT cf350 5f .cfa: $rsp .ra: .cfa 8 - ^
STACK CFI cf350 .cfa: $rsp 8 +
STACK CFI INIT cf3b0 135 .cfa: $rsp .ra: .cfa 8 - ^
STACK CFI cf3b0 .cfa: $rsp 80 +
STACK CFI INIT cf4f0 56 .cfa: $rsp .ra: .cfa 8 - ^
STACK CFI cf4f0 .cfa: $rsp 8 +
STACK CFI INIT cf550 69 .cfa: $rsp .ra: .cfa 8 - ^
STACK CFI cf550 .cfa: $rsp 16 +
STACK CFI INIT cf5c0 69 .cfa: $rsp .ra: .cfa 8 - ^
STACK CFI cf5c0 .cfa: $rsp 16 +
STACK CFI INIT cf630 7d .cfa: $rsp .ra: .cfa 8 - ^
STACK CFI cf630 .cfa: $rsp 16 +
STACK CFI INIT cf6b0 53 .cfa: $rsp .ra: .cfa 8 - ^
STACK CFI cf6b0 .cfa: $rsp 8 +
STACK CFI INIT cf710 11a .cfa: $rsp .ra: .cfa 8 - ^
STACK CFI cf710 .cfa: $rsp 1184 +
STACK CFI INIT cf830 49 .cfa: $rsp .ra: .cfa 8 - ^
STACK CFI cf830 .cfa: $rsp 48 +
STACK CFI INIT cf880 185 .cfa: $rsp .ra: .cfa 8 - ^
STACK CFI cf880 .cfa: $rsp 96 +
STACK CFI INIT cfa10 8 .cfa: $rsp .ra: .cfa 8 - ^
STACK CFI cfa10 .cfa: $rsp 8 +
STACK CFI INIT cfa20 b2 .cfa: $rsp .ra: .cfa 8 - ^
STACK CFI cfa20 .cfa: $rsp 80 +
STACK CFI INIT cfae0 400 .cfa: $rsp .ra: .cfa 8 - ^
STACK CFI cfae0 .cfa: $rsp 176 +
STACK CFI INIT cfee0 e .cfa: $rsp .ra: .cfa 8 - ^
STACK CFI cfee0 .cfa: $rsp 8 +
STACK CFI INIT cfef0 d .cfa: $rsp .ra: .cfa 8 - ^
STACK CFI cfef0 .cfa: $rsp 8 +
STACK CFI INIT cff00 47 .cfa: $rsp .ra: .cfa 8 - ^
STACK CFI cff00 .cfa: $rsp 48 +
STACK CFI INIT cff50 46 .cfa: $rsp .ra: .cfa 8 - ^
STACK CFI cff50 .cfa: $rsp 48 +
STACK CFI INIT cffa0 61 .cfa: $rsp .ra: .cfa 8 - ^
STACK CFI cffa0 .cfa: $rsp 64 +
STACK CFI INIT d0010 27 .cfa: $rsp .ra: .cfa 8 - ^
STACK CFI d0010 .cfa: $rsp 8 +
STACK CFI INIT d0040 d5 .cfa: $rsp .ra: .cfa 8 - ^
STACK CFI d0040 .cfa: $rsp 64 +
STACK CFI INIT d0120 43 .cfa: $rsp .ra: .cfa 8 - ^
STACK CFI d0120 .cfa: $rsp 80 +
STACK CFI INIT d0170 4e .cfa: $rsp .ra: .cfa 8 - ^
STACK CFI d0170 .cfa: $rsp 64 +
STACK CFI INIT d01c0 7c .cfa: $rsp .ra: .cfa 8 - ^
STACK CFI d01c0 .cfa: $rsp 96 +
STACK CFI INIT d0240 3f .cfa: $rsp .ra: .cfa 8 - ^
STACK CFI d0240 .cfa: $rsp 64 +
STACK CFI INIT d0280 74 .cfa: $rsp .ra: .cfa 8 - ^
STACK CFI d0280 .cfa: $rsp 96 +
STACK CFI INIT d0300 74 .cfa: $rsp .ra: .cfa 8 - ^
STACK CFI d0300 .cfa: $rsp 96 +
STACK CFI INIT d0380 66 .cfa: $rsp .ra: .cfa 8 - ^
STACK CFI d0380 .cfa: $rsp 80 +
STACK CFI INIT d03f0 9e .cfa: $rsp .ra: .cfa 8 - ^
STACK CFI d03f0 .cfa: $rsp 96 +
STACK CFI INIT d0490 2c .cfa: $rsp .ra: .cfa 8 - ^
STACK CFI d0490 .cfa: $rsp 64 +
STACK CFI INIT d04c0 2aa .cfa: $rsp .ra: .cfa 8 - ^
STACK CFI d04c0 .cfa: $rsp 128 +
STACK CFI INIT d0770 60 .cfa: $rsp .ra: .cfa 8 - ^
STACK CFI d0770 .cfa: $rsp 8 +
STACK CFI INIT d07d0 7d .cfa: $rsp .ra: .cfa 8 - ^
STACK CFI d07d0 .cfa: $rsp 64 +
STACK CFI INIT d0850 bc .cfa: $rsp .ra: .cfa 8 - ^
STACK CFI d0850 .cfa: $rsp 8 +
STACK CFI INIT d0910 99 .cfa: $rsp .ra: .cfa 8 - ^
STACK CFI d0910 .cfa: $rsp 8 +
STACK CFI INIT d09b0 d74 .cfa: $rsp .ra: .cfa 8 - ^
STACK CFI d09b0 .cfa: $rsp 224 +
STACK CFI INIT d1730 27e .cfa: $rsp .ra: .cfa 8 - ^
STACK CFI d1730 .cfa: $rsp 80 +
STACK CFI INIT d19b0 1f4 .cfa: $rsp .ra: .cfa 8 - ^
STACK CFI d19b0 .cfa: $rsp 80 +
STACK CFI INIT d1bb0 13 .cfa: $rsp .ra: .cfa 8 - ^
STACK CFI d1bb0 .cfa: $rsp 8 +
STACK CFI INIT d1bd0 14 .cfa: $rsp .ra: .cfa 8 - ^
STACK CFI d1bd0 .cfa: $rsp 8 +
STACK CFI INIT d1bf0 280 .cfa: $rsp .ra: .cfa 8 - ^
STACK CFI d1bf0 .cfa: $rsp 80 +
STACK CFI INIT d1e70 f9 .cfa: $rsp .ra: .cfa 8 - ^
STACK CFI d1e70 .cfa: $rsp 64 +
STACK CFI INIT d1f70 38a .cfa: $rsp .ra: .cfa 8 - ^
STACK CFI d1f70 .cfa: $rsp 224 +
STACK CFI INIT d2300 136 .cfa: $rsp .ra: .cfa 8 - ^
STACK CFI d2300 .cfa: $rsp 96 +
STACK CFI INIT d2440 a .cfa: $rsp .ra: .cfa 8 - ^
STACK CFI d2440 .cfa: $rsp 8 +
STACK CFI INIT d2450 92 .cfa: $rsp .ra: .cfa 8 - ^
STACK CFI d2450 .cfa: $rsp 80 +
STACK CFI INIT d24f0 6a .cfa: $rsp .ra: .cfa 8 - ^
STACK CFI d24f0 .cfa: $rsp 8 +
STACK CFI INIT d2560 b0 .cfa: $rsp .ra: .cfa 8 - ^
STACK CFI d2560 .cfa: $rsp 80 +
STACK CFI INIT d2610 362 .cfa: $rsp .ra: .cfa 8 - ^
STACK CFI d2610 .cfa: $rsp 176 +
STACK CFI INIT d2980 95 .cfa: $rsp .ra: .cfa 8 - ^
STACK CFI d2980 .cfa: $rsp 80 +
STACK CFI INIT d2a20 52 .cfa: $rsp .ra: .cfa 8 - ^
STACK CFI d2a20 .cfa: $rsp 8 +
STACK CFI INIT d2a80 7b .cfa: $rsp .ra: .cfa 8 - ^
STACK CFI d2a80 .cfa: $rsp 8 +
STACK CFI INIT d2b00 10a .cfa: $rsp .ra: .cfa 8 - ^
STACK CFI d2b00 .cfa: $rsp 64 +
STACK CFI INIT d2c10 d0 .cfa: $rsp .ra: .cfa 8 - ^
STACK CFI d2c10 .cfa: $rsp 96 +
STACK CFI INIT d2ce0 52 .cfa: $rsp .ra: .cfa 8 - ^
STACK CFI d2ce0 .cfa: $rsp 64 +
STACK CFI INIT d2d40 44 .cfa: $rsp .ra: .cfa 8 - ^
STACK CFI d2d40 .cfa: $rsp 64 +
STACK CFI INIT d2d90 b8 .cfa: $rsp .ra: .cfa 8 - ^
STACK CFI d2d90 .cfa: $rsp 80 +
STACK CFI INIT d2e50 1e3 .cfa: $rsp .ra: .cfa 8 - ^
STACK CFI d2e50 .cfa: $rsp 224 +
STACK CFI INIT d3040 2590 .cfa: $rsp .ra: .cfa 8 - ^
STACK CFI d3040 .cfa: $rsp 880 +
STACK CFI INIT d55d0 1e56 .cfa: $rsp .ra: .cfa 8 - ^
STACK CFI d55d0 .cfa: $rsp 832 +
STACK CFI INIT d7430 378 .cfa: $rsp .ra: .cfa 8 - ^
STACK CFI d7430 .cfa: $rsp 192 +
STACK CFI INIT d77b0 3f .cfa: $rsp .ra: .cfa 8 - ^
STACK CFI d77b0 .cfa: $rsp 64 +
STACK CFI INIT d77f0 58 .cfa: $rsp .ra: .cfa 8 - ^
STACK CFI d77f0 .cfa: $rsp 64 +
STACK CFI INIT d7850 21 .cfa: $rsp .ra: .cfa 8 - ^
STACK CFI d7850 .cfa: $rsp 48 +
STACK CFI INIT d7880 1c .cfa: $rsp .ra: .cfa 8 - ^
STACK CFI d7880 .cfa: $rsp 48 +
STACK CFI INIT d78a0 2f .cfa: $rsp .ra: .cfa 8 - ^
STACK CFI d78a0 .cfa: $rsp 64 +
STACK CFI INIT d78d0 1f .cfa: $rsp .ra: .cfa 8 - ^
STACK CFI d78d0 .cfa: $rsp 48 +
STACK CFI INIT d78f0 2f .cfa: $rsp .ra: .cfa 8 - ^
STACK CFI d78f0 .cfa: $rsp 64 +
STACK CFI INIT d7920 5 .cfa: $rsp .ra: .cfa 8 - ^
STACK CFI d7920 .cfa: $rsp 8 +
STACK CFI INIT d7930 1f .cfa: $rsp .ra: .cfa 8 - ^
STACK CFI d7930 .cfa: $rsp 48 +
STACK CFI INIT d7950 2f .cfa: $rsp .ra: .cfa 8 - ^
STACK CFI d7950 .cfa: $rsp 64 +
STACK CFI INIT d7980 1 .cfa: $rsp .ra: .cfa 8 - ^
STACK CFI d7980 .cfa: $rsp 8 +
STACK CFI INIT d7990 23 .cfa: $rsp .ra: .cfa 8 - ^
STACK CFI d7990 .cfa: $rsp 8 +
STACK CFI INIT d79c0 7b .cfa: $rsp .ra: .cfa 8 - ^
STACK CFI d79c0 .cfa: $rsp 64 +
STACK CFI INIT d7a40 69 .cfa: $rsp .ra: .cfa 8 - ^
STACK CFI d7a40 .cfa: $rsp 64 +
STACK CFI INIT d7ab0 13 .cfa: $rsp .ra: .cfa 8 - ^
STACK CFI d7ab0 .cfa: $rsp 48 +
STACK CFI INIT d7ad0 11d .cfa: $rsp .ra: .cfa 8 - ^
STACK CFI d7ad0 .cfa: $rsp 112 +
STACK CFI INIT d7bf0 18 .cfa: $rsp .ra: .cfa 8 - ^
STACK CFI d7bf0 .cfa: $rsp 8 +
STACK CFI INIT d7c10 129 .cfa: $rsp .ra: .cfa 8 - ^
STACK CFI d7c10 .cfa: $rsp 96 +
STACK CFI INIT d7d40 f1 .cfa: $rsp .ra: .cfa 8 - ^
STACK CFI d7d40 .cfa: $rsp 80 +
STACK CFI INIT d7e40 15 .cfa: $rsp .ra: .cfa 8 - ^
STACK CFI d7e40 .cfa: $rsp 8 +
STACK CFI INIT d7e60 1a .cfa: $rsp .ra: .cfa 8 - ^
STACK CFI d7e60 .cfa: $rsp 8 +
STACK CFI INIT d7e80 3f .cfa: $rsp .ra: .cfa 8 - ^
STACK CFI d7e80 .cfa: $rsp 48 +
STACK CFI INIT d7ec0 3c .cfa: $rsp .ra: .cfa 8 - ^
STACK CFI d7ec0 .cfa: $rsp 48 +
STACK CFI INIT d7f00 5 .cfa: $rsp .ra: .cfa 8 - ^
STACK CFI d7f00 .cfa: $rsp 8 +
STACK CFI INIT d7f10 1 .cfa: $rsp .ra: .cfa 8 - ^
STACK CFI d7f10 .cfa: $rsp 8 +
STACK CFI INIT d7f20 217 .cfa: $rsp .ra: .cfa 8 - ^
STACK CFI d7f20 .cfa: $rsp 304 +
STACK CFI INIT d8140 47 .cfa: $rsp .ra: .cfa 8 - ^
STACK CFI d8140 .cfa: $rsp 64 +
STACK CFI INIT d8190 53 .cfa: $rsp .ra: .cfa 8 - ^
STACK CFI d8190 .cfa: $rsp 80 +
STACK CFI INIT d81f0 19 .cfa: $rsp .ra: .cfa 8 - ^
STACK CFI d81f0 .cfa: $rsp 48 +
STACK CFI INIT d8210 c .cfa: $rsp .ra: .cfa 8 - ^
STACK CFI d8210 .cfa: $rsp 8 +
STACK CFI INIT d8220 1a .cfa: $rsp .ra: .cfa 8 - ^
STACK CFI d8220 .cfa: $rsp 8 +
STACK CFI INIT d8240 75 .cfa: $rsp .ra: .cfa 8 - ^
STACK CFI d8240 .cfa: $rsp 48 +
STACK CFI INIT d82c0 24 .cfa: $rsp .ra: .cfa 8 - ^
STACK CFI d82c0 .cfa: $rsp 48 +
STACK CFI INIT d82f0 3a .cfa: $rsp .ra: .cfa 8 - ^
STACK CFI d82f0 .cfa: $rsp 64 +
STACK CFI INIT d8330 11 .cfa: $rsp .ra: .cfa 8 - ^
STACK CFI d8330 .cfa: $rsp 8 +
STACK CFI INIT d8350 11 .cfa: $rsp .ra: .cfa 8 - ^
STACK CFI d8350 .cfa: $rsp 8 +
STACK CFI INIT d8370 1 .cfa: $rsp .ra: .cfa 8 - ^
STACK CFI d8370 .cfa: $rsp 8 +
STACK CFI INIT d8380 2a .cfa: $rsp .ra: .cfa 8 - ^
STACK CFI d8380 .cfa: $rsp 48 +
STACK CFI INIT d83b0 2b .cfa: $rsp .ra: .cfa 8 - ^
STACK CFI d83b0 .cfa: $rsp 64 +
STACK CFI INIT d83e0 60 .cfa: $rsp .ra: .cfa 8 - ^
STACK CFI d83e0 .cfa: $rsp 48 +
STACK CFI INIT d8440 d9 .cfa: $rsp .ra: .cfa 8 - ^
STACK CFI d8440 .cfa: $rsp 80 +
STACK CFI INIT d8520 36 .cfa: $rsp .ra: .cfa 8 - ^
STACK CFI d8520 .cfa: $rsp 48 +
STACK CFI INIT d8560 9 .cfa: $rsp .ra: .cfa 8 - ^
STACK CFI d8560 .cfa: $rsp 8 +
STACK CFI INIT d8570 a .cfa: $rsp .ra: .cfa 8 - ^
STACK CFI d8570 .cfa: $rsp 8 +
STACK CFI INIT d8580 c .cfa: $rsp .ra: .cfa 8 - ^
STACK CFI d8580 .cfa: $rsp 8 +
STACK CFI INIT d8590 a .cfa: $rsp .ra: .cfa 8 - ^
STACK CFI d8590 .cfa: $rsp 8 +
STACK CFI INIT d85a0 29 .cfa: $rsp .ra: .cfa 8 - ^
STACK CFI d85a0 .cfa: $rsp 64 +
STACK CFI INIT d85d0 36 .cfa: $rsp .ra: .cfa 8 - ^
STACK CFI d85d0 .cfa: $rsp 48 +
STACK CFI INIT d8610 13 .cfa: $rsp .ra: .cfa 8 - ^
STACK CFI d8610 .cfa: $rsp 8 +
STACK CFI INIT d8630 7f .cfa: $rsp .ra: .cfa 8 - ^
STACK CFI d8630 .cfa: $rsp 80 +
STACK CFI INIT d86b0 a .cfa: $rsp .ra: .cfa 8 - ^
STACK CFI d86b0 .cfa: $rsp 8 +
STACK CFI INIT d86c0 a .cfa: $rsp .ra: .cfa 8 - ^
STACK CFI d86c0 .cfa: $rsp 8 +
STACK CFI INIT d86d0 1a9 .cfa: $rsp .ra: .cfa 8 - ^
STACK CFI d86d0 .cfa: $rsp 112 +
STACK CFI INIT d8880 8a .cfa: $rsp .ra: .cfa 8 - ^
STACK CFI d8880 .cfa: $rsp 64 +
STACK CFI INIT d8910 109 .cfa: $rsp .ra: .cfa 8 - ^
STACK CFI d8910 .cfa: $rsp 96 +
STACK CFI INIT d8a20 2f .cfa: $rsp .ra: .cfa 8 - ^
STACK CFI d8a20 .cfa: $rsp 64 +
STACK CFI INIT d8a50 a0 .cfa: $rsp .ra: .cfa 8 - ^
STACK CFI d8a50 .cfa: $rsp 80 +
STACK CFI INIT d8af0 114 .cfa: $rsp .ra: .cfa 8 - ^
STACK CFI d8af0 .cfa: $rsp 80 +
STACK CFI INIT d8c10 5 .cfa: $rsp .ra: .cfa 8 - ^
STACK CFI d8c10 .cfa: $rsp 8 +
STACK CFI INIT d8c20 47 .cfa: $rsp .ra: .cfa 8 - ^
STACK CFI d8c20 .cfa: $rsp 64 +
STACK CFI INIT d8c70 64 .cfa: $rsp .ra: .cfa 8 - ^
STACK CFI d8c70 .cfa: $rsp 80 +
STACK CFI INIT d8ce0 9b .cfa: $rsp .ra: .cfa 8 - ^
STACK CFI d8ce0 .cfa: $rsp 64 +
STACK CFI INIT d8d80 5 .cfa: $rsp .ra: .cfa 8 - ^
STACK CFI d8d80 .cfa: $rsp 8 +
STACK CFI INIT d8d90 1 .cfa: $rsp .ra: .cfa 8 - ^
STACK CFI d8d90 .cfa: $rsp 8 +
STACK CFI INIT d8da0 1 .cfa: $rsp .ra: .cfa 8 - ^
STACK CFI d8da0 .cfa: $rsp 8 +
STACK CFI INIT d8db0 1 .cfa: $rsp .ra: .cfa 8 - ^
STACK CFI d8db0 .cfa: $rsp 8 +
STACK CFI INIT d8dc0 1 .cfa: $rsp .ra: .cfa 8 - ^
STACK CFI d8dc0 .cfa: $rsp 8 +
STACK CFI INIT d8dd0 1 .cfa: $rsp .ra: .cfa 8 - ^
STACK CFI d8dd0 .cfa: $rsp 8 +
STACK CFI INIT d8de0 1 .cfa: $rsp .ra: .cfa 8 - ^
STACK CFI d8de0 .cfa: $rsp 8 +
STACK CFI INIT d8df0 50 .cfa: $rsp .ra: .cfa 8 - ^
STACK CFI d8df0 .cfa: $rsp 80 +
STACK CFI INIT d8e40 64 .cfa: $rsp .ra: .cfa 8 - ^
STACK CFI d8e40 .cfa: $rsp 80 +
STACK CFI INIT d8eb0 1 .cfa: $rsp .ra: .cfa 8 - ^
STACK CFI d8eb0 .cfa: $rsp 8 +
STACK CFI INIT d8ec0 1 .cfa: $rsp .ra: .cfa 8 - ^
STACK CFI d8ec0 .cfa: $rsp 8 +
STACK CFI INIT d8ed0 1 .cfa: $rsp .ra: .cfa 8 - ^
STACK CFI d8ed0 .cfa: $rsp 8 +
STACK CFI INIT d8ee0 1e .cfa: $rsp .ra: .cfa 8 - ^
STACK CFI d8ee0 .cfa: $rsp 48 +
STACK CFI INIT d8f00 6e .cfa: $rsp .ra: .cfa 8 - ^
STACK CFI d8f00 .cfa: $rsp 16 +
STACK CFI INIT d8f70 66 .cfa: $rsp .ra: .cfa 8 - ^
STACK CFI d8f70 .cfa: $rsp 8 +
STACK CFI INIT d8fe0 18 .cfa: $rsp .ra: .cfa 8 - ^
STACK CFI d8fe0 .cfa: $rsp 8 +
STACK CFI INIT d9000 1a3 .cfa: $rsp .ra: .cfa 8 - ^
STACK CFI d9000 .cfa: $rsp 16 +
STACK CFI INIT d91b0 20a .cfa: $rsp .ra: .cfa 8 - ^
STACK CFI d91b0 .cfa: $rsp 72 +
STACK CFI INIT d93c0 36c .cfa: $rsp .ra: .cfa 8 - ^
STACK CFI d93c0 .cfa: $rsp 112 +
STACK CFI INIT d9730 1e0 .cfa: $rsp .ra: .cfa 8 - ^
STACK CFI d9730 .cfa: $rsp 96 +
STACK CFI INIT d9910 f2 .cfa: $rsp .ra: .cfa 8 - ^
STACK CFI d9910 .cfa: $rsp 96 +
STACK CFI INIT d9a10 11c .cfa: $rsp .ra: .cfa 8 - ^
STACK CFI d9a10 .cfa: $rsp 96 +
STACK CFI INIT d9b30 f2 .cfa: $rsp .ra: .cfa 8 - ^
STACK CFI d9b30 .cfa: $rsp 96 +
STACK CFI INIT d9c30 3b4 .cfa: $rsp .ra: .cfa 8 - ^
STACK CFI d9c30 .cfa: $rsp 144 +
STACK CFI INIT d9ff0 e4 .cfa: $rsp .ra: .cfa 8 - ^
STACK CFI d9ff0 .cfa: $rsp 96 +
STACK CFI INIT da0e0 1d3 .cfa: $rsp .ra: .cfa 8 - ^
STACK CFI da0e0 .cfa: $rsp 112 +
STACK CFI INIT da2c0 1ce .cfa: $rsp .ra: .cfa 8 - ^
STACK CFI da2c0 .cfa: $rsp 112 +
STACK CFI INIT da490 149 .cfa: $rsp .ra: .cfa 8 - ^
STACK CFI da490 .cfa: $rsp 96 +
STACK CFI INIT da5e0 149 .cfa: $rsp .ra: .cfa 8 - ^
STACK CFI da5e0 .cfa: $rsp 96 +
STACK CFI INIT da730 410 .cfa: $rsp .ra: .cfa 8 - ^
STACK CFI da730 .cfa: $rsp 128 +
STACK CFI INIT dab40 90 .cfa: $rsp .ra: .cfa 8 - ^
STACK CFI dab40 .cfa: $rsp 64 +
STACK CFI INIT dabd0 b6 .cfa: $rsp .ra: .cfa 8 - ^
STACK CFI dabd0 .cfa: $rsp 8 +
STACK CFI INIT dac90 290 .cfa: $rsp .ra: .cfa 8 - ^
STACK CFI dac90 .cfa: $rsp 256 +
STACK CFI INIT daf20 6 .cfa: $rsp .ra: .cfa 8 - ^
STACK CFI daf20 .cfa: $rsp 8 +
STACK CFI INIT daf30 f4 .cfa: $rsp .ra: .cfa 8 - ^
STACK CFI daf30 .cfa: $rsp 80 +
STACK CFI INIT db030 b720 .cfa: $rsp .ra: .cfa 8 - ^
STACK CFI db030 .cfa: $rsp 12288 +
STACK CFI INIT e6750 e .cfa: $rsp .ra: .cfa 8 - ^
STACK CFI e6750 .cfa: $rsp 8 +
STACK CFI INIT e6760 3 .cfa: $rsp .ra: .cfa 8 - ^
STACK CFI e6760 .cfa: $rsp 8 +
STACK CFI INIT e6770 3 .cfa: $rsp .ra: .cfa 8 - ^
STACK CFI e6770 .cfa: $rsp 8 +
STACK CFI INIT e6780 1 .cfa: $rsp .ra: .cfa 8 - ^
STACK CFI e6780 .cfa: $rsp 8 +
STACK CFI INIT e6790 3 .cfa: $rsp .ra: .cfa 8 - ^
STACK CFI e6790 .cfa: $rsp 8 +
STACK CFI INIT e67a0 3 .cfa: $rsp .ra: .cfa 8 - ^
STACK CFI e67a0 .cfa: $rsp 8 +
STACK CFI INIT e67b0 12 .cfa: $rsp .ra: .cfa 8 - ^
STACK CFI e67b0 .cfa: $rsp 8 +
STACK CFI INIT e67d0 16 .cfa: $rsp .ra: .cfa 8 - ^
STACK CFI e67d0 .cfa: $rsp 48 +
STACK CFI INIT e67f0 16 .cfa: $rsp .ra: .cfa 8 - ^
STACK CFI e67f0 .cfa: $rsp 48 +
STACK CFI INIT e6810 34 .cfa: $rsp .ra: .cfa 8 - ^
STACK CFI e6810 .cfa: $rsp 8 +
STACK CFI INIT e6850 54 .cfa: $rsp .ra: .cfa 8 - ^
STACK CFI e6850 .cfa: $rsp 48 +
STACK CFI INIT e68b0 3d .cfa: $rsp .ra: .cfa 8 - ^
STACK CFI e68b0 .cfa: $rsp 64 +
STACK CFI INIT e68f0 1b .cfa: $rsp .ra: .cfa 8 - ^
STACK CFI e68f0 .cfa: $rsp 8 +
STACK CFI INIT e6910 9 .cfa: $rsp .ra: .cfa 8 - ^
STACK CFI e6910 .cfa: $rsp 8 +
STACK CFI INIT e6920 3 .cfa: $rsp .ra: .cfa 8 - ^
STACK CFI e6920 .cfa: $rsp 8 +
STACK CFI INIT e6930 64 .cfa: $rsp .ra: .cfa 8 - ^
STACK CFI e6930 .cfa: $rsp 96 +
STACK CFI INIT e69a0 56 .cfa: $rsp .ra: .cfa 8 - ^
STACK CFI e69a0 .cfa: $rsp 80 +
STACK CFI INIT e6a00 1f .cfa: $rsp .ra: .cfa 8 - ^
STACK CFI e6a00 .cfa: $rsp 8 +
STACK CFI INIT e6a20 6b .cfa: $rsp .ra: .cfa 8 - ^
STACK CFI e6a20 .cfa: $rsp 48 +
STACK CFI INIT e6a90 69 .cfa: $rsp .ra: .cfa 8 - ^
STACK CFI e6a90 .cfa: $rsp 64 +
STACK CFI INIT e6b00 1e .cfa: $rsp .ra: .cfa 8 - ^
STACK CFI e6b00 .cfa: $rsp 48 +
STACK CFI INIT e6b20 83 .cfa: $rsp .ra: .cfa 8 - ^
STACK CFI e6b20 .cfa: $rsp 80 +
STACK CFI INIT e6bb0 1 .cfa: $rsp .ra: .cfa 8 - ^
STACK CFI e6bb0 .cfa: $rsp 8 +
STACK CFI INIT e6bc0 1 .cfa: $rsp .ra: .cfa 8 - ^
STACK CFI e6bc0 .cfa: $rsp 8 +
STACK CFI INIT e6bd0 23 .cfa: $rsp .ra: .cfa 8 - ^
STACK CFI e6bd0 .cfa: $rsp 8 +
STACK CFI INIT e6c00 282 .cfa: $rsp .ra: .cfa 8 - ^
STACK CFI e6c00 .cfa: $rsp 112 +
STACK CFI INIT e6e90 4de .cfa: $rsp .ra: .cfa 8 - ^
STACK CFI e6e90 .cfa: $rsp 128 +
STACK CFI INIT e7370 b0 .cfa: $rsp .ra: .cfa 8 - ^
STACK CFI e7370 .cfa: $rsp 96 +
STACK CFI INIT e7420 1e0 .cfa: $rsp .ra: .cfa 8 - ^
STACK CFI e7420 .cfa: $rsp 96 +
STACK CFI INIT e7600 20d .cfa: $rsp .ra: .cfa 8 - ^
STACK CFI e7600 .cfa: $rsp 96 +
STACK CFI INIT e7810 a .cfa: $rsp .ra: .cfa 8 - ^
STACK CFI e7810 .cfa: $rsp 8 +
STACK CFI INIT e7820 52 .cfa: $rsp .ra: .cfa 8 - ^
STACK CFI e7820 .cfa: $rsp 80 +
STACK CFI INIT e7880 352 .cfa: $rsp .ra: .cfa 8 - ^
STACK CFI e7880 .cfa: $rsp 128 +
STACK CFI INIT e7be0 42a .cfa: $rsp .ra: .cfa 8 - ^
STACK CFI e7be0 .cfa: $rsp 144 +
STACK CFI INIT e8010 6c7 .cfa: $rsp .ra: .cfa 8 - ^
STACK CFI e8010 .cfa: $rsp 160 +
STACK CFI INIT e86e0 2a0 .cfa: $rsp .ra: .cfa 8 - ^
STACK CFI e86e0 .cfa: $rsp 112 +
STACK CFI INIT e8980 5e0 .cfa: $rsp .ra: .cfa 8 - ^
STACK CFI e8980 .cfa: $rsp 160 +
STACK CFI INIT e8f60 17 .cfa: $rsp .ra: .cfa 8 - ^
STACK CFI e8f60 .cfa: $rsp 8 +
STACK CFI INIT e8f80 4b9 .cfa: $rsp .ra: .cfa 8 - ^
STACK CFI e8f80 .cfa: $rsp 224 +
STACK CFI INIT e9440 65f .cfa: $rsp .ra: .cfa 8 - ^
STACK CFI e9440 .cfa: $rsp 160 +
STACK CFI INIT e9aa0 324 .cfa: $rsp .ra: .cfa 8 - ^
STACK CFI e9aa0 .cfa: $rsp 144 +
STACK CFI INIT e9dd0 64f .cfa: $rsp .ra: .cfa 8 - ^
STACK CFI e9dd0 .cfa: $rsp 160 +
STACK CFI INIT ea420 530 .cfa: $rsp .ra: .cfa 8 - ^
STACK CFI ea420 .cfa: $rsp 144 +
STACK CFI INIT ea950 500 .cfa: $rsp .ra: .cfa 8 - ^
STACK CFI ea950 .cfa: $rsp 128 +
STACK CFI INIT eae50 108 .cfa: $rsp .ra: .cfa 8 - ^
STACK CFI eae50 .cfa: $rsp 112 +
STACK CFI INIT eaf60 384 .cfa: $rsp .ra: .cfa 8 - ^
STACK CFI eaf60 .cfa: $rsp 144 +
STACK CFI INIT eb2f0 83 .cfa: $rsp .ra: .cfa 8 - ^
STACK CFI eb2f0 .cfa: $rsp 80 +
STACK CFI INIT eb380 42 .cfa: $rsp .ra: .cfa 8 - ^
STACK CFI eb380 .cfa: $rsp 8 +
STACK CFI INIT eb3d0 10 .cfa: $rsp .ra: .cfa 8 - ^
STACK CFI eb3d0 .cfa: $rsp 8 +
STACK CFI INIT eb3e0 8 .cfa: $rsp .ra: .cfa 8 - ^
STACK CFI eb3e0 .cfa: $rsp 8 +
STACK CFI INIT eb3f0 15 .cfa: $rsp .ra: .cfa 8 - ^
STACK CFI eb3f0 .cfa: $rsp 8 +
STACK CFI INIT eb410 35 .cfa: $rsp .ra: .cfa 8 - ^
STACK CFI eb410 .cfa: $rsp 8 +
STACK CFI INIT eb450 12 .cfa: $rsp .ra: .cfa 8 - ^
STACK CFI eb450 .cfa: $rsp 8 +
STACK CFI INIT eb470 12 .cfa: $rsp .ra: .cfa 8 - ^
STACK CFI eb470 .cfa: $rsp 8 +
STACK CFI INIT eb490 35 .cfa: $rsp .ra: .cfa 8 - ^
STACK CFI eb490 .cfa: $rsp 8 +
STACK CFI INIT eb4d0 16 .cfa: $rsp .ra: .cfa 8 - ^
STACK CFI eb4d0 .cfa: $rsp 8 +
STACK CFI INIT eb4f0 12 .cfa: $rsp .ra: .cfa 8 - ^
STACK CFI eb4f0 .cfa: $rsp 8 +
STACK CFI INIT eb510 12 .cfa: $rsp .ra: .cfa 8 - ^
STACK CFI eb510 .cfa: $rsp 8 +
STACK CFI INIT eb530 12 .cfa: $rsp .ra: .cfa 8 - ^
STACK CFI eb530 .cfa: $rsp 8 +
STACK CFI INIT eb550 8 .cfa: $rsp .ra: .cfa 8 - ^
STACK CFI eb550 .cfa: $rsp 8 +
STACK CFI INIT eb560 fe .cfa: $rsp .ra: .cfa 8 - ^
STACK CFI eb560 .cfa: $rsp 80 +
STACK CFI INIT eb660 11 .cfa: $rsp .ra: .cfa 8 - ^
STACK CFI eb660 .cfa: $rsp 48 +
STACK CFI INIT eb680 86 .cfa: $rsp .ra: .cfa 8 - ^
STACK CFI eb680 .cfa: $rsp 48 +
STACK CFI INIT eb710 3b .cfa: $rsp .ra: .cfa 8 - ^
STACK CFI eb710 .cfa: $rsp 48 +
STACK CFI INIT eb750 65 .cfa: $rsp .ra: .cfa 8 - ^
STACK CFI eb750 .cfa: $rsp 48 +
STACK CFI INIT eb7c0 35 .cfa: $rsp .ra: .cfa 8 - ^
STACK CFI eb7c0 .cfa: $rsp 48 +
STACK CFI INIT eb800 2a8 .cfa: $rsp .ra: .cfa 8 - ^
STACK CFI eb800 .cfa: $rsp 96 +
STACK CFI INIT ebab0 6fb .cfa: $rsp .ra: .cfa 8 - ^
STACK CFI ebab0 .cfa: $rsp 144 +
STACK CFI INIT ec1b0 77 .cfa: $rsp .ra: .cfa 8 - ^
STACK CFI ec1b0 .cfa: $rsp 64 +
STACK CFI INIT ec230 16c .cfa: $rsp .ra: .cfa 8 - ^
STACK CFI ec230 .cfa: $rsp 96 +
STACK CFI INIT ec3a0 b .cfa: $rsp .ra: .cfa 8 - ^
STACK CFI ec3a0 .cfa: $rsp 8 +
STACK CFI INIT ec3b0 14 .cfa: $rsp .ra: .cfa 8 - ^
STACK CFI ec3b0 .cfa: $rsp 8 +
STACK CFI INIT ec3d0 13 .cfa: $rsp .ra: .cfa 8 - ^
STACK CFI ec3d0 .cfa: $rsp 8 +
STACK CFI INIT ec3f0 11 .cfa: $rsp .ra: .cfa 8 - ^
STACK CFI ec3f0 .cfa: $rsp 8 +
STACK CFI INIT ec410 2a .cfa: $rsp .ra: .cfa 8 - ^
STACK CFI ec410 .cfa: $rsp 48 +
STACK CFI INIT ec440 1a .cfa: $rsp .ra: .cfa 8 - ^
STACK CFI ec440 .cfa: $rsp 8 +
STACK CFI INIT ec460 2d .cfa: $rsp .ra: .cfa 8 - ^
STACK CFI ec460 .cfa: $rsp 64 +
STACK CFI INIT ec490 244 .cfa: $rsp .ra: .cfa 8 - ^
STACK CFI ec490 .cfa: $rsp 80 +
STACK CFI INIT ec6e0 68 .cfa: $rsp .ra: .cfa 8 - ^
STACK CFI ec6e0 .cfa: $rsp 80 +
STACK CFI INIT ec750 50 .cfa: $rsp .ra: .cfa 8 - ^
STACK CFI ec750 .cfa: $rsp 80 +
STACK CFI INIT ec7a0 29 .cfa: $rsp .ra: .cfa 8 - ^
STACK CFI ec7a0 .cfa: $rsp 64 +
STACK CFI INIT ec7d0 13 .cfa: $rsp .ra: .cfa 8 - ^
STACK CFI ec7d0 .cfa: $rsp 8 +
STACK CFI INIT ec7f0 af .cfa: $rsp .ra: .cfa 8 - ^
STACK CFI ec7f0 .cfa: $rsp 80 +
STACK CFI INIT ec8a0 83 .cfa: $rsp .ra: .cfa 8 - ^
STACK CFI ec8a0 .cfa: $rsp 80 +
STACK CFI INIT ec930 67 .cfa: $rsp .ra: .cfa 8 - ^
STACK CFI ec930 .cfa: $rsp 80 +
STACK CFI INIT ec9a0 67 .cfa: $rsp .ra: .cfa 8 - ^
STACK CFI ec9a0 .cfa: $rsp 80 +
STACK CFI INIT eca10 67 .cfa: $rsp .ra: .cfa 8 - ^
STACK CFI eca10 .cfa: $rsp 80 +
STACK CFI INIT eca80 67 .cfa: $rsp .ra: .cfa 8 - ^
STACK CFI eca80 .cfa: $rsp 80 +
STACK CFI INIT ecaf0 1bd .cfa: $rsp .ra: .cfa 8 - ^
STACK CFI ecaf0 .cfa: $rsp 128 +
STACK CFI INIT eccb0 1bd .cfa: $rsp .ra: .cfa 8 - ^
STACK CFI eccb0 .cfa: $rsp 128 +
STACK CFI INIT ece70 74 .cfa: $rsp .ra: .cfa 8 - ^
STACK CFI ece70 .cfa: $rsp 96 +
STACK CFI INIT ecef0 118 .cfa: $rsp .ra: .cfa 8 - ^
STACK CFI ecef0 .cfa: $rsp 64 +
STACK CFI INIT ed010 101 .cfa: $rsp .ra: .cfa 8 - ^
STACK CFI ed010 .cfa: $rsp 80 +
STACK CFI INIT ed120 100 .cfa: $rsp .ra: .cfa 8 - ^
STACK CFI ed120 .cfa: $rsp 80 +
STACK CFI INIT ed220 da .cfa: $rsp .ra: .cfa 8 - ^
STACK CFI ed220 .cfa: $rsp 80 +
STACK CFI INIT ed300 14c .cfa: $rsp .ra: .cfa 8 - ^
STACK CFI ed300 .cfa: $rsp 192 +
STACK CFI INIT ed450 167 .cfa: $rsp .ra: .cfa 8 - ^
STACK CFI ed450 .cfa: $rsp 160 +
STACK CFI INIT ed5c0 17 .cfa: $rsp .ra: .cfa 8 - ^
STACK CFI ed5c0 .cfa: $rsp 8 +
STACK CFI INIT ed5e0 7c .cfa: $rsp .ra: .cfa 8 - ^
STACK CFI ed5e0 .cfa: $rsp 96 +
STACK CFI INIT ed660 45 .cfa: $rsp .ra: .cfa 8 - ^
STACK CFI ed660 .cfa: $rsp 64 +
STACK CFI INIT ed6b0 c .cfa: $rsp .ra: .cfa 8 - ^
STACK CFI ed6b0 .cfa: $rsp 8 +
STACK CFI INIT ed6c0 10 .cfa: $rsp .ra: .cfa 8 - ^
STACK CFI ed6c0 .cfa: $rsp 8 +
STACK CFI INIT ed6d0 80 .cfa: $rsp .ra: .cfa 8 - ^
STACK CFI ed6d0 .cfa: $rsp 64 +
STACK CFI INIT ed750 17 .cfa: $rsp .ra: .cfa 8 - ^
STACK CFI ed750 .cfa: $rsp 8 +
STACK CFI INIT ed770 ce .cfa: $rsp .ra: .cfa 8 - ^
STACK CFI ed770 .cfa: $rsp 64 +
STACK CFI INIT ed840 5e .cfa: $rsp .ra: .cfa 8 - ^
STACK CFI ed840 .cfa: $rsp 48 +
STACK CFI INIT ed8a0 10 .cfa: $rsp .ra: .cfa 8 - ^
STACK CFI ed8a0 .cfa: $rsp 8 +
STACK CFI INIT ed8b0 14 .cfa: $rsp .ra: .cfa 8 - ^
STACK CFI ed8b0 .cfa: $rsp 8 +
STACK CFI INIT ed8d0 4 .cfa: $rsp .ra: .cfa 8 - ^
STACK CFI ed8d0 .cfa: $rsp 8 +
STACK CFI INIT ed8e0 10 .cfa: $rsp .ra: .cfa 8 - ^
STACK CFI ed8e0 .cfa: $rsp 8 +
STACK CFI INIT ed8f0 3a .cfa: $rsp .ra: .cfa 8 - ^
STACK CFI ed8f0 .cfa: $rsp 64 +
STACK CFI INIT ed930 23 .cfa: $rsp .ra: .cfa 8 - ^
STACK CFI ed930 .cfa: $rsp 48 +
STACK CFI INIT ed960 21 .cfa: $rsp .ra: .cfa 8 - ^
STACK CFI ed960 .cfa: $rsp 8 +
STACK CFI INIT ed990 c .cfa: $rsp .ra: .cfa 8 - ^
STACK CFI ed990 .cfa: $rsp 8 +
STACK CFI INIT ed9a0 188 .cfa: $rsp .ra: .cfa 8 - ^
STACK CFI ed9a0 .cfa: $rsp 80 +
STACK CFI INIT edb30 1db .cfa: $rsp .ra: .cfa 8 - ^
STACK CFI edb30 .cfa: $rsp 96 +
STACK CFI INIT edd10 9 .cfa: $rsp .ra: .cfa 8 - ^
STACK CFI edd10 .cfa: $rsp 8 +
STACK CFI INIT edd20 cd .cfa: $rsp .ra: .cfa 8 - ^
STACK CFI edd20 .cfa: $rsp 96 +
STACK CFI INIT eddf0 13 .cfa: $rsp .ra: .cfa 8 - ^
STACK CFI eddf0 .cfa: $rsp 8 +
STACK CFI INIT ede10 d2 .cfa: $rsp .ra: .cfa 8 - ^
STACK CFI ede10 .cfa: $rsp 64 +
STACK CFI INIT edef0 4b .cfa: $rsp .ra: .cfa 8 - ^
STACK CFI edef0 .cfa: $rsp 64 +
STACK CFI INIT edf40 ec .cfa: $rsp .ra: .cfa 8 - ^
STACK CFI edf40 .cfa: $rsp 80 +
STACK CFI INIT ee030 2d4 .cfa: $rsp .ra: .cfa 8 - ^
STACK CFI ee030 .cfa: $rsp 208 +
STACK CFI INIT ee310 147 .cfa: $rsp .ra: .cfa 8 - ^
STACK CFI ee310 .cfa: $rsp 144 +
STACK CFI INIT ee460 121 .cfa: $rsp .ra: .cfa 8 - ^
STACK CFI ee460 .cfa: $rsp 128 +
STACK CFI INIT ee590 f3 .cfa: $rsp .ra: .cfa 8 - ^
STACK CFI ee590 .cfa: $rsp 160 +
STACK CFI INIT ee690 413 .cfa: $rsp .ra: .cfa 8 - ^
STACK CFI ee690 .cfa: $rsp 160 +
STACK CFI INIT eeab0 142 .cfa: $rsp .ra: .cfa 8 - ^
STACK CFI eeab0 .cfa: $rsp 128 +
STACK CFI INIT eec00 143 .cfa: $rsp .ra: .cfa 8 - ^
STACK CFI eec00 .cfa: $rsp 112 +
STACK CFI INIT eed50 c3 .cfa: $rsp .ra: .cfa 8 - ^
STACK CFI eed50 .cfa: $rsp 80 +
STACK CFI INIT eee20 1e .cfa: $rsp .ra: .cfa 8 - ^
STACK CFI eee20 .cfa: $rsp 48 +
STACK CFI INIT eee40 55 .cfa: $rsp .ra: .cfa 8 - ^
STACK CFI eee40 .cfa: $rsp 64 +
STACK CFI INIT eeea0 20 .cfa: $rsp .ra: .cfa 8 - ^
STACK CFI eeea0 .cfa: $rsp 48 +
STACK CFI INIT eeec0 20 .cfa: $rsp .ra: .cfa 8 - ^
STACK CFI eeec0 .cfa: $rsp 48 +
STACK CFI INIT eeee0 141 .cfa: $rsp .ra: .cfa 8 - ^
STACK CFI eeee0 .cfa: $rsp 160 +
STACK CFI INIT ef030 56 .cfa: $rsp .ra: .cfa 8 - ^
STACK CFI ef030 .cfa: $rsp 80 +
STACK CFI INIT ef090 52 .cfa: $rsp .ra: .cfa 8 - ^
STACK CFI ef090 .cfa: $rsp 80 +
STACK CFI INIT ef0f0 60 .cfa: $rsp .ra: .cfa 8 - ^
STACK CFI ef0f0 .cfa: $rsp 80 +
STACK CFI INIT ef150 c1 .cfa: $rsp .ra: .cfa 8 - ^
STACK CFI ef150 .cfa: $rsp 112 +
STACK CFI INIT ef220 d1 .cfa: $rsp .ra: .cfa 8 - ^
STACK CFI ef220 .cfa: $rsp 112 +
STACK CFI INIT ef300 4e .cfa: $rsp .ra: .cfa 8 - ^
STACK CFI ef300 .cfa: $rsp 112 +
STACK CFI INIT ef350 5 .cfa: $rsp .ra: .cfa 8 - ^
STACK CFI ef350 .cfa: $rsp 8 +
STACK CFI INIT ef360 c9 .cfa: $rsp .ra: .cfa 8 - ^
STACK CFI ef360 .cfa: $rsp 128 +
STACK CFI INIT ef430 16 .cfa: $rsp .ra: .cfa 8 - ^
STACK CFI ef430 .cfa: $rsp 48 +
STACK CFI INIT ef450 68 .cfa: $rsp .ra: .cfa 8 - ^
STACK CFI ef450 .cfa: $rsp 64 +
STACK CFI INIT ef4c0 158 .cfa: $rsp .ra: .cfa 8 - ^
STACK CFI ef4c0 .cfa: $rsp 80 +
STACK CFI INIT ef620 d6 .cfa: $rsp .ra: .cfa 8 - ^
STACK CFI ef620 .cfa: $rsp 96 +
STACK CFI INIT ef700 64 .cfa: $rsp .ra: .cfa 8 - ^
STACK CFI ef700 .cfa: $rsp 80 +
STACK CFI INIT ef770 a2 .cfa: $rsp .ra: .cfa 8 - ^
STACK CFI ef770 .cfa: $rsp 80 +
STACK CFI INIT ef820 50 .cfa: $rsp .ra: .cfa 8 - ^
STACK CFI ef820 .cfa: $rsp 96 +
STACK CFI INIT ef870 ba .cfa: $rsp .ra: .cfa 8 - ^
STACK CFI ef870 .cfa: $rsp 112 +
STACK CFI INIT ef930 a3 .cfa: $rsp .ra: .cfa 8 - ^
STACK CFI ef930 .cfa: $rsp 64 +
STACK CFI INIT ef9e0 1de .cfa: $rsp .ra: .cfa 8 - ^
STACK CFI ef9e0 .cfa: $rsp 80 +
STACK CFI INIT efbc0 1bd .cfa: $rsp .ra: .cfa 8 - ^
STACK CFI efbc0 .cfa: $rsp 48 +
STACK CFI INIT efd80 9 .cfa: $rsp .ra: .cfa 8 - ^
STACK CFI efd80 .cfa: $rsp 8 +
STACK CFI INIT efd90 21 .cfa: $rsp .ra: .cfa 8 - ^
STACK CFI efd90 .cfa: $rsp 8 +
STACK CFI INIT efdc0 2e .cfa: $rsp .ra: .cfa 8 - ^
STACK CFI efdc0 .cfa: $rsp 8 +
STACK CFI INIT efdf0 b .cfa: $rsp .ra: .cfa 8 - ^
STACK CFI efdf0 .cfa: $rsp 8 +
STACK CFI INIT efe00 50 .cfa: $rsp .ra: .cfa 8 - ^
STACK CFI efe00 .cfa: $rsp 64 +
STACK CFI INIT efe50 bf .cfa: $rsp .ra: .cfa 8 - ^
STACK CFI efe50 .cfa: $rsp 80 +
STACK CFI INIT eff10 ea .cfa: $rsp .ra: .cfa 8 - ^
STACK CFI eff10 .cfa: $rsp 96 +
STACK CFI INIT f0000 c .cfa: $rsp .ra: .cfa 8 - ^
STACK CFI f0000 .cfa: $rsp 8 +
STACK CFI INIT f0010 a5 .cfa: $rsp .ra: .cfa 8 - ^
STACK CFI f0010 .cfa: $rsp 112 +
STACK CFI INIT f00c0 af .cfa: $rsp .ra: .cfa 8 - ^
STACK CFI f00c0 .cfa: $rsp 96 +
STACK CFI INIT f0170 1a .cfa: $rsp .ra: .cfa 8 - ^
STACK CFI f0170 .cfa: $rsp 48 +
STACK CFI INIT f0190 10 .cfa: $rsp .ra: .cfa 8 - ^
STACK CFI f0190 .cfa: $rsp 8 +
STACK CFI INIT f01a0 d .cfa: $rsp .ra: .cfa 8 - ^
STACK CFI f01a0 .cfa: $rsp 8 +
STACK CFI INIT f01b0 8 .cfa: $rsp .ra: .cfa 8 - ^
STACK CFI f01b0 .cfa: $rsp 8 +
STACK CFI INIT f01c0 46 .cfa: $rsp .ra: .cfa 8 - ^
STACK CFI f01c0 .cfa: $rsp 48 +
STACK CFI INIT f0210 16 .cfa: $rsp .ra: .cfa 8 - ^
STACK CFI f0210 .cfa: $rsp 8 +
STACK CFI INIT f0230 12 .cfa: $rsp .ra: .cfa 8 - ^
STACK CFI f0230 .cfa: $rsp 8 +
STACK CFI INIT f0250 12 .cfa: $rsp .ra: .cfa 8 - ^
STACK CFI f0250 .cfa: $rsp 8 +
STACK CFI INIT f0270 35 .cfa: $rsp .ra: .cfa 8 - ^
STACK CFI f0270 .cfa: $rsp 8 +
STACK CFI INIT f02b0 66 .cfa: $rsp .ra: .cfa 8 - ^
STACK CFI f02b0 .cfa: $rsp 48 +
STACK CFI INIT f0320 1b4 .cfa: $rsp .ra: .cfa 8 - ^
STACK CFI f0320 .cfa: $rsp 112 +
STACK CFI INIT f04e0 201 .cfa: $rsp .ra: .cfa 8 - ^
STACK CFI f04e0 .cfa: $rsp 176 +
STACK CFI INIT f06f0 1fa .cfa: $rsp .ra: .cfa 8 - ^
STACK CFI f06f0 .cfa: $rsp 144 +
STACK CFI INIT f08f0 1c6 .cfa: $rsp .ra: .cfa 8 - ^
STACK CFI f08f0 .cfa: $rsp 192 +
STACK CFI INIT f0ac0 2bf .cfa: $rsp .ra: .cfa 8 - ^
STACK CFI f0ac0 .cfa: $rsp 144 +
STACK CFI INIT f0d80 1f7 .cfa: $rsp .ra: .cfa 8 - ^
STACK CFI f0d80 .cfa: $rsp 144 +
STACK CFI INIT f0f80 484 .cfa: $rsp .ra: .cfa 8 - ^
STACK CFI f0f80 .cfa: $rsp 240 +
STACK CFI INIT f1410 4ce .cfa: $rsp .ra: .cfa 8 - ^
STACK CFI f1410 .cfa: $rsp 256 +
STACK CFI INIT f18e0 87 .cfa: $rsp .ra: .cfa 8 - ^
STACK CFI f18e0 .cfa: $rsp 112 +
STACK CFI INIT f1970 67 .cfa: $rsp .ra: .cfa 8 - ^
STACK CFI f1970 .cfa: $rsp 80 +
STACK CFI INIT f19e0 99 .cfa: $rsp .ra: .cfa 8 - ^
STACK CFI f19e0 .cfa: $rsp 96 +
STACK CFI INIT f1a80 174 .cfa: $rsp .ra: .cfa 8 - ^
STACK CFI f1a80 .cfa: $rsp 176 +
STACK CFI INIT f1c00 163 .cfa: $rsp .ra: .cfa 8 - ^
STACK CFI f1c00 .cfa: $rsp 176 +
STACK CFI INIT f1d70 16b .cfa: $rsp .ra: .cfa 8 - ^
STACK CFI f1d70 .cfa: $rsp 176 +
STACK CFI INIT f1ee0 42a .cfa: $rsp .ra: .cfa 8 - ^
STACK CFI f1ee0 .cfa: $rsp 192 +
STACK CFI INIT f2310 9e .cfa: $rsp .ra: .cfa 8 - ^
STACK CFI f2310 .cfa: $rsp 96 +
STACK CFI INIT f23b0 15a .cfa: $rsp .ra: .cfa 8 - ^
STACK CFI f23b0 .cfa: $rsp 128 +
STACK CFI INIT f2510 56a .cfa: $rsp .ra: .cfa 8 - ^
STACK CFI f2510 .cfa: $rsp 160 +
STACK CFI INIT f2a80 c2 .cfa: $rsp .ra: .cfa 8 - ^
STACK CFI f2a80 .cfa: $rsp 80 +
STACK CFI INIT f2b50 5a .cfa: $rsp .ra: .cfa 8 - ^
STACK CFI f2b50 .cfa: $rsp 64 +
STACK CFI INIT f2bb0 aa .cfa: $rsp .ra: .cfa 8 - ^
STACK CFI f2bb0 .cfa: $rsp 96 +
STACK CFI INIT f2c60 10c .cfa: $rsp .ra: .cfa 8 - ^
STACK CFI f2c60 .cfa: $rsp 128 +
STACK CFI INIT f2d70 110 .cfa: $rsp .ra: .cfa 8 - ^
STACK CFI f2d70 .cfa: $rsp 64 +
STACK CFI INIT f2e80 384 .cfa: $rsp .ra: .cfa 8 - ^
STACK CFI f2e80 .cfa: $rsp 192 +
STACK CFI INIT f3210 c6 .cfa: $rsp .ra: .cfa 8 - ^
STACK CFI f3210 .cfa: $rsp 112 +
STACK CFI INIT f32e0 c1 .cfa: $rsp .ra: .cfa 8 - ^
STACK CFI f32e0 .cfa: $rsp 80 +
STACK CFI INIT f33b0 9 .cfa: $rsp .ra: .cfa 8 - ^
STACK CFI f33b0 .cfa: $rsp 8 +
STACK CFI INIT f33c0 2f1 .cfa: $rsp .ra: .cfa 8 - ^
STACK CFI f33c0 .cfa: $rsp 208 +
STACK CFI INIT f36c0 350 .cfa: $rsp .ra: .cfa 8 - ^
STACK CFI f36c0 .cfa: $rsp 176 +
STACK CFI INIT f3a10 58 .cfa: $rsp .ra: .cfa 8 - ^
STACK CFI f3a10 .cfa: $rsp 48 +
STACK CFI INIT f3a70 59 .cfa: $rsp .ra: .cfa 8 - ^
STACK CFI f3a70 .cfa: $rsp 48 +
STACK CFI INIT f3ad0 c4 .cfa: $rsp .ra: .cfa 8 - ^
STACK CFI f3ad0 .cfa: $rsp 96 +
STACK CFI INIT f3ba0 2a .cfa: $rsp .ra: .cfa 8 - ^
STACK CFI f3ba0 .cfa: $rsp 64 +
STACK CFI INIT f3bd0 67 .cfa: $rsp .ra: .cfa 8 - ^
STACK CFI f3bd0 .cfa: $rsp 80 +
STACK CFI INIT f3c40 100 .cfa: $rsp .ra: .cfa 8 - ^
STACK CFI f3c40 .cfa: $rsp 112 +
STACK CFI INIT f3d40 15a .cfa: $rsp .ra: .cfa 8 - ^
STACK CFI f3d40 .cfa: $rsp 96 +
STACK CFI INIT f3ea0 116 .cfa: $rsp .ra: .cfa 8 - ^
STACK CFI f3ea0 .cfa: $rsp 96 +
STACK CFI INIT f3fc0 67 .cfa: $rsp .ra: .cfa 8 - ^
STACK CFI f3fc0 .cfa: $rsp 80 +
STACK CFI INIT f4030 52 .cfa: $rsp .ra: .cfa 8 - ^
STACK CFI f4030 .cfa: $rsp 80 +
STACK CFI INIT f4090 1b0 .cfa: $rsp .ra: .cfa 8 - ^
STACK CFI f4090 .cfa: $rsp 128 +
STACK CFI INIT f4240 21c .cfa: $rsp .ra: .cfa 8 - ^
STACK CFI f4240 .cfa: $rsp 176 +
STACK CFI INIT f4460 16 .cfa: $rsp .ra: .cfa 8 - ^
STACK CFI f4460 .cfa: $rsp 8 +
STACK CFI INIT f4480 6c .cfa: $rsp .ra: .cfa 8 - ^
STACK CFI f4480 .cfa: $rsp 80 +
STACK CFI INIT f44f0 1c4 .cfa: $rsp .ra: .cfa 8 - ^
STACK CFI f44f0 .cfa: $rsp 144 +
STACK CFI INIT f46c0 881 .cfa: $rsp .ra: .cfa 8 - ^
STACK CFI f46c0 .cfa: $rsp 176 +
STACK CFI INIT f4f50 177 .cfa: $rsp .ra: .cfa 8 - ^
STACK CFI f4f50 .cfa: $rsp 176 +
STACK CFI INIT f50d0 5f .cfa: $rsp .ra: .cfa 8 - ^
STACK CFI f50d0 .cfa: $rsp 80 +
STACK CFI INIT f5130 10b .cfa: $rsp .ra: .cfa 8 - ^
STACK CFI f5130 .cfa: $rsp 144 +
STACK CFI INIT f5240 67 .cfa: $rsp .ra: .cfa 8 - ^
STACK CFI f5240 .cfa: $rsp 96 +
STACK CFI INIT f52b0 a2 .cfa: $rsp .ra: .cfa 8 - ^
STACK CFI f52b0 .cfa: $rsp 144 +
STACK CFI INIT f5360 f2 .cfa: $rsp .ra: .cfa 8 - ^
STACK CFI f5360 .cfa: $rsp 112 +
STACK CFI INIT f5460 78 .cfa: $rsp .ra: .cfa 8 - ^
STACK CFI f5460 .cfa: $rsp 128 +
STACK CFI INIT f54e0 89b .cfa: $rsp .ra: .cfa 8 - ^
STACK CFI f54e0 .cfa: $rsp 288 +
STACK CFI INIT f5d80 4b .cfa: $rsp .ra: .cfa 8 - ^
STACK CFI f5d80 .cfa: $rsp 80 +
STACK CFI INIT f5dd0 83 .cfa: $rsp .ra: .cfa 8 - ^
STACK CFI f5dd0 .cfa: $rsp 128 +
STACK CFI INIT f5e60 f2 .cfa: $rsp .ra: .cfa 8 - ^
STACK CFI f5e60 .cfa: $rsp 112 +
STACK CFI INIT f5f60 4b .cfa: $rsp .ra: .cfa 8 - ^
STACK CFI f5f60 .cfa: $rsp 96 +
STACK CFI INIT f5fb0 422 .cfa: $rsp .ra: .cfa 8 - ^
STACK CFI f5fb0 .cfa: $rsp 208 +
STACK CFI INIT f63e0 6a .cfa: $rsp .ra: .cfa 8 - ^
STACK CFI f63e0 .cfa: $rsp 64 +
STACK CFI INIT f6450 8d .cfa: $rsp .ra: .cfa 8 - ^
STACK CFI f6450 .cfa: $rsp 64 +
STACK CFI INIT f64e0 3d8 .cfa: $rsp .ra: .cfa 8 - ^
STACK CFI f64e0 .cfa: $rsp 224 +
STACK CFI INIT f68c0 43f .cfa: $rsp .ra: .cfa 8 - ^
STACK CFI f68c0 .cfa: $rsp 112 +
STACK CFI INIT f6d00 2ec .cfa: $rsp .ra: .cfa 8 - ^
STACK CFI f6d00 .cfa: $rsp 224 +
STACK CFI INIT f6ff0 bfa .cfa: $rsp .ra: .cfa 8 - ^
STACK CFI f6ff0 .cfa: $rsp 224 +
STACK CFI INIT f7bf0 1c2 .cfa: $rsp .ra: .cfa 8 - ^
STACK CFI f7bf0 .cfa: $rsp 144 +
STACK CFI INIT f7dc0 61 .cfa: $rsp .ra: .cfa 8 - ^
STACK CFI f7dc0 .cfa: $rsp 80 +
STACK CFI INIT f7e30 ca .cfa: $rsp .ra: .cfa 8 - ^
STACK CFI f7e30 .cfa: $rsp 80 +
STACK CFI INIT f7f00 615 .cfa: $rsp .ra: .cfa 8 - ^
STACK CFI f7f00 .cfa: $rsp 112 +
STACK CFI INIT f8520 1f .cfa: $rsp .ra: .cfa 8 - ^
STACK CFI f8520 .cfa: $rsp 48 +
STACK CFI INIT f8540 4c .cfa: $rsp .ra: .cfa 8 - ^
STACK CFI f8540 .cfa: $rsp 48 +
STACK CFI INIT f8590 eb .cfa: $rsp .ra: .cfa 8 - ^
STACK CFI f8590 .cfa: $rsp 112 +
STACK CFI INIT f8680 47 .cfa: $rsp .ra: .cfa 8 - ^
STACK CFI f8680 .cfa: $rsp 64 +
STACK CFI INIT f86d0 852 .cfa: $rsp .ra: .cfa 8 - ^
STACK CFI f86d0 .cfa: $rsp 368 +
STACK CFI INIT f8f30 1066 .cfa: $rsp .ra: .cfa 8 - ^
STACK CFI f8f30 .cfa: $rsp 480 +
STACK CFI INIT f9fa0 5f .cfa: $rsp .ra: .cfa 8 - ^
STACK CFI f9fa0 .cfa: $rsp 80 +
STACK CFI INIT fa000 a84 .cfa: $rsp .ra: .cfa 8 - ^
STACK CFI fa000 .cfa: $rsp 192 +
STACK CFI INIT faa90 3e .cfa: $rsp .ra: .cfa 8 - ^
STACK CFI faa90 .cfa: $rsp 64 +
STACK CFI INIT faad0 43 .cfa: $rsp .ra: .cfa 8 - ^
STACK CFI faad0 .cfa: $rsp 64 +
STACK CFI INIT fab20 1 .cfa: $rsp .ra: .cfa 8 - ^
STACK CFI fab20 .cfa: $rsp 8 +
STACK CFI INIT fab30 1 .cfa: $rsp .ra: .cfa 8 - ^
STACK CFI fab30 .cfa: $rsp 8 +
STACK CFI INIT fab40 1 .cfa: $rsp .ra: .cfa 8 - ^
STACK CFI fab40 .cfa: $rsp 8 +
STACK CFI INIT fab50 1 .cfa: $rsp .ra: .cfa 8 - ^
STACK CFI fab50 .cfa: $rsp 8 +
STACK CFI INIT fab60 1 .cfa: $rsp .ra: .cfa 8 - ^
STACK CFI fab60 .cfa: $rsp 8 +
STACK CFI INIT fab70 1 .cfa: $rsp .ra: .cfa 8 - ^
STACK CFI fab70 .cfa: $rsp 8 +
STACK CFI INIT fab80 1 .cfa: $rsp .ra: .cfa 8 - ^
STACK CFI fab80 .cfa: $rsp 8 +
STACK CFI INIT fab90 3 .cfa: $rsp .ra: .cfa 8 - ^
STACK CFI fab90 .cfa: $rsp 8 +
STACK CFI INIT faba0 12 .cfa: $rsp .ra: .cfa 8 - ^
STACK CFI faba0 .cfa: $rsp 8 +
STACK CFI INIT fabc0 68 .cfa: $rsp .ra: .cfa 8 - ^
STACK CFI fabc0 .cfa: $rsp 80 +
STACK CFI INIT fac30 7b .cfa: $rsp .ra: .cfa 8 - ^
STACK CFI fac30 .cfa: $rsp 48 +
STACK CFI INIT facb0 1f .cfa: $rsp .ra: .cfa 8 - ^
STACK CFI facb0 .cfa: $rsp 48 +
STACK CFI INIT facd0 251 .cfa: $rsp .ra: .cfa 8 - ^
STACK CFI facd0 .cfa: $rsp 144 +
STACK CFI INIT faf30 14a .cfa: $rsp .ra: .cfa 8 - ^
STACK CFI faf30 .cfa: $rsp 96 +
STACK CFI INIT fb080 169 .cfa: $rsp .ra: .cfa 8 - ^
STACK CFI fb080 .cfa: $rsp 96 +
STACK CFI INIT fb1f0 84 .cfa: $rsp .ra: .cfa 8 - ^
STACK CFI fb1f0 .cfa: $rsp 48 +
STACK CFI INIT fb280 21 .cfa: $rsp .ra: .cfa 8 - ^
STACK CFI fb280 .cfa: $rsp 48 +
STACK CFI INIT fb2b0 2b .cfa: $rsp .ra: .cfa 8 - ^
STACK CFI fb2b0 .cfa: $rsp 8 +
STACK CFI INIT fb2e0 15 .cfa: $rsp .ra: .cfa 8 - ^
STACK CFI fb2e0 .cfa: $rsp 8 +
STACK CFI INIT fb300 2d0 .cfa: $rsp .ra: .cfa 8 - ^
STACK CFI fb300 .cfa: $rsp 128 +
STACK CFI INIT fb5d0 c2 .cfa: $rsp .ra: .cfa 8 - ^
STACK CFI fb5d0 .cfa: $rsp 80 +
STACK CFI INIT fb6a0 a0 .cfa: $rsp .ra: .cfa 8 - ^
STACK CFI fb6a0 .cfa: $rsp 64 +
STACK CFI INIT fb740 1e1 .cfa: $rsp .ra: .cfa 8 - ^
STACK CFI fb740 .cfa: $rsp 192 +
STACK CFI INIT fb930 2c .cfa: $rsp .ra: .cfa 8 - ^
STACK CFI fb930 .cfa: $rsp 48 +
STACK CFI INIT fb960 39 .cfa: $rsp .ra: .cfa 8 - ^
STACK CFI fb960 .cfa: $rsp 48 +
STACK CFI INIT fb9b0 45 .cfa: $rsp .ra: .cfa 8 - ^
STACK CFI fb9b0 .cfa: $rsp 48 +
STACK CFI INIT fba10 1a4 .cfa: $rsp .ra: .cfa 8 - ^
STACK CFI fba10 .cfa: $rsp 144 +
STACK CFI INIT fbbc0 77 .cfa: $rsp .ra: .cfa 8 - ^
STACK CFI fbbc0 .cfa: $rsp 80 +
STACK CFI INIT fbc40 77 .cfa: $rsp .ra: .cfa 8 - ^
STACK CFI fbc40 .cfa: $rsp 80 +
STACK CFI INIT fbcc0 66 .cfa: $rsp .ra: .cfa 8 - ^
STACK CFI fbcc0 .cfa: $rsp 8 +
STACK CFI INIT fbd30 4 .cfa: $rsp .ra: .cfa 8 - ^
STACK CFI fbd30 .cfa: $rsp 8 +
STACK CFI INIT fbd40 49 .cfa: $rsp .ra: .cfa 8 - ^
STACK CFI fbd40 .cfa: $rsp 48 +
STACK CFI INIT fbd90 8 .cfa: $rsp .ra: .cfa 8 - ^
STACK CFI fbd90 .cfa: $rsp 8 +
STACK CFI INIT fbda0 96 .cfa: $rsp .ra: .cfa 8 - ^
STACK CFI fbda0 .cfa: $rsp 80 +
STACK CFI INIT fbe40 10 .cfa: $rsp .ra: .cfa 8 - ^
STACK CFI fbe40 .cfa: $rsp 8 +
STACK CFI INIT fbe50 8 .cfa: $rsp .ra: .cfa 8 - ^
STACK CFI fbe50 .cfa: $rsp 8 +
STACK CFI INIT fbe60 35 .cfa: $rsp .ra: .cfa 8 - ^
STACK CFI fbe60 .cfa: $rsp 8 +
STACK CFI INIT fbea0 35 .cfa: $rsp .ra: .cfa 8 - ^
STACK CFI fbea0 .cfa: $rsp 8 +
STACK CFI INIT fbee0 12 .cfa: $rsp .ra: .cfa 8 - ^
STACK CFI fbee0 .cfa: $rsp 8 +
STACK CFI INIT fbf00 2b5 .cfa: $rsp .ra: .cfa 8 - ^
STACK CFI fbf00 .cfa: $rsp 112 +
STACK CFI INIT fc1c0 11 .cfa: $rsp .ra: .cfa 8 - ^
STACK CFI fc1c0 .cfa: $rsp 48 +
STACK CFI INIT fc1e0 26b .cfa: $rsp .ra: .cfa 8 - ^
STACK CFI fc1e0 .cfa: $rsp 112 +
STACK CFI INIT fc450 3b .cfa: $rsp .ra: .cfa 8 - ^
STACK CFI fc450 .cfa: $rsp 48 +
STACK CFI INIT fc490 65 .cfa: $rsp .ra: .cfa 8 - ^
STACK CFI fc490 .cfa: $rsp 48 +
STACK CFI INIT fc500 7f0 .cfa: $rsp .ra: .cfa 8 - ^
STACK CFI fc500 .cfa: $rsp 176 +
STACK CFI INIT fccf0 8 .cfa: $rsp .ra: .cfa 8 - ^
STACK CFI fccf0 .cfa: $rsp 8 +
STACK CFI INIT fcd00 2fe .cfa: $rsp .ra: .cfa 8 - ^
STACK CFI fcd00 .cfa: $rsp 96 +
STACK CFI INIT fd000 13 .cfa: $rsp .ra: .cfa 8 - ^
STACK CFI fd000 .cfa: $rsp 8 +
STACK CFI INIT fd020 27 .cfa: $rsp .ra: .cfa 8 - ^
STACK CFI fd020 .cfa: $rsp 8 +
STACK CFI INIT fd050 2a .cfa: $rsp .ra: .cfa 8 - ^
STACK CFI fd050 .cfa: $rsp 8 +
STACK CFI INIT fd080 67 .cfa: $rsp .ra: .cfa 8 - ^
STACK CFI fd080 .cfa: $rsp 64 +
STACK CFI INIT fd0f0 44 .cfa: $rsp .ra: .cfa 8 - ^
STACK CFI fd0f0 .cfa: $rsp 48 +
STACK CFI INIT fd140 16 .cfa: $rsp .ra: .cfa 8 - ^
STACK CFI fd140 .cfa: $rsp 48 +
STACK CFI INIT fd160 23 .cfa: $rsp .ra: .cfa 8 - ^
STACK CFI fd160 .cfa: $rsp 8 +
STACK CFI INIT fd190 18d .cfa: $rsp .ra: .cfa 8 - ^
STACK CFI fd190 .cfa: $rsp 64 +
STACK CFI INIT fd320 7f .cfa: $rsp .ra: .cfa 8 - ^
STACK CFI fd320 .cfa: $rsp 48 +
STACK CFI INIT fd3a0 53 .cfa: $rsp .ra: .cfa 8 - ^
STACK CFI fd3a0 .cfa: $rsp 8 +
STACK CFI INIT fd400 af .cfa: $rsp .ra: .cfa 8 - ^
STACK CFI fd400 .cfa: $rsp 80 +
STACK CFI INIT fd4b0 324 .cfa: $rsp .ra: .cfa 8 - ^
STACK CFI fd4b0 .cfa: $rsp 112 +
STACK CFI INIT fd7e0 18 .cfa: $rsp .ra: .cfa 8 - ^
STACK CFI fd7e0 .cfa: $rsp 8 +
STACK CFI INIT fd800 d .cfa: $rsp .ra: .cfa 8 - ^
STACK CFI fd800 .cfa: $rsp 8 +
STACK CFI INIT fd810 8 .cfa: $rsp .ra: .cfa 8 - ^
STACK CFI fd810 .cfa: $rsp 8 +
STACK CFI INIT fd820 100 .cfa: $rsp .ra: .cfa 8 - ^
STACK CFI fd820 .cfa: $rsp 48 +
STACK CFI INIT fd920 10 .cfa: $rsp .ra: .cfa 8 - ^
STACK CFI fd920 .cfa: $rsp 8 +
STACK CFI INIT fd930 111 .cfa: $rsp .ra: .cfa 8 - ^
STACK CFI fd930 .cfa: $rsp 64 +
STACK CFI INIT fda50 f1 .cfa: $rsp .ra: .cfa 8 - ^
STACK CFI fda50 .cfa: $rsp 64 +
STACK CFI INIT fdb50 2ae .cfa: $rsp .ra: .cfa 8 - ^
STACK CFI fdb50 .cfa: $rsp 96 +
STACK CFI INIT fde00 2fe .cfa: $rsp .ra: .cfa 8 - ^
STACK CFI fde00 .cfa: $rsp 96 +
STACK CFI INIT fe100 30e .cfa: $rsp .ra: .cfa 8 - ^
STACK CFI fe100 .cfa: $rsp 112 +
STACK CFI INIT fe410 4ae .cfa: $rsp .ra: .cfa 8 - ^
STACK CFI fe410 .cfa: $rsp 144 +
STACK CFI INIT fe8c0 4cb .cfa: $rsp .ra: .cfa 8 - ^
STACK CFI fe8c0 .cfa: $rsp 128 +
STACK CFI INIT fed90 bd .cfa: $rsp .ra: .cfa 8 - ^
STACK CFI fed90 .cfa: $rsp 64 +
STACK CFI INIT fee50 9d .cfa: $rsp .ra: .cfa 8 - ^
STACK CFI fee50 .cfa: $rsp 64 +
STACK CFI INIT feef0 97 .cfa: $rsp .ra: .cfa 8 - ^
STACK CFI feef0 .cfa: $rsp 64 +
STACK CFI INIT fef90 98 .cfa: $rsp .ra: .cfa 8 - ^
STACK CFI fef90 .cfa: $rsp 64 +
STACK CFI INIT ff030 99 .cfa: $rsp .ra: .cfa 8 - ^
STACK CFI ff030 .cfa: $rsp 64 +
STACK CFI INIT ff0d0 98 .cfa: $rsp .ra: .cfa 8 - ^
STACK CFI ff0d0 .cfa: $rsp 64 +
STACK CFI INIT ff170 e9 .cfa: $rsp .ra: .cfa 8 - ^
STACK CFI ff170 .cfa: $rsp 80 +
STACK CFI INIT ff260 f9 .cfa: $rsp .ra: .cfa 8 - ^
STACK CFI ff260 .cfa: $rsp 80 +
STACK CFI INIT ff360 121 .cfa: $rsp .ra: .cfa 8 - ^
STACK CFI ff360 .cfa: $rsp 48 +
STACK CFI INIT ff490 89 .cfa: $rsp .ra: .cfa 8 - ^
STACK CFI ff490 .cfa: $rsp 48 +
STACK CFI INIT ff520 89 .cfa: $rsp .ra: .cfa 8 - ^
STACK CFI ff520 .cfa: $rsp 48 +
STACK CFI INIT ff5b0 89 .cfa: $rsp .ra: .cfa 8 - ^
STACK CFI ff5b0 .cfa: $rsp 48 +
STACK CFI INIT ff640 89 .cfa: $rsp .ra: .cfa 8 - ^
STACK CFI ff640 .cfa: $rsp 48 +
STACK CFI INIT ff6d0 128 .cfa: $rsp .ra: .cfa 8 - ^
STACK CFI ff6d0 .cfa: $rsp 80 +
STACK CFI INIT ff800 218 .cfa: $rsp .ra: .cfa 8 - ^
STACK CFI ff800 .cfa: $rsp 128 +
STACK CFI INIT ffa20 38e .cfa: $rsp .ra: .cfa 8 - ^
STACK CFI ffa20 .cfa: $rsp 128 +
STACK CFI INIT ffdb0 18e .cfa: $rsp .ra: .cfa 8 - ^
STACK CFI ffdb0 .cfa: $rsp 160 +
STACK CFI INIT fff40 5a9 .cfa: $rsp .ra: .cfa 8 - ^
STACK CFI fff40 .cfa: $rsp 112 +
STACK CFI INIT 1004f0 8c0 .cfa: $rsp .ra: .cfa 8 - ^
STACK CFI 1004f0 .cfa: $rsp 160 +
STACK CFI INIT 100db0 4b8 .cfa: $rsp .ra: .cfa 8 - ^
STACK CFI 100db0 .cfa: $rsp 128 +
STACK CFI INIT 101270 34c .cfa: $rsp .ra: .cfa 8 - ^
STACK CFI 101270 .cfa: $rsp 112 +
STACK CFI INIT 1015c0 5 .cfa: $rsp .ra: .cfa 8 - ^
STACK CFI 1015c0 .cfa: $rsp 8 +
STACK CFI INIT 1015d0 3f5 .cfa: $rsp .ra: .cfa 8 - ^
STACK CFI 1015d0 .cfa: $rsp 112 +
STACK CFI INIT 1019d0 445 .cfa: $rsp .ra: .cfa 8 - ^
STACK CFI 1019d0 .cfa: $rsp 112 +
STACK CFI INIT 101e20 478 .cfa: $rsp .ra: .cfa 8 - ^
STACK CFI 101e20 .cfa: $rsp 128 +
STACK CFI INIT 1022a0 3ba .cfa: $rsp .ra: .cfa 8 - ^
STACK CFI 1022a0 .cfa: $rsp 128 +
STACK CFI INIT 102660 1ee .cfa: $rsp .ra: .cfa 8 - ^
STACK CFI 102660 .cfa: $rsp 96 +
STACK CFI INIT 102850 40 .cfa: $rsp .ra: .cfa 8 - ^
STACK CFI 102850 .cfa: $rsp 48 +
STACK CFI INIT 102890 290 .cfa: $rsp .ra: .cfa 8 - ^
STACK CFI 102890 .cfa: $rsp 112 +
STACK CFI INIT 102b20 19e .cfa: $rsp .ra: .cfa 8 - ^
STACK CFI 102b20 .cfa: $rsp 96 +
STACK CFI INIT 102cc0 3b2 .cfa: $rsp .ra: .cfa 8 - ^
STACK CFI 102cc0 .cfa: $rsp 112 +
STACK CFI INIT 103080 210 .cfa: $rsp .ra: .cfa 8 - ^
STACK CFI 103080 .cfa: $rsp 96 +
STACK CFI INIT 103290 389 .cfa: $rsp .ra: .cfa 8 - ^
STACK CFI 103290 .cfa: $rsp 160 +
STACK CFI INIT 103620 70f .cfa: $rsp .ra: .cfa 8 - ^
STACK CFI 103620 .cfa: $rsp 208 +
STACK CFI INIT 103d30 450 .cfa: $rsp .ra: .cfa 8 - ^
STACK CFI 103d30 .cfa: $rsp 208 +
STACK CFI INIT 104180 240 .cfa: $rsp .ra: .cfa 8 - ^
STACK CFI 104180 .cfa: $rsp 160 +
STACK CFI INIT 1043c0 551 .cfa: $rsp .ra: .cfa 8 - ^
STACK CFI 1043c0 .cfa: $rsp 192 +
STACK CFI INIT 104920 1c3 .cfa: $rsp .ra: .cfa 8 - ^
STACK CFI 104920 .cfa: $rsp 128 +
STACK CFI INIT 104af0 2c0 .cfa: $rsp .ra: .cfa 8 - ^
STACK CFI 104af0 .cfa: $rsp 128 +
STACK CFI INIT 104db0 5d .cfa: $rsp .ra: .cfa 8 - ^
STACK CFI 104db0 .cfa: $rsp 8 +
STACK CFI INIT 104e10 3ef .cfa: $rsp .ra: .cfa 8 - ^
STACK CFI 104e10 .cfa: $rsp 288 +
STACK CFI INIT 105200 23 .cfa: $rsp .ra: .cfa 8 - ^
STACK CFI 105200 .cfa: $rsp 8 +
STACK CFI INIT 105230 27 .cfa: $rsp .ra: .cfa 8 - ^
STACK CFI 105230 .cfa: $rsp 8 +
STACK CFI INIT 105260 2 .cfa: $rsp .ra: .cfa 8 - ^
STACK CFI 105260 .cfa: $rsp 8 +
STACK CFI INIT 105270 35 .cfa: $rsp .ra: .cfa 8 - ^
STACK CFI 105270 .cfa: $rsp 8 +
STACK CFI INIT 1052b0 44 .cfa: $rsp .ra: .cfa 8 - ^
STACK CFI 1052b0 .cfa: $rsp 8 +
STACK CFI INIT 105300 ab .cfa: $rsp .ra: .cfa 8 - ^
STACK CFI 105300 .cfa: $rsp 48 +
STACK CFI INIT 1053b0 1b .cfa: $rsp .ra: .cfa 8 - ^
STACK CFI 1053b0 .cfa: $rsp 8 +
STACK CFI INIT 1053d0 1a .cfa: $rsp .ra: .cfa 8 - ^
STACK CFI 1053d0 .cfa: $rsp 8 +
STACK CFI INIT 1053f0 1a .cfa: $rsp .ra: .cfa 8 - ^
STACK CFI 1053f0 .cfa: $rsp 8 +
STACK CFI INIT 105410 35 .cfa: $rsp .ra: .cfa 8 - ^
STACK CFI 105410 .cfa: $rsp 8 +
STACK CFI INIT 105450 a5 .cfa: $rsp .ra: .cfa 8 - ^
STACK CFI 105450 .cfa: $rsp 48 +
STACK CFI INIT 105500 129 .cfa: $rsp .ra: .cfa 8 - ^
STACK CFI 105500 .cfa: $rsp 80 +
STACK CFI INIT 105630 89 .cfa: $rsp .ra: .cfa 8 - ^
STACK CFI 105630 .cfa: $rsp 48 +
STACK CFI INIT 1056c0 29 .cfa: $rsp .ra: .cfa 8 - ^
STACK CFI 1056c0 .cfa: $rsp 8 +
STACK CFI INIT 1056f0 124 .cfa: $rsp .ra: .cfa 8 - ^
STACK CFI 1056f0 .cfa: $rsp 80 +
STACK CFI INIT 105820 305 .cfa: $rsp .ra: .cfa 8 - ^
STACK CFI 105820 .cfa: $rsp 176 +
STACK CFI INIT 105b30 8e .cfa: $rsp .ra: .cfa 8 - ^
STACK CFI 105b30 .cfa: $rsp 48 +
STACK CFI INIT 105bc0 185 .cfa: $rsp .ra: .cfa 8 - ^
STACK CFI 105bc0 .cfa: $rsp 96 +
STACK CFI INIT 105d50 3b .cfa: $rsp .ra: .cfa 8 - ^
STACK CFI 105d50 .cfa: $rsp 8 +
STACK CFI INIT 105d90 4ca .cfa: $rsp .ra: .cfa 8 - ^
STACK CFI 105d90 .cfa: $rsp 160 +
STACK CFI INIT 106260 7eb .cfa: $rsp .ra: .cfa 8 - ^
STACK CFI 106260 .cfa: $rsp 144 +
STACK CFI INIT 106a50 3c8 .cfa: $rsp .ra: .cfa 8 - ^
STACK CFI 106a50 .cfa: $rsp 128 +
STACK CFI INIT 106e20 177 .cfa: $rsp .ra: .cfa 8 - ^
STACK CFI 106e20 .cfa: $rsp 128 +
STACK CFI INIT 106fa0 34d .cfa: $rsp .ra: .cfa 8 - ^
STACK CFI 106fa0 .cfa: $rsp 304 +
STACK CFI INIT 1072f0 740 .cfa: $rsp .ra: .cfa 8 - ^
STACK CFI 1072f0 .cfa: $rsp 400 +
STACK CFI INIT 107a30 83c .cfa: $rsp .ra: .cfa 8 - ^
STACK CFI 107a30 .cfa: $rsp 416 +
STACK CFI INIT 108270 75 .cfa: $rsp .ra: .cfa 8 - ^
STACK CFI 108270 .cfa: $rsp 80 +
STACK CFI INIT 1082f0 2d7 .cfa: $rsp .ra: .cfa 8 - ^
STACK CFI 1082f0 .cfa: $rsp 112 +
STACK CFI INIT 1085d0 25e .cfa: $rsp .ra: .cfa 8 - ^
STACK CFI 1085d0 .cfa: $rsp 96 +
STACK CFI INIT 108830 66 .cfa: $rsp .ra: .cfa 8 - ^
STACK CFI 108830 .cfa: $rsp 64 +
STACK CFI INIT 1088a0 71 .cfa: $rsp .ra: .cfa 8 - ^
STACK CFI 1088a0 .cfa: $rsp 64 +
STACK CFI INIT 108920 5df .cfa: $rsp .ra: .cfa 8 - ^
STACK CFI 108920 .cfa: $rsp 192 +
STACK CFI INIT 108f00 563 .cfa: $rsp .ra: .cfa 8 - ^
STACK CFI 108f00 .cfa: $rsp 160 +
STACK CFI INIT 109470 1d3 .cfa: $rsp .ra: .cfa 8 - ^
STACK CFI 109470 .cfa: $rsp 112 +
STACK CFI INIT 109650 4ea .cfa: $rsp .ra: .cfa 8 - ^
STACK CFI 109650 .cfa: $rsp 128 +
STACK CFI INIT 109b40 265 .cfa: $rsp .ra: .cfa 8 - ^
STACK CFI 109b40 .cfa: $rsp 128 +
STACK CFI INIT 109db0 3bf .cfa: $rsp .ra: .cfa 8 - ^
STACK CFI 109db0 .cfa: $rsp 176 +
STACK CFI INIT 10a170 3c2 .cfa: $rsp .ra: .cfa 8 - ^
STACK CFI 10a170 .cfa: $rsp 176 +
STACK CFI INIT 10a540 3c2 .cfa: $rsp .ra: .cfa 8 - ^
STACK CFI 10a540 .cfa: $rsp 176 +
STACK CFI INIT 10a910 3f1 .cfa: $rsp .ra: .cfa 8 - ^
STACK CFI 10a910 .cfa: $rsp 192 +
STACK CFI INIT 10ad10 3f1 .cfa: $rsp .ra: .cfa 8 - ^
STACK CFI 10ad10 .cfa: $rsp 192 +
STACK CFI INIT 10b110 3bf .cfa: $rsp .ra: .cfa 8 - ^
STACK CFI 10b110 .cfa: $rsp 176 +
STACK CFI INIT 10b4d0 26 .cfa: $rsp .ra: .cfa 8 - ^
STACK CFI 10b4d0 .cfa: $rsp 48 +
STACK CFI INIT 10b500 d .cfa: $rsp .ra: .cfa 8 - ^
STACK CFI 10b500 .cfa: $rsp 8 +
STACK CFI INIT 10b510 7 .cfa: $rsp .ra: .cfa 8 - ^
STACK CFI 10b510 .cfa: $rsp 8 +
STACK CFI INIT 10b520 13 .cfa: $rsp .ra: .cfa 8 - ^
STACK CFI 10b520 .cfa: $rsp 8 +
STACK CFI INIT 10b540 42 .cfa: $rsp .ra: .cfa 8 - ^
STACK CFI 10b540 .cfa: $rsp 48 +
STACK CFI INIT 10b590 2f .cfa: $rsp .ra: .cfa 8 - ^
STACK CFI 10b590 .cfa: $rsp 48 +
STACK CFI INIT 10b5c0 52 .cfa: $rsp .ra: .cfa 8 - ^
STACK CFI 10b5c0 .cfa: $rsp 64 +
STACK CFI INIT 10b620 14 .cfa: $rsp .ra: .cfa 8 - ^
STACK CFI 10b620 .cfa: $rsp 8 +
STACK CFI INIT 10b640 14 .cfa: $rsp .ra: .cfa 8 - ^
STACK CFI 10b640 .cfa: $rsp 8 +
STACK CFI INIT 10b660 9b .cfa: $rsp .ra: .cfa 8 - ^
STACK CFI 10b660 .cfa: $rsp 64 +
STACK CFI INIT 10b700 1f .cfa: $rsp .ra: .cfa 8 - ^
STACK CFI 10b700 .cfa: $rsp 48 +
STACK CFI INIT 10b720 9b .cfa: $rsp .ra: .cfa 8 - ^
STACK CFI 10b720 .cfa: $rsp 64 +
STACK CFI INIT 10b7c0 1f .cfa: $rsp .ra: .cfa 8 - ^
STACK CFI 10b7c0 .cfa: $rsp 48 +
STACK CFI INIT 10b7e0 47e .cfa: $rsp .ra: .cfa 8 - ^
STACK CFI 10b7e0 .cfa: $rsp 128 +
STACK CFI INIT 10bc60 3de .cfa: $rsp .ra: .cfa 8 - ^
STACK CFI 10bc60 .cfa: $rsp 128 +
STACK CFI INIT 10c040 41e .cfa: $rsp .ra: .cfa 8 - ^
STACK CFI 10c040 .cfa: $rsp 128 +
STACK CFI INIT 10c460 42e .cfa: $rsp .ra: .cfa 8 - ^
STACK CFI 10c460 .cfa: $rsp 128 +
STACK CFI INIT 10c890 3f .cfa: $rsp .ra: .cfa 8 - ^
STACK CFI 10c890 .cfa: $rsp 64 +
STACK CFI INIT 10c8d0 48 .cfa: $rsp .ra: .cfa 8 - ^
STACK CFI 10c8d0 .cfa: $rsp 64 +
STACK CFI INIT 10c920 7 .cfa: $rsp .ra: .cfa 8 - ^
STACK CFI 10c920 .cfa: $rsp 8 +
STACK CFI INIT 10c930 13 .cfa: $rsp .ra: .cfa 8 - ^
STACK CFI 10c930 .cfa: $rsp 8 +
STACK CFI INIT 10c950 1d .cfa: $rsp .ra: .cfa 8 - ^
STACK CFI 10c950 .cfa: $rsp 8 +
STACK CFI INIT 10c970 e .cfa: $rsp .ra: .cfa 8 - ^
STACK CFI 10c970 .cfa: $rsp 8 +
STACK CFI INIT 10c980 13 .cfa: $rsp .ra: .cfa 8 - ^
STACK CFI 10c980 .cfa: $rsp 8 +
STACK CFI INIT 10c9a0 b .cfa: $rsp .ra: .cfa 8 - ^
STACK CFI 10c9a0 .cfa: $rsp 8 +
STACK CFI INIT 10c9b0 b .cfa: $rsp .ra: .cfa 8 - ^
STACK CFI 10c9b0 .cfa: $rsp 8 +
STACK CFI INIT 10c9c0 b .cfa: $rsp .ra: .cfa 8 - ^
STACK CFI 10c9c0 .cfa: $rsp 8 +
STACK CFI INIT 10c9d0 13 .cfa: $rsp .ra: .cfa 8 - ^
STACK CFI 10c9d0 .cfa: $rsp 8 +
STACK CFI INIT 10c9f0 3f .cfa: $rsp .ra: .cfa 8 - ^
STACK CFI 10c9f0 .cfa: $rsp 8 +
STACK CFI INIT 10ca30 1b5 .cfa: $rsp .ra: .cfa 8 - ^
STACK CFI 10ca30 .cfa: $rsp 96 +
STACK CFI INIT 10cbf0 3c .cfa: $rsp .ra: .cfa 8 - ^
STACK CFI 10cbf0 .cfa: $rsp 8 +
STACK CFI INIT 10cc30 3c .cfa: $rsp .ra: .cfa 8 - ^
STACK CFI 10cc30 .cfa: $rsp 8 +
STACK CFI INIT 10cc70 4b .cfa: $rsp .ra: .cfa 8 - ^
STACK CFI 10cc70 .cfa: $rsp 64 +
STACK CFI INIT 10ccc0 4b .cfa: $rsp .ra: .cfa 8 - ^
STACK CFI 10ccc0 .cfa: $rsp 64 +
STACK CFI INIT 10cd10 3f .cfa: $rsp .ra: .cfa 8 - ^
STACK CFI 10cd10 .cfa: $rsp 8 +
STACK CFI INIT 10cd50 4c .cfa: $rsp .ra: .cfa 8 - ^
STACK CFI 10cd50 .cfa: $rsp 64 +
STACK CFI INIT 10cda0 70 .cfa: $rsp .ra: .cfa 8 - ^
STACK CFI 10cda0 .cfa: $rsp 64 +
STACK CFI INIT 10ce10 b8 .cfa: $rsp .ra: .cfa 8 - ^
STACK CFI 10ce10 .cfa: $rsp 64 +
STACK CFI INIT 10ced0 1f .cfa: $rsp .ra: .cfa 8 - ^
STACK CFI 10ced0 .cfa: $rsp 48 +
STACK CFI INIT 10cef0 20c .cfa: $rsp .ra: .cfa 8 - ^
STACK CFI 10cef0 .cfa: $rsp 96 +
STACK CFI INIT 10d100 34e .cfa: $rsp .ra: .cfa 8 - ^
STACK CFI 10d100 .cfa: $rsp 112 +
STACK CFI INIT 10d450 11 .cfa: $rsp .ra: .cfa 8 - ^
STACK CFI 10d450 .cfa: $rsp 8 +
STACK CFI INIT 10d470 29 .cfa: $rsp .ra: .cfa 8 - ^
STACK CFI 10d470 .cfa: $rsp 8 +
STACK CFI INIT 10d4a0 29 .cfa: $rsp .ra: .cfa 8 - ^
STACK CFI 10d4a0 .cfa: $rsp 8 +
STACK CFI INIT 10d4d0 b .cfa: $rsp .ra: .cfa 8 - ^
STACK CFI 10d4d0 .cfa: $rsp 8 +
STACK CFI INIT 10d4e0 1 .cfa: $rsp .ra: .cfa 8 - ^
STACK CFI 10d4e0 .cfa: $rsp 8 +
STACK CFI INIT 10d4f0 a .cfa: $rsp .ra: .cfa 8 - ^
STACK CFI 10d4f0 .cfa: $rsp 8 +
STACK CFI INIT 10d500 6 .cfa: $rsp .ra: .cfa 8 - ^
STACK CFI 10d500 .cfa: $rsp 8 +
STACK CFI INIT 10d510 31 .cfa: $rsp .ra: .cfa 8 - ^
STACK CFI 10d510 .cfa: $rsp 48 +
STACK CFI INIT 10d550 35 .cfa: $rsp .ra: .cfa 8 - ^
STACK CFI 10d550 .cfa: $rsp 48 +
STACK CFI INIT 10d590 f .cfa: $rsp .ra: .cfa 8 - ^
STACK CFI 10d590 .cfa: $rsp 8 +
STACK CFI INIT 10d5a0 29 .cfa: $rsp .ra: .cfa 8 - ^
STACK CFI 10d5a0 .cfa: $rsp 48 +
STACK CFI INIT 10d5d0 5c .cfa: $rsp .ra: .cfa 8 - ^
STACK CFI 10d5d0 .cfa: $rsp 80 +
STACK CFI INIT 10d630 26f .cfa: $rsp .ra: .cfa 8 - ^
STACK CFI 10d630 .cfa: $rsp 112 +
STACK CFI INIT 10d8a0 63e .cfa: $rsp .ra: .cfa 8 - ^
STACK CFI 10d8a0 .cfa: $rsp 208 +
STACK CFI INIT 10dee0 339 .cfa: $rsp .ra: .cfa 8 - ^
STACK CFI 10dee0 .cfa: $rsp 192 +
STACK CFI INIT 10e220 26 .cfa: $rsp .ra: .cfa 8 - ^
STACK CFI 10e220 .cfa: $rsp 64 +
STACK CFI INIT 10e250 6b8 .cfa: $rsp .ra: .cfa 8 - ^
STACK CFI 10e250 .cfa: $rsp 240 +
STACK CFI INIT 10e910 716 .cfa: $rsp .ra: .cfa 8 - ^
STACK CFI 10e910 .cfa: $rsp 256 +
STACK CFI INIT 10f030 429 .cfa: $rsp .ra: .cfa 8 - ^
STACK CFI 10f030 .cfa: $rsp 224 +
STACK CFI INIT 10f460 326 .cfa: $rsp .ra: .cfa 8 - ^
STACK CFI 10f460 .cfa: $rsp 224 +
STACK CFI INIT 10f790 342 .cfa: $rsp .ra: .cfa 8 - ^
STACK CFI 10f790 .cfa: $rsp 176 +
STACK CFI INIT 10fae0 52d .cfa: $rsp .ra: .cfa 8 - ^
STACK CFI 10fae0 .cfa: $rsp 192 +
STACK CFI INIT 110010 6 .cfa: $rsp .ra: .cfa 8 - ^
STACK CFI 110010 .cfa: $rsp 8 +
STACK CFI INIT 110020 29 .cfa: $rsp .ra: .cfa 8 - ^
STACK CFI 110020 .cfa: $rsp 48 +
STACK CFI INIT 110050 36 .cfa: $rsp .ra: .cfa 8 - ^
STACK CFI 110050 .cfa: $rsp 48 +
STACK CFI INIT 110090 3d .cfa: $rsp .ra: .cfa 8 - ^
STACK CFI 110090 .cfa: $rsp 80 +
STACK CFI INIT 1100d0 3b7 .cfa: $rsp .ra: .cfa 8 - ^
STACK CFI 1100d0 .cfa: $rsp 112 +
STACK CFI INIT 110490 a23 .cfa: $rsp .ra: .cfa 8 - ^
STACK CFI 110490 .cfa: $rsp 160 +
STACK CFI INIT 110ec0 2f .cfa: $rsp .ra: .cfa 8 - ^
STACK CFI 110ec0 .cfa: $rsp 64 +
STACK CFI INIT 110ef0 5 .cfa: $rsp .ra: .cfa 8 - ^
STACK CFI 110ef0 .cfa: $rsp 8 +
STACK CFI INIT 110f00 b .cfa: $rsp .ra: .cfa 8 - ^
STACK CFI 110f00 .cfa: $rsp 8 +
STACK CFI INIT 110f10 265 .cfa: $rsp .ra: .cfa 8 - ^
STACK CFI 110f10 .cfa: $rsp 128 +
STACK CFI INIT 111180 10 .cfa: $rsp .ra: .cfa 8 - ^
STACK CFI 111180 .cfa: $rsp 8 +
STACK CFI INIT 111190 10 .cfa: $rsp .ra: .cfa 8 - ^
STACK CFI 111190 .cfa: $rsp 8 +
STACK CFI INIT 1111a0 3 .cfa: $rsp .ra: .cfa 8 - ^
STACK CFI 1111a0 .cfa: $rsp 8 +
STACK CFI INIT 1111b0 10 .cfa: $rsp .ra: .cfa 8 - ^
STACK CFI 1111b0 .cfa: $rsp 8 +
STACK CFI INIT 1111c0 14 .cfa: $rsp .ra: .cfa 8 - ^
STACK CFI 1111c0 .cfa: $rsp 8 +
STACK CFI INIT 1111e0 8 .cfa: $rsp .ra: .cfa 8 - ^
STACK CFI 1111e0 .cfa: $rsp 8 +
STACK CFI INIT 1111f0 1 .cfa: $rsp .ra: .cfa 8 - ^
STACK CFI 1111f0 .cfa: $rsp 8 +
STACK CFI INIT 111200 2f .cfa: $rsp .ra: .cfa 8 - ^
STACK CFI 111200 .cfa: $rsp 48 +
STACK CFI INIT 111230 1a .cfa: $rsp .ra: .cfa 8 - ^
STACK CFI 111230 .cfa: $rsp 8 +
STACK CFI INIT 111250 b9 .cfa: $rsp .ra: .cfa 8 - ^
STACK CFI 111250 .cfa: $rsp 64 +
STACK CFI INIT 111310 4a .cfa: $rsp .ra: .cfa 8 - ^
STACK CFI 111310 .cfa: $rsp 64 +
STACK CFI INIT 111360 cf .cfa: $rsp .ra: .cfa 8 - ^
STACK CFI 111360 .cfa: $rsp 64 +
STACK CFI INIT 111430 a4 .cfa: $rsp .ra: .cfa 8 - ^
STACK CFI 111430 .cfa: $rsp 64 +
STACK CFI INIT 1114e0 9b .cfa: $rsp .ra: .cfa 8 - ^
STACK CFI 1114e0 .cfa: $rsp 64 +
STACK CFI INIT 111580 9b .cfa: $rsp .ra: .cfa 8 - ^
STACK CFI 111580 .cfa: $rsp 64 +
STACK CFI INIT 111620 1f .cfa: $rsp .ra: .cfa 8 - ^
STACK CFI 111620 .cfa: $rsp 48 +
STACK CFI INIT 111640 9b .cfa: $rsp .ra: .cfa 8 - ^
STACK CFI 111640 .cfa: $rsp 64 +
STACK CFI INIT 1116e0 1f .cfa: $rsp .ra: .cfa 8 - ^
STACK CFI 1116e0 .cfa: $rsp 48 +
STACK CFI INIT 111700 a3 .cfa: $rsp .ra: .cfa 8 - ^
STACK CFI 111700 .cfa: $rsp 80 +
STACK CFI INIT 1117b0 b3 .cfa: $rsp .ra: .cfa 8 - ^
STACK CFI 1117b0 .cfa: $rsp 80 +
STACK CFI INIT 111870 58 .cfa: $rsp .ra: .cfa 8 - ^
STACK CFI 111870 .cfa: $rsp 48 +
STACK CFI INIT 1118d0 77 .cfa: $rsp .ra: .cfa 8 - ^
STACK CFI 1118d0 .cfa: $rsp 80 +
STACK CFI INIT 111950 4d .cfa: $rsp .ra: .cfa 8 - ^
STACK CFI 111950 .cfa: $rsp 48 +
STACK CFI INIT 1119a0 f5 .cfa: $rsp .ra: .cfa 8 - ^
STACK CFI 1119a0 .cfa: $rsp 96 +
STACK CFI INIT 111aa0 e7 .cfa: $rsp .ra: .cfa 8 - ^
STACK CFI 111aa0 .cfa: $rsp 80 +
STACK CFI INIT 111b90 12d .cfa: $rsp .ra: .cfa 8 - ^
STACK CFI 111b90 .cfa: $rsp 160 +
STACK CFI INIT 111cc0 1db .cfa: $rsp .ra: .cfa 8 - ^
STACK CFI 111cc0 .cfa: $rsp 80 +
STACK CFI INIT 111ea0 141 .cfa: $rsp .ra: .cfa 8 - ^
STACK CFI 111ea0 .cfa: $rsp 64 +
STACK CFI INIT 111ff0 1f .cfa: $rsp .ra: .cfa 8 - ^
STACK CFI 111ff0 .cfa: $rsp 48 +
STACK CFI INIT 112010 230 .cfa: $rsp .ra: .cfa 8 - ^
STACK CFI 112010 .cfa: $rsp 96 +
STACK CFI INIT 112240 1c6 .cfa: $rsp .ra: .cfa 8 - ^
STACK CFI 112240 .cfa: $rsp 160 +
STACK CFI INIT 112410 375 .cfa: $rsp .ra: .cfa 8 - ^
STACK CFI 112410 .cfa: $rsp 176 +
STACK CFI INIT 112790 1db .cfa: $rsp .ra: .cfa 8 - ^
STACK CFI 112790 .cfa: $rsp 192 +
STACK CFI INIT 112970 1be .cfa: $rsp .ra: .cfa 8 - ^
STACK CFI 112970 .cfa: $rsp 144 +
STACK CFI INIT 112b30 203 .cfa: $rsp .ra: .cfa 8 - ^
STACK CFI 112b30 .cfa: $rsp 192 +
STACK CFI INIT 112d40 1e5 .cfa: $rsp .ra: .cfa 8 - ^
STACK CFI 112d40 .cfa: $rsp 176 +
STACK CFI INIT 112f30 134 .cfa: $rsp .ra: .cfa 8 - ^
STACK CFI 112f30 .cfa: $rsp 160 +
STACK CFI INIT 113070 a2 .cfa: $rsp .ra: .cfa 8 - ^
STACK CFI 113070 .cfa: $rsp 96 +
STACK CFI INIT 113120 8 .cfa: $rsp .ra: .cfa 8 - ^
STACK CFI 113120 .cfa: $rsp 8 +
STACK CFI INIT 113130 33 .cfa: $rsp .ra: .cfa 8 - ^
STACK CFI 113130 .cfa: $rsp 8 +
STACK CFI INIT 113170 27 .cfa: $rsp .ra: .cfa 8 - ^
STACK CFI 113170 .cfa: $rsp 48 +
STACK CFI INIT 1131a0 8 .cfa: $rsp .ra: .cfa 8 - ^
STACK CFI 1131a0 .cfa: $rsp 8 +
STACK CFI INIT 1131b0 9 .cfa: $rsp .ra: .cfa 8 - ^
STACK CFI 1131b0 .cfa: $rsp 8 +
STACK CFI INIT 1131c0 c3 .cfa: $rsp .ra: .cfa 8 - ^
STACK CFI 1131c0 .cfa: $rsp 128 +
STACK CFI INIT 113290 1b .cfa: $rsp .ra: .cfa 8 - ^
STACK CFI 113290 .cfa: $rsp 8 +
STACK CFI INIT 1132b0 8f .cfa: $rsp .ra: .cfa 8 - ^
STACK CFI 1132b0 .cfa: $rsp 48 +
STACK CFI INIT 113340 92 .cfa: $rsp .ra: .cfa 8 - ^
STACK CFI 113340 .cfa: $rsp 96 +
STACK CFI INIT 1133e0 40c .cfa: $rsp .ra: .cfa 8 - ^
STACK CFI 1133e0 .cfa: $rsp 256 +
STACK CFI INIT 1137f0 79 .cfa: $rsp .ra: .cfa 8 - ^
STACK CFI 1137f0 .cfa: $rsp 80 +
STACK CFI INIT 113870 8 .cfa: $rsp .ra: .cfa 8 - ^
STACK CFI 113870 .cfa: $rsp 8 +
STACK CFI INIT 113880 8 .cfa: $rsp .ra: .cfa 8 - ^
STACK CFI 113880 .cfa: $rsp 8 +
STACK CFI INIT 113890 6c .cfa: $rsp .ra: .cfa 8 - ^
STACK CFI 113890 .cfa: $rsp 80 +
STACK CFI INIT 113900 3aa .cfa: $rsp .ra: .cfa 8 - ^
STACK CFI 113900 .cfa: $rsp 144 +
STACK CFI INIT 113cb0 be .cfa: $rsp .ra: .cfa 8 - ^
STACK CFI 113cb0 .cfa: $rsp 80 +
STACK CFI INIT 113d70 175 .cfa: $rsp .ra: .cfa 8 - ^
STACK CFI 113d70 .cfa: $rsp 128 +
STACK CFI INIT 113ef0 3b .cfa: $rsp .ra: .cfa 8 - ^
STACK CFI 113ef0 .cfa: $rsp 64 +
STACK CFI INIT 113f30 17 .cfa: $rsp .ra: .cfa 8 - ^
STACK CFI 113f30 .cfa: $rsp 8 +
STACK CFI INIT 113f50 4e .cfa: $rsp .ra: .cfa 8 - ^
STACK CFI 113f50 .cfa: $rsp 48 +
STACK CFI INIT 113fa0 53 .cfa: $rsp .ra: .cfa 8 - ^
STACK CFI 113fa0 .cfa: $rsp 8 +
STACK CFI INIT 114000 51 .cfa: $rsp .ra: .cfa 8 - ^
STACK CFI 114000 .cfa: $rsp 64 +
STACK CFI INIT 114060 1df .cfa: $rsp .ra: .cfa 8 - ^
STACK CFI 114060 .cfa: $rsp 192 +
STACK CFI INIT 114240 628 .cfa: $rsp .ra: .cfa 8 - ^
STACK CFI 114240 .cfa: $rsp 208 +
STACK CFI INIT 114870 23a .cfa: $rsp .ra: .cfa 8 - ^
STACK CFI 114870 .cfa: $rsp 160 +
STACK CFI INIT 114ab0 c8 .cfa: $rsp .ra: .cfa 8 - ^
STACK CFI 114ab0 .cfa: $rsp 112 +
STACK CFI INIT 114b80 2b5 .cfa: $rsp .ra: .cfa 8 - ^
STACK CFI 114b80 .cfa: $rsp 128 +
STACK CFI INIT 114e40 13 .cfa: $rsp .ra: .cfa 8 - ^
STACK CFI 114e40 .cfa: $rsp 8 +
STACK CFI INIT 114e60 7f3 .cfa: $rsp .ra: .cfa 8 - ^
STACK CFI 114e60 .cfa: $rsp 400 +
STACK CFI INIT 115660 18 .cfa: $rsp .ra: .cfa 8 - ^
STACK CFI 115660 .cfa: $rsp 8 +
STACK CFI INIT 115680 117 .cfa: $rsp .ra: .cfa 8 - ^
STACK CFI 115680 .cfa: $rsp 96 +
STACK CFI INIT 1157a0 11 .cfa: $rsp .ra: .cfa 8 - ^
STACK CFI 1157a0 .cfa: $rsp 8 +
STACK CFI INIT 1157c0 2ce .cfa: $rsp .ra: .cfa 8 - ^
STACK CFI 1157c0 .cfa: $rsp 128 +
STACK CFI INIT 115a90 13 .cfa: $rsp .ra: .cfa 8 - ^
STACK CFI 115a90 .cfa: $rsp 8 +
STACK CFI INIT 115ab0 68 .cfa: $rsp .ra: .cfa 8 - ^
STACK CFI 115ab0 .cfa: $rsp 80 +
STACK CFI INIT 115b20 2567 .cfa: $rsp .ra: .cfa 8 - ^
STACK CFI 115b20 .cfa: $rsp 976 +
STACK CFI INIT 118090 26d .cfa: $rsp .ra: .cfa 8 - ^
STACK CFI 118090 .cfa: $rsp 160 +
STACK CFI INIT 118300 d6 .cfa: $rsp .ra: .cfa 8 - ^
STACK CFI 118300 .cfa: $rsp 112 +
STACK CFI INIT 1183e0 650 .cfa: $rsp .ra: .cfa 8 - ^
STACK CFI 1183e0 .cfa: $rsp 160 +
STACK CFI INIT 118a30 d9 .cfa: $rsp .ra: .cfa 8 - ^
STACK CFI 118a30 .cfa: $rsp 112 +
STACK CFI INIT 118b10 a1 .cfa: $rsp .ra: .cfa 8 - ^
STACK CFI 118b10 .cfa: $rsp 96 +
STACK CFI INIT 118bc0 2507 .cfa: $rsp .ra: .cfa 8 - ^
STACK CFI 118bc0 .cfa: $rsp 976 +
STACK CFI INIT 11b0d0 ab .cfa: $rsp .ra: .cfa 8 - ^
STACK CFI 11b0d0 .cfa: $rsp 112 +
STACK CFI INIT 11b180 27d .cfa: $rsp .ra: .cfa 8 - ^
STACK CFI 11b180 .cfa: $rsp 128 +
STACK CFI INIT 11b400 47 .cfa: $rsp .ra: .cfa 8 - ^
STACK CFI 11b400 .cfa: $rsp 64 +
STACK CFI INIT 11b450 47 .cfa: $rsp .ra: .cfa 8 - ^
STACK CFI 11b450 .cfa: $rsp 64 +
STACK CFI INIT 11b4a0 904 .cfa: $rsp .ra: .cfa 8 - ^
STACK CFI 11b4a0 .cfa: $rsp 256 +
STACK CFI INIT 11bdb0 941 .cfa: $rsp .ra: .cfa 8 - ^
STACK CFI 11bdb0 .cfa: $rsp 256 +
STACK CFI INIT 11c700 5c5 .cfa: $rsp .ra: .cfa 8 - ^
STACK CFI 11c700 .cfa: $rsp 256 +
STACK CFI INIT 11ccd0 3a7 .cfa: $rsp .ra: .cfa 8 - ^
STACK CFI 11ccd0 .cfa: $rsp 208 +
STACK CFI INIT 11d080 5a0 .cfa: $rsp .ra: .cfa 8 - ^
STACK CFI 11d080 .cfa: $rsp 240 +
STACK CFI INIT 11d620 173 .cfa: $rsp .ra: .cfa 8 - ^
STACK CFI 11d620 .cfa: $rsp 128 +
STACK CFI INIT 11d7a0 4c .cfa: $rsp .ra: .cfa 8 - ^
STACK CFI 11d7a0 .cfa: $rsp 80 +
STACK CFI INIT 11d7f0 7 .cfa: $rsp .ra: .cfa 8 - ^
STACK CFI 11d7f0 .cfa: $rsp 8 +
STACK CFI INIT 11d800 f .cfa: $rsp .ra: .cfa 8 - ^
STACK CFI 11d800 .cfa: $rsp 8 +
STACK CFI INIT 11d810 29 .cfa: $rsp .ra: .cfa 8 - ^
STACK CFI 11d810 .cfa: $rsp 48 +
STACK CFI INIT 11d840 d8 .cfa: $rsp .ra: .cfa 8 - ^
STACK CFI 11d840 .cfa: $rsp 80 +
STACK CFI INIT 11d920 25 .cfa: $rsp .ra: .cfa 8 - ^
STACK CFI 11d920 .cfa: $rsp 8 +
STACK CFI INIT 11d950 25 .cfa: $rsp .ra: .cfa 8 - ^
STACK CFI 11d950 .cfa: $rsp 8 +
STACK CFI INIT 11d980 25 .cfa: $rsp .ra: .cfa 8 - ^
STACK CFI 11d980 .cfa: $rsp 8 +
STACK CFI INIT 11d9b0 25 .cfa: $rsp .ra: .cfa 8 - ^
STACK CFI 11d9b0 .cfa: $rsp 8 +
STACK CFI INIT 11d9e0 25 .cfa: $rsp .ra: .cfa 8 - ^
STACK CFI 11d9e0 .cfa: $rsp 8 +
STACK CFI INIT 11da10 25 .cfa: $rsp .ra: .cfa 8 - ^
STACK CFI 11da10 .cfa: $rsp 8 +
STACK CFI INIT 11da40 25 .cfa: $rsp .ra: .cfa 8 - ^
STACK CFI 11da40 .cfa: $rsp 8 +
STACK CFI INIT 11da70 25 .cfa: $rsp .ra: .cfa 8 - ^
STACK CFI 11da70 .cfa: $rsp 8 +
STACK CFI INIT 11daa0 78f .cfa: $rsp .ra: .cfa 8 - ^
STACK CFI 11daa0 .cfa: $rsp 112 +
STACK CFI INIT 11e230 4e8 .cfa: $rsp .ra: .cfa 8 - ^
STACK CFI 11e230 .cfa: $rsp 112 +
STACK CFI INIT 11e720 2b1 .cfa: $rsp .ra: .cfa 8 - ^
STACK CFI 11e720 .cfa: $rsp 80 +
STACK CFI INIT 11e9e0 25 .cfa: $rsp .ra: .cfa 8 - ^
STACK CFI 11e9e0 .cfa: $rsp 8 +
STACK CFI INIT 11ea10 25 .cfa: $rsp .ra: .cfa 8 - ^
STACK CFI 11ea10 .cfa: $rsp 8 +
STACK CFI INIT 11ea40 178 .cfa: $rsp .ra: .cfa 8 - ^
STACK CFI 11ea40 .cfa: $rsp 160 +
STACK CFI INIT 11ebc0 25 .cfa: $rsp .ra: .cfa 8 - ^
STACK CFI 11ebc0 .cfa: $rsp 8 +
STACK CFI INIT 11ebf0 25 .cfa: $rsp .ra: .cfa 8 - ^
STACK CFI 11ebf0 .cfa: $rsp 8 +
STACK CFI INIT 11ec20 25 .cfa: $rsp .ra: .cfa 8 - ^
STACK CFI 11ec20 .cfa: $rsp 8 +
STACK CFI INIT 11ec50 43 .cfa: $rsp .ra: .cfa 8 - ^
STACK CFI 11ec50 .cfa: $rsp 64 +
STACK CFI INIT 11eca0 43 .cfa: $rsp .ra: .cfa 8 - ^
STACK CFI 11eca0 .cfa: $rsp 64 +
STACK CFI INIT 11ecf0 25 .cfa: $rsp .ra: .cfa 8 - ^
STACK CFI 11ecf0 .cfa: $rsp 8 +
STACK CFI INIT 11ed20 25 .cfa: $rsp .ra: .cfa 8 - ^
STACK CFI 11ed20 .cfa: $rsp 8 +
STACK CFI INIT 11ed50 20c .cfa: $rsp .ra: .cfa 8 - ^
STACK CFI 11ed50 .cfa: $rsp 96 +
STACK CFI INIT 11ef60 12e .cfa: $rsp .ra: .cfa 8 - ^
STACK CFI 11ef60 .cfa: $rsp 96 +
STACK CFI INIT 11f090 1f .cfa: $rsp .ra: .cfa 8 - ^
STACK CFI 11f090 .cfa: $rsp 48 +
STACK CFI INIT 11f0b0 7a .cfa: $rsp .ra: .cfa 8 - ^
STACK CFI 11f0b0 .cfa: $rsp 64 +
STACK CFI INIT 11f130 3 .cfa: $rsp .ra: .cfa 8 - ^
STACK CFI 11f130 .cfa: $rsp 8 +
STACK CFI INIT 11f140 b .cfa: $rsp .ra: .cfa 8 - ^
STACK CFI 11f140 .cfa: $rsp 8 +
STACK CFI INIT 11f150 d4 .cfa: $rsp .ra: .cfa 8 - ^
STACK CFI 11f150 .cfa: $rsp 112 +
STACK CFI INIT 11f230 c5 .cfa: $rsp .ra: .cfa 8 - ^
STACK CFI 11f230 .cfa: $rsp 24 +
STACK CFI INIT 11f300 7b .cfa: $rsp .ra: .cfa 8 - ^
STACK CFI 11f300 .cfa: $rsp 64 +
STACK CFI INIT 11f380 b5 .cfa: $rsp .ra: .cfa 8 - ^
STACK CFI 11f380 .cfa: $rsp 112 +
STACK CFI INIT 11f440 c6 .cfa: $rsp .ra: .cfa 8 - ^
STACK CFI 11f440 .cfa: $rsp 64 +
STACK CFI INIT 11f510 1f .cfa: $rsp .ra: .cfa 8 - ^
STACK CFI 11f510 .cfa: $rsp 48 +
STACK CFI INIT 11f530 113 .cfa: $rsp .ra: .cfa 8 - ^
STACK CFI 11f530 .cfa: $rsp 144 +
STACK CFI INIT 11f650 78 .cfa: $rsp .ra: .cfa 8 - ^
STACK CFI 11f650 .cfa: $rsp 128 +
STACK CFI INIT 11f6d0 128 .cfa: $rsp .ra: .cfa 8 - ^
STACK CFI 11f6d0 .cfa: $rsp 48 +
STACK CFI INIT 11f800 bc .cfa: $rsp .ra: .cfa 8 - ^
STACK CFI 11f800 .cfa: $rsp 40 +
STACK CFI INIT 11f8c0 6 .cfa: $rsp .ra: .cfa 8 - ^
STACK CFI 11f8c0 .cfa: $rsp 8 +
STACK CFI INIT 11f8d0 20 .cfa: $rsp .ra: .cfa 8 - ^
STACK CFI 11f8d0 .cfa: $rsp 8 +
STACK CFI INIT 11f8f0 ac .cfa: $rsp .ra: .cfa 8 - ^
STACK CFI 11f8f0 .cfa: $rsp 64 +
STACK CFI INIT 11f9a0 27c .cfa: $rsp .ra: .cfa 8 - ^
STACK CFI 11f9a0 .cfa: $rsp 160 +
STACK CFI INIT 11fc20 54 .cfa: $rsp .ra: .cfa 8 - ^
STACK CFI 11fc20 .cfa: $rsp 48 +
STACK CFI INIT 11fc80 1f .cfa: $rsp .ra: .cfa 8 - ^
STACK CFI 11fc80 .cfa: $rsp 48 +
STACK CFI INIT 11fca0 2f .cfa: $rsp .ra: .cfa 8 - ^
STACK CFI 11fca0 .cfa: $rsp 64 +
STACK CFI INIT 11fcd0 e0 .cfa: $rsp .ra: .cfa 8 - ^
STACK CFI 11fcd0 .cfa: $rsp 128 +
STACK CFI INIT 11fdb0 20e .cfa: $rsp .ra: .cfa 8 - ^
STACK CFI 11fdb0 .cfa: $rsp 160 +
STACK CFI INIT 11ffc0 5 .cfa: $rsp .ra: .cfa 8 - ^
STACK CFI 11ffc0 .cfa: $rsp 8 +
STACK CFI INIT 11ffd0 1b0 .cfa: $rsp .ra: .cfa 8 - ^
STACK CFI 11ffd0 .cfa: $rsp 144 +
STACK CFI INIT 120180 5 .cfa: $rsp .ra: .cfa 8 - ^
STACK CFI 120180 .cfa: $rsp 8 +
STACK CFI INIT 120190 5 .cfa: $rsp .ra: .cfa 8 - ^
STACK CFI 120190 .cfa: $rsp 8 +
STACK CFI INIT 1201a0 3 .cfa: $rsp .ra: .cfa 8 - ^
STACK CFI 1201a0 .cfa: $rsp 8 +
STACK CFI INIT 1201b0 b .cfa: $rsp .ra: .cfa 8 - ^
STACK CFI 1201b0 .cfa: $rsp 8 +
STACK CFI INIT 1201c0 1 .cfa: $rsp .ra: .cfa 8 - ^
STACK CFI 1201c0 .cfa: $rsp 8 +
STACK CFI INIT 1201d0 3 .cfa: $rsp .ra: .cfa 8 - ^
STACK CFI 1201d0 .cfa: $rsp 8 +
STACK CFI INIT 1201e0 7 .cfa: $rsp .ra: .cfa 8 - ^
STACK CFI 1201e0 .cfa: $rsp 8 +
STACK CFI INIT 1201f0 e .cfa: $rsp .ra: .cfa 8 - ^
STACK CFI 1201f0 .cfa: $rsp 8 +
STACK CFI INIT 120200 3 .cfa: $rsp .ra: .cfa 8 - ^
STACK CFI 120200 .cfa: $rsp 8 +
STACK CFI INIT 120210 c .cfa: $rsp .ra: .cfa 8 - ^
STACK CFI 120210 .cfa: $rsp 8 +
STACK CFI INIT 120220 1b .cfa: $rsp .ra: .cfa 8 - ^
STACK CFI 120220 .cfa: $rsp 8 +
STACK CFI INIT 120240 18 .cfa: $rsp .ra: .cfa 8 - ^
STACK CFI 120240 .cfa: $rsp 8 +
STACK CFI INIT 120260 32 .cfa: $rsp .ra: .cfa 8 - ^
STACK CFI 120260 .cfa: $rsp 48 +
STACK CFI INIT 1202a0 8 .cfa: $rsp .ra: .cfa 8 - ^
STACK CFI 1202a0 .cfa: $rsp 8 +
STACK CFI INIT 1202b0 7 .cfa: $rsp .ra: .cfa 8 - ^
STACK CFI 1202b0 .cfa: $rsp 8 +
STACK CFI INIT 1202c0 14 .cfa: $rsp .ra: .cfa 8 - ^
STACK CFI 1202c0 .cfa: $rsp 8 +
STACK CFI INIT 1202e0 34 .cfa: $rsp .ra: .cfa 8 - ^
STACK CFI 1202e0 .cfa: $rsp 8 +
STACK CFI INIT 120320 53 .cfa: $rsp .ra: .cfa 8 - ^
STACK CFI 120320 .cfa: $rsp 8 +
STACK CFI INIT 120380 55 .cfa: $rsp .ra: .cfa 8 - ^
STACK CFI 120380 .cfa: $rsp 8 +
STACK CFI INIT 1203e0 1eb .cfa: $rsp .ra: .cfa 8 - ^
STACK CFI 1203e0 .cfa: $rsp 112 +
STACK CFI INIT 1205d0 34b .cfa: $rsp .ra: .cfa 8 - ^
STACK CFI 1205d0 .cfa: $rsp 112 +
STACK CFI INIT 120920 14 .cfa: $rsp .ra: .cfa 8 - ^
STACK CFI 120920 .cfa: $rsp 8 +
STACK CFI INIT 120940 34 .cfa: $rsp .ra: .cfa 8 - ^
STACK CFI 120940 .cfa: $rsp 8 +
STACK CFI INIT 120980 13 .cfa: $rsp .ra: .cfa 8 - ^
STACK CFI 120980 .cfa: $rsp 8 +
STACK CFI INIT 1209a0 53 .cfa: $rsp .ra: .cfa 8 - ^
STACK CFI 1209a0 .cfa: $rsp 8 +
STACK CFI INIT 120a00 55 .cfa: $rsp .ra: .cfa 8 - ^
STACK CFI 120a00 .cfa: $rsp 8 +
STACK CFI INIT 120a60 1fb .cfa: $rsp .ra: .cfa 8 - ^
STACK CFI 120a60 .cfa: $rsp 112 +
STACK CFI INIT 120c60 33b .cfa: $rsp .ra: .cfa 8 - ^
STACK CFI 120c60 .cfa: $rsp 112 +
STACK CFI INIT 120fa0 1 .cfa: $rsp .ra: .cfa 8 - ^
STACK CFI 120fa0 .cfa: $rsp 8 +
STACK CFI INIT 120fb0 139 .cfa: $rsp .ra: .cfa 8 - ^
STACK CFI 120fb0 .cfa: $rsp 80 +
STACK CFI INIT 1210f0 27 .cfa: $rsp .ra: .cfa 8 - ^
STACK CFI 1210f0 .cfa: $rsp 8 +
STACK CFI INIT 121120 1de .cfa: $rsp .ra: .cfa 8 - ^
STACK CFI 121120 .cfa: $rsp 96 +
STACK CFI INIT 121300 20 .cfa: $rsp .ra: .cfa 8 - ^
STACK CFI 121300 .cfa: $rsp 8 +
STACK CFI INIT 121320 64 .cfa: $rsp .ra: .cfa 8 - ^
STACK CFI 121320 .cfa: $rsp 48 +
STACK CFI INIT 121390 22 .cfa: $rsp .ra: .cfa 8 - ^
STACK CFI 121390 .cfa: $rsp 48 +
STACK CFI INIT 1213c0 3e .cfa: $rsp .ra: .cfa 8 - ^
STACK CFI 1213c0 .cfa: $rsp 64 +
STACK CFI INIT 121400 375 .cfa: $rsp .ra: .cfa 8 - ^
STACK CFI 121400 .cfa: $rsp 128 +
STACK CFI INIT 121780 285 .cfa: $rsp .ra: .cfa 8 - ^
STACK CFI 121780 .cfa: $rsp 128 +
STACK CFI INIT 121a10 96 .cfa: $rsp .ra: .cfa 8 - ^
STACK CFI 121a10 .cfa: $rsp 48 +
STACK CFI INIT 121ab0 96 .cfa: $rsp .ra: .cfa 8 - ^
STACK CFI 121ab0 .cfa: $rsp 48 +
STACK CFI INIT 121b50 3dd .cfa: $rsp .ra: .cfa 8 - ^
STACK CFI 121b50 .cfa: $rsp 176 +
STACK CFI INIT 121f30 3d7 .cfa: $rsp .ra: .cfa 8 - ^
STACK CFI 121f30 .cfa: $rsp 176 +
STACK CFI INIT 122310 2d1 .cfa: $rsp .ra: .cfa 8 - ^
STACK CFI 122310 .cfa: $rsp 176 +
STACK CFI INIT 1225f0 2d1 .cfa: $rsp .ra: .cfa 8 - ^
STACK CFI 1225f0 .cfa: $rsp 176 +
STACK CFI INIT 1228d0 389 .cfa: $rsp .ra: .cfa 8 - ^
STACK CFI 1228d0 .cfa: $rsp 128 +
STACK CFI INIT 122c60 13 .cfa: $rsp .ra: .cfa 8 - ^
STACK CFI 122c60 .cfa: $rsp 8 +
STACK CFI INIT 122c80 8 .cfa: $rsp .ra: .cfa 8 - ^
STACK CFI 122c80 .cfa: $rsp 8 +
STACK CFI INIT 122c90 c .cfa: $rsp .ra: .cfa 8 - ^
STACK CFI 122c90 .cfa: $rsp 8 +
STACK CFI INIT 122ca0 16 .cfa: $rsp .ra: .cfa 8 - ^
STACK CFI 122ca0 .cfa: $rsp 8 +
STACK CFI INIT 122cc0 1d4 .cfa: $rsp .ra: .cfa 8 - ^
STACK CFI 122cc0 .cfa: $rsp 128 +
STACK CFI INIT 122ea0 1e4 .cfa: $rsp .ra: .cfa 8 - ^
STACK CFI 122ea0 .cfa: $rsp 128 +
STACK CFI INIT 123090 21 .cfa: $rsp .ra: .cfa 8 - ^
STACK CFI 123090 .cfa: $rsp 48 +
STACK CFI INIT 1230c0 27 .cfa: $rsp .ra: .cfa 8 - ^
STACK CFI 1230c0 .cfa: $rsp 48 +
STACK CFI INIT 1230f0 6f .cfa: $rsp .ra: .cfa 8 - ^
STACK CFI 1230f0 .cfa: $rsp 80 +
STACK CFI INIT 123160 9 .cfa: $rsp .ra: .cfa 8 - ^
STACK CFI 123160 .cfa: $rsp 8 +
STACK CFI INIT 123170 a45 .cfa: $rsp .ra: .cfa 8 - ^
STACK CFI 123170 .cfa: $rsp 208 +
STACK CFI INIT 123bc0 2f5 .cfa: $rsp .ra: .cfa 8 - ^
STACK CFI 123bc0 .cfa: $rsp 128 +
STACK CFI INIT 123ec0 3 .cfa: $rsp .ra: .cfa 8 - ^
STACK CFI 123ec0 .cfa: $rsp 8 +
STACK CFI INIT 123ed0 3 .cfa: $rsp .ra: .cfa 8 - ^
STACK CFI 123ed0 .cfa: $rsp 8 +
STACK CFI INIT 123ee0 3 .cfa: $rsp .ra: .cfa 8 - ^
STACK CFI 123ee0 .cfa: $rsp 8 +
STACK CFI INIT 123ef0 4 .cfa: $rsp .ra: .cfa 8 - ^
STACK CFI 123ef0 .cfa: $rsp 8 +
STACK CFI INIT 123f00 4 .cfa: $rsp .ra: .cfa 8 - ^
STACK CFI 123f00 .cfa: $rsp 8 +
STACK CFI INIT 123f10 4 .cfa: $rsp .ra: .cfa 8 - ^
STACK CFI 123f10 .cfa: $rsp 8 +
STACK CFI INIT 123f20 5f .cfa: $rsp .ra: .cfa 8 - ^
STACK CFI 123f20 .cfa: $rsp 64 +
STACK CFI INIT 123f80 5f .cfa: $rsp .ra: .cfa 8 - ^
STACK CFI 123f80 .cfa: $rsp 64 +
STACK CFI INIT 123fe0 5f .cfa: $rsp .ra: .cfa 8 - ^
STACK CFI 123fe0 .cfa: $rsp 64 +
STACK CFI INIT 124040 5f .cfa: $rsp .ra: .cfa 8 - ^
STACK CFI 124040 .cfa: $rsp 64 +
STACK CFI INIT 1240a0 5f .cfa: $rsp .ra: .cfa 8 - ^
STACK CFI 1240a0 .cfa: $rsp 64 +
STACK CFI INIT 124100 5f .cfa: $rsp .ra: .cfa 8 - ^
STACK CFI 124100 .cfa: $rsp 64 +
STACK CFI INIT 124160 6b .cfa: $rsp .ra: .cfa 8 - ^
STACK CFI 124160 .cfa: $rsp 64 +
STACK CFI INIT 1241d0 6b .cfa: $rsp .ra: .cfa 8 - ^
STACK CFI 1241d0 .cfa: $rsp 64 +
STACK CFI INIT 124240 5f .cfa: $rsp .ra: .cfa 8 - ^
STACK CFI 124240 .cfa: $rsp 64 +
STACK CFI INIT 1242a0 5f .cfa: $rsp .ra: .cfa 8 - ^
STACK CFI 1242a0 .cfa: $rsp 64 +
STACK CFI INIT 124300 5f .cfa: $rsp .ra: .cfa 8 - ^
STACK CFI 124300 .cfa: $rsp 64 +
STACK CFI INIT 124360 5f .cfa: $rsp .ra: .cfa 8 - ^
STACK CFI 124360 .cfa: $rsp 64 +
STACK CFI INIT 1243c0 5f .cfa: $rsp .ra: .cfa 8 - ^
STACK CFI 1243c0 .cfa: $rsp 64 +
STACK CFI INIT 124420 6b .cfa: $rsp .ra: .cfa 8 - ^
STACK CFI 124420 .cfa: $rsp 64 +
STACK CFI INIT 124490 6b .cfa: $rsp .ra: .cfa 8 - ^
STACK CFI 124490 .cfa: $rsp 64 +
STACK CFI INIT 124500 6b .cfa: $rsp .ra: .cfa 8 - ^
STACK CFI 124500 .cfa: $rsp 64 +
STACK CFI INIT 124570 6b .cfa: $rsp .ra: .cfa 8 - ^
STACK CFI 124570 .cfa: $rsp 64 +
STACK CFI INIT 1245e0 da .cfa: $rsp .ra: .cfa 8 - ^
STACK CFI 1245e0 .cfa: $rsp 96 +
STACK CFI INIT 1246c0 da .cfa: $rsp .ra: .cfa 8 - ^
STACK CFI 1246c0 .cfa: $rsp 96 +
STACK CFI INIT 1247a0 da .cfa: $rsp .ra: .cfa 8 - ^
STACK CFI 1247a0 .cfa: $rsp 96 +
STACK CFI INIT 124880 da .cfa: $rsp .ra: .cfa 8 - ^
STACK CFI 124880 .cfa: $rsp 96 +
STACK CFI INIT 124960 da .cfa: $rsp .ra: .cfa 8 - ^
STACK CFI 124960 .cfa: $rsp 96 +
STACK CFI INIT 124a40 12a .cfa: $rsp .ra: .cfa 8 - ^
STACK CFI 124a40 .cfa: $rsp 96 +
STACK CFI INIT 124b70 12a .cfa: $rsp .ra: .cfa 8 - ^
STACK CFI 124b70 .cfa: $rsp 96 +
STACK CFI INIT 124ca0 be .cfa: $rsp .ra: .cfa 8 - ^
STACK CFI 124ca0 .cfa: $rsp 64 +
STACK CFI INIT 124d60 be .cfa: $rsp .ra: .cfa 8 - ^
STACK CFI 124d60 .cfa: $rsp 64 +
STACK CFI INIT 124e20 be .cfa: $rsp .ra: .cfa 8 - ^
STACK CFI 124e20 .cfa: $rsp 64 +
STACK CFI INIT 124ee0 be .cfa: $rsp .ra: .cfa 8 - ^
STACK CFI 124ee0 .cfa: $rsp 64 +
STACK CFI INIT 124fa0 be .cfa: $rsp .ra: .cfa 8 - ^
STACK CFI 124fa0 .cfa: $rsp 64 +
STACK CFI INIT 125060 be .cfa: $rsp .ra: .cfa 8 - ^
STACK CFI 125060 .cfa: $rsp 64 +
STACK CFI INIT 125120 be .cfa: $rsp .ra: .cfa 8 - ^
STACK CFI 125120 .cfa: $rsp 64 +
STACK CFI INIT 1251e0 be .cfa: $rsp .ra: .cfa 8 - ^
STACK CFI 1251e0 .cfa: $rsp 64 +
STACK CFI INIT 1252a0 be .cfa: $rsp .ra: .cfa 8 - ^
STACK CFI 1252a0 .cfa: $rsp 64 +
STACK CFI INIT 125360 be .cfa: $rsp .ra: .cfa 8 - ^
STACK CFI 125360 .cfa: $rsp 64 +
STACK CFI INIT 125420 be .cfa: $rsp .ra: .cfa 8 - ^
STACK CFI 125420 .cfa: $rsp 64 +
STACK CFI INIT 1254e0 be .cfa: $rsp .ra: .cfa 8 - ^
STACK CFI 1254e0 .cfa: $rsp 64 +
STACK CFI INIT 1255a0 be .cfa: $rsp .ra: .cfa 8 - ^
STACK CFI 1255a0 .cfa: $rsp 64 +
STACK CFI INIT 125660 be .cfa: $rsp .ra: .cfa 8 - ^
STACK CFI 125660 .cfa: $rsp 64 +
STACK CFI INIT 125720 be .cfa: $rsp .ra: .cfa 8 - ^
STACK CFI 125720 .cfa: $rsp 64 +
STACK CFI INIT 1257e0 be .cfa: $rsp .ra: .cfa 8 - ^
STACK CFI 1257e0 .cfa: $rsp 64 +
STACK CFI INIT 1258a0 be .cfa: $rsp .ra: .cfa 8 - ^
STACK CFI 1258a0 .cfa: $rsp 64 +
STACK CFI INIT 125960 be .cfa: $rsp .ra: .cfa 8 - ^
STACK CFI 125960 .cfa: $rsp 64 +
STACK CFI INIT 125a20 be .cfa: $rsp .ra: .cfa 8 - ^
STACK CFI 125a20 .cfa: $rsp 64 +
STACK CFI INIT 125ae0 be .cfa: $rsp .ra: .cfa 8 - ^
STACK CFI 125ae0 .cfa: $rsp 64 +
STACK CFI INIT 125ba0 be .cfa: $rsp .ra: .cfa 8 - ^
STACK CFI 125ba0 .cfa: $rsp 64 +
STACK CFI INIT 125c60 be .cfa: $rsp .ra: .cfa 8 - ^
STACK CFI 125c60 .cfa: $rsp 64 +
STACK CFI INIT 125d20 be .cfa: $rsp .ra: .cfa 8 - ^
STACK CFI 125d20 .cfa: $rsp 64 +
STACK CFI INIT 125de0 be .cfa: $rsp .ra: .cfa 8 - ^
STACK CFI 125de0 .cfa: $rsp 64 +
STACK CFI INIT 125ea0 be .cfa: $rsp .ra: .cfa 8 - ^
STACK CFI 125ea0 .cfa: $rsp 64 +
STACK CFI INIT 125f60 be .cfa: $rsp .ra: .cfa 8 - ^
STACK CFI 125f60 .cfa: $rsp 64 +
STACK CFI INIT 126020 be .cfa: $rsp .ra: .cfa 8 - ^
STACK CFI 126020 .cfa: $rsp 64 +
STACK CFI INIT 1260e0 be .cfa: $rsp .ra: .cfa 8 - ^
STACK CFI 1260e0 .cfa: $rsp 64 +
STACK CFI INIT 1261a0 13b .cfa: $rsp .ra: .cfa 8 - ^
STACK CFI 1261a0 .cfa: $rsp 64 +
STACK CFI INIT 1262e0 13b .cfa: $rsp .ra: .cfa 8 - ^
STACK CFI 1262e0 .cfa: $rsp 64 +
STACK CFI INIT 126420 13b .cfa: $rsp .ra: .cfa 8 - ^
STACK CFI 126420 .cfa: $rsp 64 +
STACK CFI INIT 126560 13b .cfa: $rsp .ra: .cfa 8 - ^
STACK CFI 126560 .cfa: $rsp 64 +
STACK CFI INIT 1266a0 13b .cfa: $rsp .ra: .cfa 8 - ^
STACK CFI 1266a0 .cfa: $rsp 64 +
STACK CFI INIT 1267e0 13b .cfa: $rsp .ra: .cfa 8 - ^
STACK CFI 1267e0 .cfa: $rsp 64 +
STACK CFI INIT 126920 13b .cfa: $rsp .ra: .cfa 8 - ^
STACK CFI 126920 .cfa: $rsp 64 +
STACK CFI INIT 126a60 13b .cfa: $rsp .ra: .cfa 8 - ^
STACK CFI 126a60 .cfa: $rsp 64 +
STACK CFI INIT 126ba0 13b .cfa: $rsp .ra: .cfa 8 - ^
STACK CFI 126ba0 .cfa: $rsp 64 +
STACK CFI INIT 126ce0 13b .cfa: $rsp .ra: .cfa 8 - ^
STACK CFI 126ce0 .cfa: $rsp 64 +
STACK CFI INIT 126e20 13b .cfa: $rsp .ra: .cfa 8 - ^
STACK CFI 126e20 .cfa: $rsp 64 +
STACK CFI INIT 126f60 13b .cfa: $rsp .ra: .cfa 8 - ^
STACK CFI 126f60 .cfa: $rsp 64 +
STACK CFI INIT 1270a0 13b .cfa: $rsp .ra: .cfa 8 - ^
STACK CFI 1270a0 .cfa: $rsp 64 +
STACK CFI INIT 1271e0 1ab .cfa: $rsp .ra: .cfa 8 - ^
STACK CFI 1271e0 .cfa: $rsp 64 +
STACK CFI INIT 127390 1ab .cfa: $rsp .ra: .cfa 8 - ^
STACK CFI 127390 .cfa: $rsp 64 +
STACK CFI INIT 127540 1ab .cfa: $rsp .ra: .cfa 8 - ^
STACK CFI 127540 .cfa: $rsp 64 +
STACK CFI INIT 1276f0 1ab .cfa: $rsp .ra: .cfa 8 - ^
STACK CFI 1276f0 .cfa: $rsp 64 +
STACK CFI INIT 1278a0 1ab .cfa: $rsp .ra: .cfa 8 - ^
STACK CFI 1278a0 .cfa: $rsp 64 +
STACK CFI INIT 127a50 1ab .cfa: $rsp .ra: .cfa 8 - ^
STACK CFI 127a50 .cfa: $rsp 64 +
STACK CFI INIT 127c00 22b .cfa: $rsp .ra: .cfa 8 - ^
STACK CFI 127c00 .cfa: $rsp 64 +
STACK CFI INIT 127e30 22b .cfa: $rsp .ra: .cfa 8 - ^
STACK CFI 127e30 .cfa: $rsp 64 +
STACK CFI INIT 128060 1 .cfa: $rsp .ra: .cfa 8 - ^
STACK CFI 128060 .cfa: $rsp 8 +
STACK CFI INIT 128070 a .cfa: $rsp .ra: .cfa 8 - ^
STACK CFI 128070 .cfa: $rsp 8 +
STACK CFI INIT 128080 b .cfa: $rsp .ra: .cfa 8 - ^
STACK CFI 128080 .cfa: $rsp 8 +
STACK CFI INIT 128090 10 .cfa: $rsp .ra: .cfa 8 - ^
STACK CFI 128090 .cfa: $rsp 8 +
STACK CFI INIT 1280a0 19 .cfa: $rsp .ra: .cfa 8 - ^
STACK CFI 1280a0 .cfa: $rsp 8 +
STACK CFI INIT 1280c0 16 .cfa: $rsp .ra: .cfa 8 - ^
STACK CFI 1280c0 .cfa: $rsp 8 +
STACK CFI INIT 1280e0 797 .cfa: $rsp .ra: .cfa 8 - ^
STACK CFI 1280e0 .cfa: $rsp 352 +
STACK CFI INIT 128880 11 .cfa: $rsp .ra: .cfa 8 - ^
STACK CFI 128880 .cfa: $rsp 8 +
STACK CFI INIT 1288a0 11 .cfa: $rsp .ra: .cfa 8 - ^
STACK CFI 1288a0 .cfa: $rsp 8 +
STACK CFI INIT 1288c0 db .cfa: $rsp .ra: .cfa 8 - ^
STACK CFI 1288c0 .cfa: $rsp 64 +
STACK CFI INIT 1289a0 60 .cfa: $rsp .ra: .cfa 8 - ^
STACK CFI 1289a0 .cfa: $rsp 48 +
STACK CFI INIT 128a00 ed .cfa: $rsp .ra: .cfa 8 - ^
STACK CFI 128a00 .cfa: $rsp 64 +
STACK CFI INIT 128af0 7a .cfa: $rsp .ra: .cfa 8 - ^
STACK CFI 128af0 .cfa: $rsp 24 +
STACK CFI INIT 128b70 8 .cfa: $rsp .ra: .cfa 8 - ^
STACK CFI 128b70 .cfa: $rsp 8 +
STACK CFI INIT 128b80 11a3 .cfa: $rsp .ra: .cfa 8 - ^
STACK CFI 128b80 .cfa: $rsp 8 +
STACK CFI INIT 129d30 1d .cfa: $rsp .ra: .cfa 8 - ^
STACK CFI 129d30 .cfa: $rsp 8 +
STACK CFI INIT 129d50 15 .cfa: $rsp .ra: .cfa 8 - ^
STACK CFI 129d50 .cfa: $rsp 8 +
STACK CFI INIT 129d70 26 .cfa: $rsp .ra: .cfa 8 - ^
STACK CFI 129d70 .cfa: $rsp 8 +
STACK CFI INIT 129da0 b .cfa: $rsp .ra: .cfa 8 - ^
STACK CFI 129da0 .cfa: $rsp 8 +
STACK CFI INIT 129db0 1c .cfa: $rsp .ra: .cfa 8 - ^
STACK CFI 129db0 .cfa: $rsp 8 +
STACK CFI INIT 129dd0 b .cfa: $rsp .ra: .cfa 8 - ^
STACK CFI 129dd0 .cfa: $rsp 8 +
STACK CFI INIT 129de0 612 .cfa: $rsp .ra: .cfa 8 - ^
STACK CFI 129de0 .cfa: $rsp 64 +
STACK CFI INIT 12a400 76 .cfa: $rsp .ra: .cfa 8 - ^
STACK CFI 12a400 .cfa: $rsp 8 +
STACK CFI INIT 12a480 d .cfa: $rsp .ra: .cfa 8 - ^
STACK CFI 12a480 .cfa: $rsp 8 +
STACK CFI INIT 12a490 15 .cfa: $rsp .ra: .cfa 8 - ^
STACK CFI 12a490 .cfa: $rsp 8 +
STACK CFI INIT 12a4b0 4c .cfa: $rsp .ra: .cfa 8 - ^
STACK CFI 12a4b0 .cfa: $rsp 48 +
STACK CFI INIT 12a500 a6 .cfa: $rsp .ra: .cfa 8 - ^
STACK CFI 12a500 .cfa: $rsp 48 +
STACK CFI INIT 12a5b0 62 .cfa: $rsp .ra: .cfa 8 - ^
STACK CFI 12a5b0 .cfa: $rsp 80 +
STACK CFI INIT 12a620 99 .cfa: $rsp .ra: .cfa 8 - ^
STACK CFI 12a620 .cfa: $rsp 80 +
STACK CFI INIT 12a6c0 fb7 .cfa: $rsp .ra: .cfa 8 - ^
STACK CFI 12a6c0 .cfa: $rsp 176 +
STACK CFI INIT 12b680 d .cfa: $rsp .ra: .cfa 8 - ^
STACK CFI 12b680 .cfa: $rsp 8 +
STACK CFI INIT 12b690 243 .cfa: $rsp .ra: .cfa 8 - ^
STACK CFI 12b690 .cfa: $rsp 112 +
STACK CFI INIT 12b8e0 23 .cfa: $rsp .ra: .cfa 8 - ^
STACK CFI 12b8e0 .cfa: $rsp 8 +
STACK CFI INIT 12b910 1 .cfa: $rsp .ra: .cfa 8 - ^
STACK CFI 12b910 .cfa: $rsp 8 +
STACK CFI INIT 12b920 1a .cfa: $rsp .ra: .cfa 8 - ^
STACK CFI 12b920 .cfa: $rsp 8 +
STACK CFI INIT 12b940 b4 .cfa: $rsp .ra: .cfa 8 - ^
STACK CFI 12b940 .cfa: $rsp 80 +
STACK CFI INIT 12ba00 7 .cfa: $rsp .ra: .cfa 8 - ^
STACK CFI 12ba00 .cfa: $rsp 8 +
STACK CFI INIT 12c340 35 .cfa: $rsp .ra: .cfa 8 - ^
STACK CFI 12c340 .cfa: $rsp 48 +
STACK CFI INIT 12c380 66 .cfa: $rsp .ra: .cfa 8 - ^
STACK CFI 12c380 .cfa: $rsp 64 +
STACK CFI INIT 12c3f0 1f .cfa: $rsp .ra: .cfa 8 - ^
STACK CFI 12c3f0 .cfa: $rsp 8 +
STACK CFI INIT 12c410 d6 .cfa: $rsp .ra: .cfa 8 - ^
STACK CFI 12c410 .cfa: $rsp 96 +
STACK CFI INIT 12c4f0 f8 .cfa: $rsp .ra: .cfa 8 - ^
STACK CFI 12c4f0 .cfa: $rsp 144 +
STACK CFI INIT 12c5f0 2f .cfa: $rsp .ra: .cfa 8 - ^
STACK CFI 12c5f0 .cfa: $rsp 48 +
STACK CFI INIT 12c620 73 .cfa: $rsp .ra: .cfa 8 - ^
STACK CFI 12c620 .cfa: $rsp 64 +
STACK CFI INIT 12c6a0 3 .cfa: $rsp .ra: .cfa 8 - ^
STACK CFI 12c6a0 .cfa: $rsp 8 +
STACK CFI INIT 12c6b0 4 .cfa: $rsp .ra: .cfa 8 - ^
STACK CFI 12c6b0 .cfa: $rsp 8 +
STACK CFI INIT 12c6c0 4 .cfa: $rsp .ra: .cfa 8 - ^
STACK CFI 12c6c0 .cfa: $rsp 8 +
STACK CFI INIT 12c6d0 1f9 .cfa: $rsp .ra: .cfa 8 - ^
STACK CFI 12c6d0 .cfa: $rsp 128 +
STACK CFI INIT 12c8d0 2bb .cfa: $rsp .ra: .cfa 8 - ^
STACK CFI 12c8d0 .cfa: $rsp 128 +
STACK CFI INIT 12cb90 1a0 .cfa: $rsp .ra: .cfa 8 - ^
STACK CFI 12cb90 .cfa: $rsp 48 +
STACK CFI INIT 12cd30 ec .cfa: $rsp .ra: .cfa 8 - ^
STACK CFI 12cd30 .cfa: $rsp 80 +
STACK CFI INIT 12ce20 1e7 .cfa: $rsp .ra: .cfa 8 - ^
STACK CFI 12ce20 .cfa: $rsp 48 +
STACK CFI INIT 12d010 6a .cfa: $rsp .ra: .cfa 8 - ^
STACK CFI 12d010 .cfa: $rsp 80 +
STACK CFI INIT 12d080 7f .cfa: $rsp .ra: .cfa 8 - ^
STACK CFI 12d080 .cfa: $rsp 80 +
STACK CFI INIT 12d100 a0 .cfa: $rsp .ra: .cfa 8 - ^
STACK CFI 12d100 .cfa: $rsp 48 +
STACK CFI INIT 12d1a0 da .cfa: $rsp .ra: .cfa 8 - ^
STACK CFI 12d1a0 .cfa: $rsp 48 +
STACK CFI INIT 12d280 1e .cfa: $rsp .ra: .cfa 8 - ^
STACK CFI 12d280 .cfa: $rsp 8 +
STACK CFI INIT 12d2a0 12 .cfa: $rsp .ra: .cfa 8 - ^
STACK CFI 12d2a0 .cfa: $rsp 8 +
STACK CFI INIT 12d2c0 44 .cfa: $rsp .ra: .cfa 8 - ^
STACK CFI 12d2c0 .cfa: $rsp 8 +
STACK CFI INIT 12d310 8d .cfa: $rsp .ra: .cfa 8 - ^
STACK CFI 12d310 .cfa: $rsp 64 +
STACK CFI INIT 12d3a0 74 .cfa: $rsp .ra: .cfa 8 - ^
STACK CFI 12d3a0 .cfa: $rsp 48 +
STACK CFI INIT 12d420 3e .cfa: $rsp .ra: .cfa 8 - ^
STACK CFI 12d420 .cfa: $rsp 48 +
STACK CFI INIT 12d460 6f .cfa: $rsp .ra: .cfa 8 - ^
STACK CFI 12d460 .cfa: $rsp 48 +
STACK CFI INIT 12d4d0 37 .cfa: $rsp .ra: .cfa 8 - ^
STACK CFI 12d4d0 .cfa: $rsp 48 +
STACK CFI INIT 12d510 91 .cfa: $rsp .ra: .cfa 8 - ^
STACK CFI 12d510 .cfa: $rsp 48 +
STACK CFI INIT 12d5b0 a6 .cfa: $rsp .ra: .cfa 8 - ^
STACK CFI 12d5b0 .cfa: $rsp 48 +
STACK CFI INIT 12d660 3 .cfa: $rsp .ra: .cfa 8 - ^
STACK CFI 12d660 .cfa: $rsp 8 +
STACK CFI INIT 12d6b0 6 .cfa: $rsp .ra: .cfa 8 - ^
STACK CFI 12d6b0 .cfa: $rsp 8 +
STACK CFI INIT 12d6c0 6 .cfa: $rsp .ra: .cfa 8 - ^
STACK CFI 12d6c0 .cfa: $rsp 8 +
STACK CFI INIT 12d6d0 96 .cfa: $rsp .ra: .cfa 8 - ^
STACK CFI 12d6d0 .cfa: $rsp 32 +
STACK CFI INIT 12d770 138 .cfa: $rsp .ra: .cfa 8 - ^
STACK CFI 12d770 .cfa: $rsp 112 +
STACK CFI INIT 12d8b0 41 .cfa: $rsp .ra: .cfa 8 - ^
STACK CFI 12d8b0 .cfa: $rsp 80 +
STACK CFI INIT 12d900 5c .cfa: $rsp .ra: .cfa 8 - ^
STACK CFI 12d900 .cfa: $rsp 80 +
STACK CFI INIT 12d960 2d .cfa: $rsp .ra: .cfa 8 - ^
STACK CFI 12d960 .cfa: $rsp 64 +
STACK CFI INIT 12d990 29 .cfa: $rsp .ra: .cfa 8 - ^
STACK CFI 12d990 .cfa: $rsp 32 +
STACK CFI INIT 12d9c0 111 .cfa: $rsp .ra: .cfa 8 - ^
STACK CFI 12d9c0 .cfa: $rsp 128 +
STACK CFI INIT 12db10 1c3 .cfa: $rsp .ra: .cfa 8 - ^
STACK CFI 12db10 .cfa: $rsp 112 +
STACK CFI INIT 12dce0 33 .cfa: $rsp .ra: .cfa 8 - ^
STACK CFI 12dce0 .cfa: $rsp 32 +
STACK CFI INIT 12dd20 cb .cfa: $rsp .ra: .cfa 8 - ^
STACK CFI 12dd20 .cfa: $rsp 64 +
STACK CFI INIT 12ddf0 138 .cfa: $rsp .ra: .cfa 8 - ^
STACK CFI 12ddf0 .cfa: $rsp 128 +
STACK CFI INIT 12df30 96 .cfa: $rsp .ra: .cfa 8 - ^
STACK CFI 12df30 .cfa: $rsp 32 +
STACK CFI INIT 12dfd0 5ba .cfa: $rsp .ra: .cfa 8 - ^
STACK CFI 12dfd0 .cfa: $rsp 208 +
STACK CFI INIT 12e590 111 .cfa: $rsp .ra: .cfa 8 - ^
STACK CFI 12e590 .cfa: $rsp 128 +
STACK CFI INIT 12e6f0 27e .cfa: $rsp .ra: .cfa 8 - ^
STACK CFI 12e6f0 .cfa: $rsp 96 +
STACK CFI INIT 12e970 e7 .cfa: $rsp .ra: .cfa 8 - ^
STACK CFI 12e970 .cfa: $rsp 96 +
STACK CFI INIT 12ea60 54 .cfa: $rsp .ra: .cfa 8 - ^
STACK CFI 12ea60 .cfa: $rsp 48 +
STACK CFI INIT 12eac0 10b .cfa: $rsp .ra: .cfa 8 - ^
STACK CFI 12eac0 .cfa: $rsp 128 +
STACK CFI INIT 12ebd0 c9 .cfa: $rsp .ra: .cfa 8 - ^
STACK CFI 12ebd0 .cfa: $rsp 64 +
STACK CFI INIT 12eca0 47 .cfa: $rsp .ra: .cfa 8 - ^
STACK CFI 12eca0 .cfa: $rsp 64 +
STACK CFI INIT 12ecf0 9a .cfa: $rsp .ra: .cfa 8 - ^
STACK CFI 12ecf0 .cfa: $rsp 64 +
STACK CFI INIT 12ed90 f8 .cfa: $rsp .ra: .cfa 8 - ^
STACK CFI 12ed90 .cfa: $rsp 96 +
STACK CFI INIT 12ee90 39e .cfa: $rsp .ra: .cfa 8 - ^
STACK CFI 12ee90 .cfa: $rsp 80 +
STACK CFI INIT 12f230 cf .cfa: $rsp .ra: .cfa 8 - ^
STACK CFI 12f230 .cfa: $rsp 128 +
STACK CFI INIT 12f300 2de .cfa: $rsp .ra: .cfa 8 - ^
STACK CFI 12f300 .cfa: $rsp 96 +
STACK CFI INIT 12f5e0 dc .cfa: $rsp .ra: .cfa 8 - ^
STACK CFI 12f5e0 .cfa: $rsp 64 +
STACK CFI INIT 12f6c0 af .cfa: $rsp .ra: .cfa 8 - ^
STACK CFI 12f6c0 .cfa: $rsp 128 +
STACK CFI INIT 12f770 1a5 .cfa: $rsp .ra: .cfa 8 - ^
STACK CFI 12f770 .cfa: $rsp 144 +
STACK CFI INIT 12f920 34e .cfa: $rsp .ra: .cfa 8 - ^
STACK CFI 12f920 .cfa: $rsp 112 +
STACK CFI INIT 12fc70 4f4 .cfa: $rsp .ra: .cfa 8 - ^
STACK CFI 12fc70 .cfa: $rsp 160 +
STACK CFI INIT 130170 8ff .cfa: $rsp .ra: .cfa 8 - ^
STACK CFI 130170 .cfa: $rsp 240 +
STACK CFI INIT 130bb0 30 .cfa: $rsp .ra: .cfa 8 - ^
STACK CFI 130bb0 .cfa: $rsp 48 +
STACK CFI INIT 130be0 84 .cfa: $rsp .ra: .cfa 8 - ^
STACK CFI 130be0 .cfa: $rsp 64 +
STACK CFI INIT 130c70 1c .cfa: $rsp .ra: .cfa 8 - ^
STACK CFI 130c70 .cfa: $rsp 8 +
STACK CFI INIT 130c90 19c .cfa: $rsp .ra: .cfa 8 - ^
STACK CFI 130c90 .cfa: $rsp 128 +
STACK CFI INIT 130e30 15b9 .cfa: $rsp .ra: .cfa 8 - ^
STACK CFI 130e30 .cfa: $rsp 240 +
STACK CFI INIT 1323f0 f3 .cfa: $rsp .ra: .cfa 8 - ^
STACK CFI 1323f0 .cfa: $rsp 48 +
STACK CFI INIT 1324f0 43 .cfa: $rsp .ra: .cfa 8 - ^
STACK CFI 1324f0 .cfa: $rsp 8 +
STACK CFI INIT 132540 c2 .cfa: $rsp .ra: .cfa 8 - ^
STACK CFI 132540 .cfa: $rsp 64 +
STACK CFI INIT 132610 42 .cfa: $rsp .ra: .cfa 8 - ^
STACK CFI 132610 .cfa: $rsp 48 +
STACK CFI INIT 132660 f5 .cfa: $rsp .ra: .cfa 8 - ^
STACK CFI 132660 .cfa: $rsp 80 +
STACK CFI INIT 132760 63 .cfa: $rsp .ra: .cfa 8 - ^
STACK CFI 132760 .cfa: $rsp 48 +
STACK CFI INIT 1327d0 a9 .cfa: $rsp .ra: .cfa 8 - ^
STACK CFI 1327d0 .cfa: $rsp 80 +
STACK CFI INIT 132880 26 .cfa: $rsp .ra: .cfa 8 - ^
STACK CFI 132880 .cfa: $rsp 48 +
STACK CFI INIT 1328b0 121 .cfa: $rsp .ra: .cfa 8 - ^
STACK CFI 1328b0 .cfa: $rsp 96 +
STACK CFI INIT 1329e0 179 .cfa: $rsp .ra: .cfa 8 - ^
STACK CFI 1329e0 .cfa: $rsp 80 +
STACK CFI INIT 132b60 fe .cfa: $rsp .ra: .cfa 8 - ^
STACK CFI 132b60 .cfa: $rsp 96 +
STACK CFI INIT 132c60 3e .cfa: $rsp .ra: .cfa 8 - ^
STACK CFI 132c60 .cfa: $rsp 8 +
STACK CFI INIT 132ca0 16d .cfa: $rsp .ra: .cfa 8 - ^
STACK CFI 132ca0 .cfa: $rsp 80 +
STACK CFI INIT 132e10 105 .cfa: $rsp .ra: .cfa 8 - ^
STACK CFI 132e10 .cfa: $rsp 32 +
STACK CFI INIT 132f20 118 .cfa: $rsp .ra: .cfa 8 - ^
STACK CFI 132f20 .cfa: $rsp 64 +
STACK CFI INIT 133040 23 .cfa: $rsp .ra: .cfa 8 - ^
STACK CFI 133040 .cfa: $rsp 8 +
STACK CFI INIT 133070 17f .cfa: $rsp .ra: .cfa 8 - ^
STACK CFI 133070 .cfa: $rsp 112 +
STACK CFI INIT 1331f0 66 .cfa: $rsp .ra: .cfa 8 - ^
STACK CFI 1331f0 .cfa: $rsp 128 +
STACK CFI INIT 133260 ed .cfa: $rsp .ra: .cfa 8 - ^
STACK CFI 133260 .cfa: $rsp 128 +
STACK CFI INIT 133350 58 .cfa: $rsp .ra: .cfa 8 - ^
STACK CFI 133350 .cfa: $rsp 112 +
STACK CFI INIT 1333b0 28 .cfa: $rsp .ra: .cfa 8 - ^
STACK CFI 1333b0 .cfa: $rsp 8 +
STACK CFI INIT 1333e0 7f .cfa: $rsp .ra: .cfa 8 - ^
STACK CFI 1333e0 .cfa: $rsp 96 +
STACK CFI INIT 133460 3f .cfa: $rsp .ra: .cfa 8 - ^
STACK CFI 133460 .cfa: $rsp 80 +
STACK CFI INIT 1334a0 fa .cfa: $rsp .ra: .cfa 8 - ^
STACK CFI 1334a0 .cfa: $rsp 112 +
STACK CFI INIT 1335a0 21 .cfa: $rsp .ra: .cfa 8 - ^
STACK CFI 1335a0 .cfa: $rsp 8 +
STACK CFI INIT 133740 25 .cfa: $rsp .ra: .cfa 8 - ^
STACK CFI 133740 .cfa: $rsp 8 +
STACK CFI INIT 133770 c8 .cfa: $rsp .ra: .cfa 8 - ^
STACK CFI 133770 .cfa: $rsp 80 +
STACK CFI INIT 133840 6f .cfa: $rsp .ra: .cfa 8 - ^
STACK CFI 133840 .cfa: $rsp 64 +
STACK CFI INIT 1338b0 1f .cfa: $rsp .ra: .cfa 8 - ^
STACK CFI 1338b0 .cfa: $rsp 48 +
STACK CFI INIT 1338d0 62 .cfa: $rsp .ra: .cfa 8 - ^
STACK CFI 1338d0 .cfa: $rsp 48 +
STACK CFI INIT 133940 5b .cfa: $rsp .ra: .cfa 8 - ^
STACK CFI 133940 .cfa: $rsp 48 +
STACK CFI INIT 133ac0 41 .cfa: $rsp .ra: .cfa 8 - ^
STACK CFI 133ac0 .cfa: $rsp 96 +
STACK CFI INIT 133b10 c .cfa: $rsp .ra: .cfa 8 - ^
STACK CFI 133b10 .cfa: $rsp 8 +
STACK CFI INIT 133b20 fc .cfa: $rsp .ra: .cfa 8 - ^
STACK CFI 133b20 .cfa: $rsp 144 +
STACK CFI INIT 133c30 a3 .cfa: $rsp .ra: .cfa 8 - ^
STACK CFI 133c30 .cfa: $rsp 96 +
STACK CFI INIT 133ce0 1d6 .cfa: $rsp .ra: .cfa 8 - ^
STACK CFI 133ce0 .cfa: $rsp 176 +
STACK CFI INIT 133ec0 15b .cfa: $rsp .ra: .cfa 8 - ^
STACK CFI 133ec0 .cfa: $rsp 160 +
STACK CFI INIT 134020 b2 .cfa: $rsp .ra: .cfa 8 - ^
STACK CFI 134020 .cfa: $rsp 112 +
STACK CFI INIT 1340e0 b2 .cfa: $rsp .ra: .cfa 8 - ^
STACK CFI 1340e0 .cfa: $rsp 112 +
STACK CFI INIT 1341a0 2a .cfa: $rsp .ra: .cfa 8 - ^
STACK CFI 1341a0 .cfa: $rsp 8 +
STACK CFI INIT 1341d0 10e .cfa: $rsp .ra: .cfa 8 - ^
STACK CFI 1341d0 .cfa: $rsp 112 +
STACK CFI INIT 1342e0 6c .cfa: $rsp .ra: .cfa 8 - ^
STACK CFI 1342e0 .cfa: $rsp 96 +
STACK CFI INIT 134350 15c .cfa: $rsp .ra: .cfa 8 - ^
STACK CFI 134350 .cfa: $rsp 128 +
STACK CFI INIT 1344b0 15c .cfa: $rsp .ra: .cfa 8 - ^
STACK CFI 1344b0 .cfa: $rsp 128 +
STACK CFI INIT 134610 6c .cfa: $rsp .ra: .cfa 8 - ^
STACK CFI 134610 .cfa: $rsp 96 +
STACK CFI INIT 134680 5f .cfa: $rsp .ra: .cfa 8 - ^
STACK CFI 134680 .cfa: $rsp 64 +
STACK CFI INIT 1346e0 4f .cfa: $rsp .ra: .cfa 8 - ^
STACK CFI 1346e0 .cfa: $rsp 48 +
STACK CFI INIT 134730 7f .cfa: $rsp .ra: .cfa 8 - ^
STACK CFI 134730 .cfa: $rsp 80 +
STACK CFI INIT 1347b0 118 .cfa: $rsp .ra: .cfa 8 - ^
STACK CFI 1347b0 .cfa: $rsp 96 +
STACK CFI INIT 1348d0 75 .cfa: $rsp .ra: .cfa 8 - ^
STACK CFI 1348d0 .cfa: $rsp 64 +
STACK CFI INIT 134950 40 .cfa: $rsp .ra: .cfa 8 - ^
STACK CFI 134950 .cfa: $rsp 64 +
STACK CFI INIT 134990 10 .cfa: $rsp .ra: .cfa 8 - ^
STACK CFI 134990 .cfa: $rsp 8 +
STACK CFI INIT 1349a0 29 .cfa: $rsp .ra: .cfa 8 - ^
STACK CFI 1349a0 .cfa: $rsp 64 +
STACK CFI INIT 1349d0 e .cfa: $rsp .ra: .cfa 8 - ^
STACK CFI 1349d0 .cfa: $rsp 8 +
STACK CFI INIT 1349e0 d .cfa: $rsp .ra: .cfa 8 - ^
STACK CFI 1349e0 .cfa: $rsp 8 +
STACK CFI INIT 1349f0 10 .cfa: $rsp .ra: .cfa 8 - ^
STACK CFI 1349f0 .cfa: $rsp 8 +
STACK CFI INIT 134a00 29 .cfa: $rsp .ra: .cfa 8 - ^
STACK CFI 134a00 .cfa: $rsp 64 +
STACK CFI INIT 134a30 e .cfa: $rsp .ra: .cfa 8 - ^
STACK CFI 134a30 .cfa: $rsp 8 +
STACK CFI INIT 134a40 d .cfa: $rsp .ra: .cfa 8 - ^
STACK CFI 134a40 .cfa: $rsp 8 +
STACK CFI INIT 134a50 10 .cfa: $rsp .ra: .cfa 8 - ^
STACK CFI 134a50 .cfa: $rsp 8 +
STACK CFI INIT 134a60 29 .cfa: $rsp .ra: .cfa 8 - ^
STACK CFI 134a60 .cfa: $rsp 64 +
STACK CFI INIT 134a90 e .cfa: $rsp .ra: .cfa 8 - ^
STACK CFI 134a90 .cfa: $rsp 8 +
STACK CFI INIT 134aa0 d .cfa: $rsp .ra: .cfa 8 - ^
STACK CFI 134aa0 .cfa: $rsp 8 +
STACK CFI INIT 134ab0 5 .cfa: $rsp .ra: .cfa 8 - ^
STACK CFI 134ab0 .cfa: $rsp 8 +
STACK CFI INIT 134ac0 2e .cfa: $rsp .ra: .cfa 8 - ^
STACK CFI 134ac0 .cfa: $rsp 48 +
STACK CFI INIT 134af0 5 .cfa: $rsp .ra: .cfa 8 - ^
STACK CFI 134af0 .cfa: $rsp 8 +
STACK CFI INIT 134b00 e2 .cfa: $rsp .ra: .cfa 8 - ^
STACK CFI 134b00 .cfa: $rsp 80 +
STACK CFI INIT 134bf0 5 .cfa: $rsp .ra: .cfa 8 - ^
STACK CFI 134bf0 .cfa: $rsp 8 +
STACK CFI INIT 134c00 93 .cfa: $rsp .ra: .cfa 8 - ^
STACK CFI 134c00 .cfa: $rsp 64 +
STACK CFI INIT 134ca0 5 .cfa: $rsp .ra: .cfa 8 - ^
STACK CFI 134ca0 .cfa: $rsp 8 +
STACK CFI INIT 134cb0 93 .cfa: $rsp .ra: .cfa 8 - ^
STACK CFI 134cb0 .cfa: $rsp 64 +
STACK CFI INIT 134d50 1 .cfa: $rsp .ra: .cfa 8 - ^
STACK CFI 134d50 .cfa: $rsp 8 +
STACK CFI INIT 134d60 ac .cfa: $rsp .ra: .cfa 8 - ^
STACK CFI 134d60 .cfa: $rsp 8 +
STACK CFI INIT 134e10 1 .cfa: $rsp .ra: .cfa 8 - ^
STACK CFI 134e10 .cfa: $rsp 8 +
STACK CFI INIT 134e20 f .cfa: $rsp .ra: .cfa 8 - ^
STACK CFI 134e20 .cfa: $rsp 8 +
STACK CFI INIT 134e30 2c .cfa: $rsp .ra: .cfa 8 - ^
STACK CFI 134e30 .cfa: $rsp 64 +
STACK CFI INIT 134e60 2c .cfa: $rsp .ra: .cfa 8 - ^
STACK CFI 134e60 .cfa: $rsp 64 +
STACK CFI INIT 134e90 2c .cfa: $rsp .ra: .cfa 8 - ^
STACK CFI 134e90 .cfa: $rsp 64 +
STACK CFI INIT 134ec0 2c .cfa: $rsp .ra: .cfa 8 - ^
STACK CFI 134ec0 .cfa: $rsp 64 +
STACK CFI INIT 134ef0 2c .cfa: $rsp .ra: .cfa 8 - ^
STACK CFI 134ef0 .cfa: $rsp 64 +
STACK CFI INIT 134f20 2c .cfa: $rsp .ra: .cfa 8 - ^
STACK CFI 134f20 .cfa: $rsp 64 +
STACK CFI INIT 134f50 13 .cfa: $rsp .ra: .cfa 8 - ^
STACK CFI 134f50 .cfa: $rsp 8 +
STACK CFI INIT 134f70 13 .cfa: $rsp .ra: .cfa 8 - ^
STACK CFI 134f70 .cfa: $rsp 8 +
STACK CFI INIT 134f90 13 .cfa: $rsp .ra: .cfa 8 - ^
STACK CFI 134f90 .cfa: $rsp 8 +
STACK CFI INIT 134fb0 18 .cfa: $rsp .ra: .cfa 8 - ^
STACK CFI 134fb0 .cfa: $rsp 8 +
STACK CFI INIT 134fd0 15 .cfa: $rsp .ra: .cfa 8 - ^
STACK CFI 134fd0 .cfa: $rsp 8 +
STACK CFI INIT 134ff0 15 .cfa: $rsp .ra: .cfa 8 - ^
STACK CFI 134ff0 .cfa: $rsp 8 +
STACK CFI INIT 135010 a .cfa: $rsp .ra: .cfa 8 - ^
STACK CFI 135010 .cfa: $rsp 8 +
STACK CFI INIT 135020 a .cfa: $rsp .ra: .cfa 8 - ^
STACK CFI 135020 .cfa: $rsp 8 +
STACK CFI INIT 135030 a .cfa: $rsp .ra: .cfa 8 - ^
STACK CFI 135030 .cfa: $rsp 8 +
STACK CFI INIT 135040 a .cfa: $rsp .ra: .cfa 8 - ^
STACK CFI 135040 .cfa: $rsp 8 +
STACK CFI INIT 135050 1 .cfa: $rsp .ra: .cfa 8 - ^
STACK CFI 135050 .cfa: $rsp 8 +
STACK CFI INIT 135060 fa .cfa: $rsp .ra: .cfa 8 - ^
STACK CFI 135060 .cfa: $rsp 64 +
STACK CFI INIT 135160 67 .cfa: $rsp .ra: .cfa 8 - ^
STACK CFI 135160 .cfa: $rsp 64 +
STACK CFI INIT 1351d0 86 .cfa: $rsp .ra: .cfa 8 - ^
STACK CFI 1351d0 .cfa: $rsp 48 +
STACK CFI INIT 135260 182 .cfa: $rsp .ra: .cfa 8 - ^
STACK CFI 135260 .cfa: $rsp 80 +
STACK CFI INIT 1353f0 10d .cfa: $rsp .ra: .cfa 8 - ^
STACK CFI 1353f0 .cfa: $rsp 64 +
STACK CFI INIT 135500 5a .cfa: $rsp .ra: .cfa 8 - ^
STACK CFI 135500 .cfa: $rsp 48 +
STACK CFI INIT 135560 5a .cfa: $rsp .ra: .cfa 8 - ^
STACK CFI 135560 .cfa: $rsp 48 +
STACK CFI INIT 1355c0 72 .cfa: $rsp .ra: .cfa 8 - ^
STACK CFI 1355c0 .cfa: $rsp 80 +
STACK CFI INIT 135640 ea .cfa: $rsp .ra: .cfa 8 - ^
STACK CFI 135640 .cfa: $rsp 96 +
STACK CFI INIT 135730 5a .cfa: $rsp .ra: .cfa 8 - ^
STACK CFI 135730 .cfa: $rsp 48 +
STACK CFI INIT 135790 fa .cfa: $rsp .ra: .cfa 8 - ^
STACK CFI 135790 .cfa: $rsp 144 +
STACK CFI INIT 135890 6e .cfa: $rsp .ra: .cfa 8 - ^
STACK CFI 135890 .cfa: $rsp 80 +
STACK CFI INIT 135900 ed .cfa: $rsp .ra: .cfa 8 - ^
STACK CFI 135900 .cfa: $rsp 80 +
STACK CFI INIT 1359f0 178 .cfa: $rsp .ra: .cfa 8 - ^
STACK CFI 1359f0 .cfa: $rsp 112 +
STACK CFI INIT 135b70 11a .cfa: $rsp .ra: .cfa 8 - ^
STACK CFI 135b70 .cfa: $rsp 96 +
STACK CFI INIT 135c90 10e .cfa: $rsp .ra: .cfa 8 - ^
STACK CFI 135c90 .cfa: $rsp 80 +
STACK CFI INIT 135da0 80 .cfa: $rsp .ra: .cfa 8 - ^
STACK CFI 135da0 .cfa: $rsp 48 +
STACK CFI INIT 135e20 68 .cfa: $rsp .ra: .cfa 8 - ^
STACK CFI 135e20 .cfa: $rsp 64 +
STACK CFI INIT 135e90 1de .cfa: $rsp .ra: .cfa 8 - ^
STACK CFI 135e90 .cfa: $rsp 96 +
STACK CFI INIT 136070 29 .cfa: $rsp .ra: .cfa 8 - ^
STACK CFI 136070 .cfa: $rsp 48 +
STACK CFI INIT 1360a0 f .cfa: $rsp .ra: .cfa 8 - ^
STACK CFI 1360a0 .cfa: $rsp 8 +
STACK CFI INIT 1360b0 a .cfa: $rsp .ra: .cfa 8 - ^
STACK CFI 1360b0 .cfa: $rsp 8 +
STACK CFI INIT 1360c0 fe .cfa: $rsp .ra: .cfa 8 - ^
STACK CFI 1360c0 .cfa: $rsp 128 +
STACK CFI INIT 1361c0 23 .cfa: $rsp .ra: .cfa 8 - ^
STACK CFI 1361c0 .cfa: $rsp 8 +
STACK CFI INIT 1361f0 1 .cfa: $rsp .ra: .cfa 8 - ^
STACK CFI 1361f0 .cfa: $rsp 8 +
STACK CFI INIT 136200 23 .cfa: $rsp .ra: .cfa 8 - ^
STACK CFI 136200 .cfa: $rsp 8 +
STACK CFI INIT 136230 1 .cfa: $rsp .ra: .cfa 8 - ^
STACK CFI 136230 .cfa: $rsp 8 +
STACK CFI INIT 136240 1 .cfa: $rsp .ra: .cfa 8 - ^
STACK CFI 136240 .cfa: $rsp 8 +
STACK CFI INIT 136250 64 .cfa: $rsp .ra: .cfa 8 - ^
STACK CFI 136250 .cfa: $rsp 64 +
STACK CFI INIT 1362c0 1 .cfa: $rsp .ra: .cfa 8 - ^
STACK CFI 1362c0 .cfa: $rsp 8 +
STACK CFI INIT 1362d0 29 .cfa: $rsp .ra: .cfa 8 - ^
STACK CFI 1362d0 .cfa: $rsp 48 +
STACK CFI INIT 136300 f .cfa: $rsp .ra: .cfa 8 - ^
STACK CFI 136300 .cfa: $rsp 8 +
STACK CFI INIT 136310 100 .cfa: $rsp .ra: .cfa 8 - ^
STACK CFI 136310 .cfa: $rsp 48 +
STACK CFI INIT 136410 a9 .cfa: $rsp .ra: .cfa 8 - ^
STACK CFI 136410 .cfa: $rsp 80 +
STACK CFI INIT 1364c0 2d .cfa: $rsp .ra: .cfa 8 - ^
STACK CFI 1364c0 .cfa: $rsp 48 +
STACK CFI INIT 1364f0 13 .cfa: $rsp .ra: .cfa 8 - ^
STACK CFI 1364f0 .cfa: $rsp 8 +
STACK CFI INIT 136510 a71 .cfa: $rsp .ra: .cfa 8 - ^
STACK CFI 136510 .cfa: $rsp 112 +
STACK CFI INIT 136f90 39 .cfa: $rsp .ra: .cfa 8 - ^
STACK CFI 136f90 .cfa: $rsp 8 +
STACK CFI INIT 136fd0 3e .cfa: $rsp .ra: .cfa 8 - ^
STACK CFI 136fd0 .cfa: $rsp 8 +
STACK CFI INIT 137010 120 .cfa: $rsp .ra: .cfa 8 - ^
STACK CFI 137010 .cfa: $rsp 96 +
STACK CFI INIT 137130 e6 .cfa: $rsp .ra: .cfa 8 - ^
STACK CFI 137130 .cfa: $rsp 96 +
STACK CFI INIT 137220 39 .cfa: $rsp .ra: .cfa 8 - ^
STACK CFI 137220 .cfa: $rsp 8 +
STACK CFI INIT 137260 25 .cfa: $rsp .ra: .cfa 8 - ^
STACK CFI 137260 .cfa: $rsp 8 +
STACK CFI INIT 137290 c5 .cfa: $rsp .ra: .cfa 8 - ^
STACK CFI 137290 .cfa: $rsp 96 +
STACK CFI INIT 137360 13b .cfa: $rsp .ra: .cfa 8 - ^
STACK CFI 137360 .cfa: $rsp 96 +
STACK CFI INIT 1374a0 1 .cfa: $rsp .ra: .cfa 8 - ^
STACK CFI 1374a0 .cfa: $rsp 8 +
STACK CFI INIT 1374b0 16 .cfa: $rsp .ra: .cfa 8 - ^
STACK CFI 1374b0 .cfa: $rsp 8 +
STACK CFI INIT 1374d0 109 .cfa: $rsp .ra: .cfa 8 - ^
STACK CFI 1374d0 .cfa: $rsp 80 +
STACK CFI INIT 1375e0 1 .cfa: $rsp .ra: .cfa 8 - ^
STACK CFI 1375e0 .cfa: $rsp 8 +
STACK CFI INIT 1375f0 1e .cfa: $rsp .ra: .cfa 8 - ^
STACK CFI 1375f0 .cfa: $rsp 8 +
STACK CFI INIT 137610 120 .cfa: $rsp .ra: .cfa 8 - ^
STACK CFI 137610 .cfa: $rsp 96 +
STACK CFI INIT 137730 1 .cfa: $rsp .ra: .cfa 8 - ^
STACK CFI 137730 .cfa: $rsp 8 +
STACK CFI INIT 137740 16 .cfa: $rsp .ra: .cfa 8 - ^
STACK CFI 137740 .cfa: $rsp 8 +
STACK CFI INIT 137760 de .cfa: $rsp .ra: .cfa 8 - ^
STACK CFI 137760 .cfa: $rsp 96 +
STACK CFI INIT 137840 109 .cfa: $rsp .ra: .cfa 8 - ^
STACK CFI 137840 .cfa: $rsp 80 +
STACK CFI INIT 137950 1 .cfa: $rsp .ra: .cfa 8 - ^
STACK CFI 137950 .cfa: $rsp 8 +
STACK CFI INIT 137960 1c .cfa: $rsp .ra: .cfa 8 - ^
STACK CFI 137960 .cfa: $rsp 8 +
STACK CFI INIT 137980 141 .cfa: $rsp .ra: .cfa 8 - ^
STACK CFI 137980 .cfa: $rsp 112 +
STACK CFI INIT 137ad0 1 .cfa: $rsp .ra: .cfa 8 - ^
STACK CFI 137ad0 .cfa: $rsp 8 +
STACK CFI INIT 137ae0 1e .cfa: $rsp .ra: .cfa 8 - ^
STACK CFI 137ae0 .cfa: $rsp 8 +
STACK CFI INIT 137b00 109 .cfa: $rsp .ra: .cfa 8 - ^
STACK CFI 137b00 .cfa: $rsp 80 +
STACK CFI INIT 137c10 ae .cfa: $rsp .ra: .cfa 8 - ^
STACK CFI 137c10 .cfa: $rsp 80 +
STACK CFI INIT 137cc0 171 .cfa: $rsp .ra: .cfa 8 - ^
STACK CFI 137cc0 .cfa: $rsp 112 +
STACK CFI INIT 137e40 58 .cfa: $rsp .ra: .cfa 8 - ^
STACK CFI 137e40 .cfa: $rsp 64 +
STACK CFI INIT 137ea0 1d .cfa: $rsp .ra: .cfa 8 - ^
STACK CFI 137ea0 .cfa: $rsp 8 +
STACK CFI INIT 137ec0 91 .cfa: $rsp .ra: .cfa 8 - ^
STACK CFI 137ec0 .cfa: $rsp 64 +
STACK CFI INIT 137f60 11a .cfa: $rsp .ra: .cfa 8 - ^
STACK CFI 137f60 .cfa: $rsp 64 +
STACK CFI INIT 138080 35 .cfa: $rsp .ra: .cfa 8 - ^
STACK CFI 138080 .cfa: $rsp 64 +
STACK CFI INIT 1380c0 76 .cfa: $rsp .ra: .cfa 8 - ^
STACK CFI 1380c0 .cfa: $rsp 48 +
STACK CFI INIT 138140 18 .cfa: $rsp .ra: .cfa 8 - ^
STACK CFI 138140 .cfa: $rsp 8 +
STACK CFI INIT 138160 d0 .cfa: $rsp .ra: .cfa 8 - ^
STACK CFI 138160 .cfa: $rsp 64 +
STACK CFI INIT 138230 86 .cfa: $rsp .ra: .cfa 8 - ^
STACK CFI 138230 .cfa: $rsp 64 +
STACK CFI INIT 1382c0 1d .cfa: $rsp .ra: .cfa 8 - ^
STACK CFI 1382c0 .cfa: $rsp 8 +
STACK CFI INIT 1382e0 1d .cfa: $rsp .ra: .cfa 8 - ^
STACK CFI 1382e0 .cfa: $rsp 8 +
STACK CFI INIT 138300 13b .cfa: $rsp .ra: .cfa 8 - ^
STACK CFI 138300 .cfa: $rsp 128 +
STACK CFI INIT 138440 58 .cfa: $rsp .ra: .cfa 8 - ^
STACK CFI 138440 .cfa: $rsp 64 +
STACK CFI INIT 1384a0 1d .cfa: $rsp .ra: .cfa 8 - ^
STACK CFI 1384a0 .cfa: $rsp 8 +
STACK CFI INIT 1384c0 92 .cfa: $rsp .ra: .cfa 8 - ^
STACK CFI 1384c0 .cfa: $rsp 80 +
STACK CFI INIT 138560 10a .cfa: $rsp .ra: .cfa 8 - ^
STACK CFI 138560 .cfa: $rsp 112 +
STACK CFI INIT 138670 1d .cfa: $rsp .ra: .cfa 8 - ^
STACK CFI 138670 .cfa: $rsp 8 +
STACK CFI INIT 138690 151 .cfa: $rsp .ra: .cfa 8 - ^
STACK CFI 138690 .cfa: $rsp 112 +
STACK CFI INIT 1387f0 92 .cfa: $rsp .ra: .cfa 8 - ^
STACK CFI 1387f0 .cfa: $rsp 80 +
STACK CFI INIT 138890 11a .cfa: $rsp .ra: .cfa 8 - ^
STACK CFI 138890 .cfa: $rsp 96 +
STACK CFI INIT 1389b0 85 .cfa: $rsp .ra: .cfa 8 - ^
STACK CFI 1389b0 .cfa: $rsp 64 +
STACK CFI INIT 138a40 100 .cfa: $rsp .ra: .cfa 8 - ^
STACK CFI 138a40 .cfa: $rsp 80 +
STACK CFI INIT 138b40 b5 .cfa: $rsp .ra: .cfa 8 - ^
STACK CFI 138b40 .cfa: $rsp 80 +
STACK CFI INIT 138c00 f0 .cfa: $rsp .ra: .cfa 8 - ^
STACK CFI 138c00 .cfa: $rsp 80 +
STACK CFI INIT 138cf0 75 .cfa: $rsp .ra: .cfa 8 - ^
STACK CFI 138cf0 .cfa: $rsp 64 +
STACK CFI INIT 138d70 1f .cfa: $rsp .ra: .cfa 8 - ^
STACK CFI 138d70 .cfa: $rsp 8 +
STACK CFI INIT 138d90 f0 .cfa: $rsp .ra: .cfa 8 - ^
STACK CFI 138d90 .cfa: $rsp 80 +
STACK CFI INIT 138e80 41 .cfa: $rsp .ra: .cfa 8 - ^
STACK CFI 138e80 .cfa: $rsp 48 +
STACK CFI INIT 138ed0 1f .cfa: $rsp .ra: .cfa 8 - ^
STACK CFI 138ed0 .cfa: $rsp 8 +
STACK CFI INIT 138ef0 a .cfa: $rsp .ra: .cfa 8 - ^
STACK CFI 138ef0 .cfa: $rsp 8 +
STACK CFI INIT 138f00 1 .cfa: $rsp .ra: .cfa 8 - ^
STACK CFI 138f00 .cfa: $rsp 8 +
STACK CFI INIT 138f10 a .cfa: $rsp .ra: .cfa 8 - ^
STACK CFI 138f10 .cfa: $rsp 8 +
STACK CFI INIT 138f20 1 .cfa: $rsp .ra: .cfa 8 - ^
STACK CFI 138f20 .cfa: $rsp 8 +
STACK CFI INIT 138f30 fd .cfa: $rsp .ra: .cfa 8 - ^
STACK CFI 138f30 .cfa: $rsp 160 +
STACK CFI INIT 139030 3b .cfa: $rsp .ra: .cfa 8 - ^
STACK CFI 139030 .cfa: $rsp 64 +
STACK CFI INIT 139070 a .cfa: $rsp .ra: .cfa 8 - ^
STACK CFI 139070 .cfa: $rsp 8 +
STACK CFI INIT 139080 1 .cfa: $rsp .ra: .cfa 8 - ^
STACK CFI 139080 .cfa: $rsp 8 +
STACK CFI INIT 139090 94 .cfa: $rsp .ra: .cfa 8 - ^
STACK CFI 139090 .cfa: $rsp 64 +
STACK CFI INIT 139130 88 .cfa: $rsp .ra: .cfa 8 - ^
STACK CFI 139130 .cfa: $rsp 64 +
STACK CFI INIT 1391c0 a .cfa: $rsp .ra: .cfa 8 - ^
STACK CFI 1391c0 .cfa: $rsp 8 +
STACK CFI INIT 1391d0 1 .cfa: $rsp .ra: .cfa 8 - ^
STACK CFI 1391d0 .cfa: $rsp 8 +
STACK CFI INIT 1391e0 94 .cfa: $rsp .ra: .cfa 8 - ^
STACK CFI 1391e0 .cfa: $rsp 64 +
STACK CFI INIT 139280 88 .cfa: $rsp .ra: .cfa 8 - ^
STACK CFI 139280 .cfa: $rsp 64 +
STACK CFI INIT 139310 a .cfa: $rsp .ra: .cfa 8 - ^
STACK CFI 139310 .cfa: $rsp 8 +
STACK CFI INIT 139320 1 .cfa: $rsp .ra: .cfa 8 - ^
STACK CFI 139320 .cfa: $rsp 8 +
STACK CFI INIT 139330 a .cfa: $rsp .ra: .cfa 8 - ^
STACK CFI 139330 .cfa: $rsp 8 +
STACK CFI INIT 139340 1 .cfa: $rsp .ra: .cfa 8 - ^
STACK CFI 139340 .cfa: $rsp 8 +
STACK CFI INIT 139350 a .cfa: $rsp .ra: .cfa 8 - ^
STACK CFI 139350 .cfa: $rsp 8 +
STACK CFI INIT 139360 1 .cfa: $rsp .ra: .cfa 8 - ^
STACK CFI 139360 .cfa: $rsp 8 +
STACK CFI INIT 139370 a .cfa: $rsp .ra: .cfa 8 - ^
STACK CFI 139370 .cfa: $rsp 8 +
STACK CFI INIT 139380 1 .cfa: $rsp .ra: .cfa 8 - ^
STACK CFI 139380 .cfa: $rsp 8 +
STACK CFI INIT 139390 a .cfa: $rsp .ra: .cfa 8 - ^
STACK CFI 139390 .cfa: $rsp 8 +
STACK CFI INIT 1393a0 1 .cfa: $rsp .ra: .cfa 8 - ^
STACK CFI 1393a0 .cfa: $rsp 8 +
STACK CFI INIT 1393b0 a .cfa: $rsp .ra: .cfa 8 - ^
STACK CFI 1393b0 .cfa: $rsp 8 +
STACK CFI INIT 1393c0 1 .cfa: $rsp .ra: .cfa 8 - ^
STACK CFI 1393c0 .cfa: $rsp 8 +
STACK CFI INIT 1393d0 14b .cfa: $rsp .ra: .cfa 8 - ^
STACK CFI 1393d0 .cfa: $rsp 128 +
STACK CFI INIT 139520 1bd .cfa: $rsp .ra: .cfa 8 - ^
STACK CFI 139520 .cfa: $rsp 144 +
STACK CFI INIT 1396e0 124 .cfa: $rsp .ra: .cfa 8 - ^
STACK CFI 1396e0 .cfa: $rsp 112 +
STACK CFI INIT 139810 1bd .cfa: $rsp .ra: .cfa 8 - ^
STACK CFI 139810 .cfa: $rsp 144 +
STACK CFI INIT 1399d0 15b .cfa: $rsp .ra: .cfa 8 - ^
STACK CFI 1399d0 .cfa: $rsp 128 +
STACK CFI INIT 139b30 134 .cfa: $rsp .ra: .cfa 8 - ^
STACK CFI 139b30 .cfa: $rsp 112 +
STACK CFI INIT 139c70 15b .cfa: $rsp .ra: .cfa 8 - ^
STACK CFI 139c70 .cfa: $rsp 128 +
STACK CFI INIT 139dd0 15b .cfa: $rsp .ra: .cfa 8 - ^
STACK CFI 139dd0 .cfa: $rsp 128 +
STACK CFI INIT 139f30 22a .cfa: $rsp .ra: .cfa 8 - ^
STACK CFI 139f30 .cfa: $rsp 144 +
STACK CFI INIT 13a160 257 .cfa: $rsp .ra: .cfa 8 - ^
STACK CFI 13a160 .cfa: $rsp 160 +
STACK CFI INIT 13a3c0 2c9 .cfa: $rsp .ra: .cfa 8 - ^
STACK CFI 13a3c0 .cfa: $rsp 176 +
STACK CFI INIT 13a690 134 .cfa: $rsp .ra: .cfa 8 - ^
STACK CFI 13a690 .cfa: $rsp 112 +
STACK CFI INIT 13a7d0 15b .cfa: $rsp .ra: .cfa 8 - ^
STACK CFI 13a7d0 .cfa: $rsp 128 +
STACK CFI INIT 13a930 15b .cfa: $rsp .ra: .cfa 8 - ^
STACK CFI 13a930 .cfa: $rsp 128 +
STACK CFI INIT 13aa90 a .cfa: $rsp .ra: .cfa 8 - ^
STACK CFI 13aa90 .cfa: $rsp 8 +
STACK CFI INIT 13aaa0 1 .cfa: $rsp .ra: .cfa 8 - ^
STACK CFI 13aaa0 .cfa: $rsp 8 +
STACK CFI INIT 13aab0 a .cfa: $rsp .ra: .cfa 8 - ^
STACK CFI 13aab0 .cfa: $rsp 8 +
STACK CFI INIT 13aac0 1 .cfa: $rsp .ra: .cfa 8 - ^
STACK CFI 13aac0 .cfa: $rsp 8 +
STACK CFI INIT 13aad0 a .cfa: $rsp .ra: .cfa 8 - ^
STACK CFI 13aad0 .cfa: $rsp 8 +
STACK CFI INIT 13aae0 1 .cfa: $rsp .ra: .cfa 8 - ^
STACK CFI 13aae0 .cfa: $rsp 8 +
STACK CFI INIT 13aaf0 1ce .cfa: $rsp .ra: .cfa 8 - ^
STACK CFI 13aaf0 .cfa: $rsp 96 +
STACK CFI INIT 13acc0 be .cfa: $rsp .ra: .cfa 8 - ^
STACK CFI 13acc0 .cfa: $rsp 64 +
STACK CFI INIT 13ad80 ba .cfa: $rsp .ra: .cfa 8 - ^
STACK CFI 13ad80 .cfa: $rsp 64 +
STACK CFI INIT 13ae40 50 .cfa: $rsp .ra: .cfa 8 - ^
STACK CFI 13ae40 .cfa: $rsp 8 +
STACK CFI INIT 13ae90 69 .cfa: $rsp .ra: .cfa 8 - ^
STACK CFI 13ae90 .cfa: $rsp 32 +
STACK CFI INIT 13af00 a .cfa: $rsp .ra: .cfa 8 - ^
STACK CFI 13af00 .cfa: $rsp 8 +
STACK CFI INIT 13af10 1 .cfa: $rsp .ra: .cfa 8 - ^
STACK CFI 13af10 .cfa: $rsp 8 +
STACK CFI INIT 13af20 cb .cfa: $rsp .ra: .cfa 8 - ^
STACK CFI 13af20 .cfa: $rsp 64 +
STACK CFI INIT 13aff0 cb .cfa: $rsp .ra: .cfa 8 - ^
STACK CFI 13aff0 .cfa: $rsp 48 +
STACK CFI INIT 13b0c0 a .cfa: $rsp .ra: .cfa 8 - ^
STACK CFI 13b0c0 .cfa: $rsp 8 +
STACK CFI INIT 13b0d0 1 .cfa: $rsp .ra: .cfa 8 - ^
STACK CFI 13b0d0 .cfa: $rsp 8 +
STACK CFI INIT 13b0e0 32 .cfa: $rsp .ra: .cfa 8 - ^
STACK CFI 13b0e0 .cfa: $rsp 48 +
STACK CFI INIT 13b120 a .cfa: $rsp .ra: .cfa 8 - ^
STACK CFI 13b120 .cfa: $rsp 8 +
STACK CFI INIT 13b130 1 .cfa: $rsp .ra: .cfa 8 - ^
STACK CFI 13b130 .cfa: $rsp 8 +
STACK CFI INIT 13b140 1cd .cfa: $rsp .ra: .cfa 8 - ^
STACK CFI 13b140 .cfa: $rsp 112 +
STACK CFI INIT 13b310 a .cfa: $rsp .ra: .cfa 8 - ^
STACK CFI 13b310 .cfa: $rsp 8 +
STACK CFI INIT 13b320 1 .cfa: $rsp .ra: .cfa 8 - ^
STACK CFI 13b320 .cfa: $rsp 8 +
STACK CFI INIT 13b330 a .cfa: $rsp .ra: .cfa 8 - ^
STACK CFI 13b330 .cfa: $rsp 8 +
STACK CFI INIT 13b340 1 .cfa: $rsp .ra: .cfa 8 - ^
STACK CFI 13b340 .cfa: $rsp 8 +
STACK CFI INIT 13b350 dd .cfa: $rsp .ra: .cfa 8 - ^
STACK CFI 13b350 .cfa: $rsp 64 +
STACK CFI INIT 13b430 d9 .cfa: $rsp .ra: .cfa 8 - ^
STACK CFI 13b430 .cfa: $rsp 64 +
STACK CFI INIT 13b510 a .cfa: $rsp .ra: .cfa 8 - ^
STACK CFI 13b510 .cfa: $rsp 8 +
STACK CFI INIT 13b520 1 .cfa: $rsp .ra: .cfa 8 - ^
STACK CFI 13b520 .cfa: $rsp 8 +
STACK CFI INIT 13b530 a .cfa: $rsp .ra: .cfa 8 - ^
STACK CFI 13b530 .cfa: $rsp 8 +
STACK CFI INIT 13b540 1 .cfa: $rsp .ra: .cfa 8 - ^
STACK CFI 13b540 .cfa: $rsp 8 +
STACK CFI INIT 13b550 a .cfa: $rsp .ra: .cfa 8 - ^
STACK CFI 13b550 .cfa: $rsp 8 +
STACK CFI INIT 13b560 1 .cfa: $rsp .ra: .cfa 8 - ^
STACK CFI 13b560 .cfa: $rsp 8 +
STACK CFI INIT 13b570 e6 .cfa: $rsp .ra: .cfa 8 - ^
STACK CFI 13b570 .cfa: $rsp 96 +
STACK CFI INIT 13b660 1 .cfa: $rsp .ra: .cfa 8 - ^
STACK CFI 13b660 .cfa: $rsp 8 +
STACK CFI INIT 13b670 a .cfa: $rsp .ra: .cfa 8 - ^
STACK CFI 13b670 .cfa: $rsp 8 +
STACK CFI INIT 13b680 1 .cfa: $rsp .ra: .cfa 8 - ^
STACK CFI 13b680 .cfa: $rsp 8 +
STACK CFI INIT 13b690 94 .cfa: $rsp .ra: .cfa 8 - ^
STACK CFI 13b690 .cfa: $rsp 64 +
STACK CFI INIT 13b730 88 .cfa: $rsp .ra: .cfa 8 - ^
STACK CFI 13b730 .cfa: $rsp 64 +
STACK CFI INIT 13b7c0 d5 .cfa: $rsp .ra: .cfa 8 - ^
STACK CFI 13b7c0 .cfa: $rsp 80 +
STACK CFI INIT 13b8a0 94 .cfa: $rsp .ra: .cfa 8 - ^
STACK CFI 13b8a0 .cfa: $rsp 64 +
STACK CFI INIT 13b940 88 .cfa: $rsp .ra: .cfa 8 - ^
STACK CFI 13b940 .cfa: $rsp 64 +
STACK CFI INIT 13b9d0 a .cfa: $rsp .ra: .cfa 8 - ^
STACK CFI 13b9d0 .cfa: $rsp 8 +
STACK CFI INIT 13b9e0 1 .cfa: $rsp .ra: .cfa 8 - ^
STACK CFI 13b9e0 .cfa: $rsp 8 +
STACK CFI INIT 13b9f0 94 .cfa: $rsp .ra: .cfa 8 - ^
STACK CFI 13b9f0 .cfa: $rsp 64 +
STACK CFI INIT 13ba90 88 .cfa: $rsp .ra: .cfa 8 - ^
STACK CFI 13ba90 .cfa: $rsp 64 +
STACK CFI INIT 13bb20 a .cfa: $rsp .ra: .cfa 8 - ^
STACK CFI 13bb20 .cfa: $rsp 8 +
STACK CFI INIT 13bb30 1 .cfa: $rsp .ra: .cfa 8 - ^
STACK CFI 13bb30 .cfa: $rsp 8 +
STACK CFI INIT 13bb40 dd .cfa: $rsp .ra: .cfa 8 - ^
STACK CFI 13bb40 .cfa: $rsp 64 +
STACK CFI INIT 13bc20 d9 .cfa: $rsp .ra: .cfa 8 - ^
STACK CFI 13bc20 .cfa: $rsp 64 +
STACK CFI INIT 13bd00 a .cfa: $rsp .ra: .cfa 8 - ^
STACK CFI 13bd00 .cfa: $rsp 8 +
STACK CFI INIT 13bd10 1 .cfa: $rsp .ra: .cfa 8 - ^
STACK CFI 13bd10 .cfa: $rsp 8 +
STACK CFI INIT 13bd20 94 .cfa: $rsp .ra: .cfa 8 - ^
STACK CFI 13bd20 .cfa: $rsp 64 +
STACK CFI INIT 13bdc0 88 .cfa: $rsp .ra: .cfa 8 - ^
STACK CFI 13bdc0 .cfa: $rsp 64 +
STACK CFI INIT 13be50 e3 .cfa: $rsp .ra: .cfa 8 - ^
STACK CFI 13be50 .cfa: $rsp 96 +
STACK CFI INIT 13bf40 d6 .cfa: $rsp .ra: .cfa 8 - ^
STACK CFI 13bf40 .cfa: $rsp 96 +
STACK CFI INIT 13c020 a .cfa: $rsp .ra: .cfa 8 - ^
STACK CFI 13c020 .cfa: $rsp 8 +
STACK CFI INIT 13c030 1 .cfa: $rsp .ra: .cfa 8 - ^
STACK CFI 13c030 .cfa: $rsp 8 +
STACK CFI INIT 13c040 94 .cfa: $rsp .ra: .cfa 8 - ^
STACK CFI 13c040 .cfa: $rsp 64 +
STACK CFI INIT 13c0e0 88 .cfa: $rsp .ra: .cfa 8 - ^
STACK CFI 13c0e0 .cfa: $rsp 64 +
STACK CFI INIT 13c170 a .cfa: $rsp .ra: .cfa 8 - ^
STACK CFI 13c170 .cfa: $rsp 8 +
STACK CFI INIT 13c180 1 .cfa: $rsp .ra: .cfa 8 - ^
STACK CFI 13c180 .cfa: $rsp 8 +
STACK CFI INIT 13c190 a .cfa: $rsp .ra: .cfa 8 - ^
STACK CFI 13c190 .cfa: $rsp 8 +
STACK CFI INIT 13c1a0 1 .cfa: $rsp .ra: .cfa 8 - ^
STACK CFI 13c1a0 .cfa: $rsp 8 +
STACK CFI INIT 13c1b0 a .cfa: $rsp .ra: .cfa 8 - ^
STACK CFI 13c1b0 .cfa: $rsp 8 +
STACK CFI INIT 13c1c0 1 .cfa: $rsp .ra: .cfa 8 - ^
STACK CFI 13c1c0 .cfa: $rsp 8 +
STACK CFI INIT 13c1d0 5 .cfa: $rsp .ra: .cfa 8 - ^
STACK CFI 13c1d0 .cfa: $rsp 8 +
STACK CFI INIT 13c1e0 a .cfa: $rsp .ra: .cfa 8 - ^
STACK CFI 13c1e0 .cfa: $rsp 8 +
STACK CFI INIT 13c1f0 1 .cfa: $rsp .ra: .cfa 8 - ^
STACK CFI 13c1f0 .cfa: $rsp 8 +
STACK CFI INIT 13c200 29 .cfa: $rsp .ra: .cfa 8 - ^
STACK CFI 13c200 .cfa: $rsp 48 +
STACK CFI INIT 13c230 f .cfa: $rsp .ra: .cfa 8 - ^
STACK CFI 13c230 .cfa: $rsp 8 +
STACK CFI INIT 13c240 a .cfa: $rsp .ra: .cfa 8 - ^
STACK CFI 13c240 .cfa: $rsp 8 +
STACK CFI INIT 13c250 1 .cfa: $rsp .ra: .cfa 8 - ^
STACK CFI 13c250 .cfa: $rsp 8 +
STACK CFI INIT 13c260 94 .cfa: $rsp .ra: .cfa 8 - ^
STACK CFI 13c260 .cfa: $rsp 64 +
STACK CFI INIT 13c300 88 .cfa: $rsp .ra: .cfa 8 - ^
STACK CFI 13c300 .cfa: $rsp 64 +
STACK CFI INIT 13c390 4 .cfa: $rsp .ra: .cfa 8 - ^
STACK CFI 13c390 .cfa: $rsp 8 +
STACK CFI INIT 13c3a0 1 .cfa: $rsp .ra: .cfa 8 - ^
STACK CFI 13c3a0 .cfa: $rsp 8 +
STACK CFI INIT 13c3b0 a .cfa: $rsp .ra: .cfa 8 - ^
STACK CFI 13c3b0 .cfa: $rsp 8 +
STACK CFI INIT 13c3c0 1 .cfa: $rsp .ra: .cfa 8 - ^
STACK CFI 13c3c0 .cfa: $rsp 8 +
STACK CFI INIT 13c3d0 2dc .cfa: $rsp .ra: .cfa 8 - ^
STACK CFI 13c3d0 .cfa: $rsp 96 +
STACK CFI INIT 13c6b0 249 .cfa: $rsp .ra: .cfa 8 - ^
STACK CFI 13c6b0 .cfa: $rsp 144 +
STACK CFI INIT 13c900 49 .cfa: $rsp .ra: .cfa 8 - ^
STACK CFI 13c900 .cfa: $rsp 80 +
STACK CFI INIT 13c950 a .cfa: $rsp .ra: .cfa 8 - ^
STACK CFI 13c950 .cfa: $rsp 8 +
STACK CFI INIT 13c960 1 .cfa: $rsp .ra: .cfa 8 - ^
STACK CFI 13c960 .cfa: $rsp 8 +
STACK CFI INIT 13c970 165 .cfa: $rsp .ra: .cfa 8 - ^
STACK CFI 13c970 .cfa: $rsp 96 +
STACK CFI INIT 13cae0 143 .cfa: $rsp .ra: .cfa 8 - ^
STACK CFI 13cae0 .cfa: $rsp 96 +
STACK CFI INIT 13cc30 a .cfa: $rsp .ra: .cfa 8 - ^
STACK CFI 13cc30 .cfa: $rsp 8 +
STACK CFI INIT 13cc40 1 .cfa: $rsp .ra: .cfa 8 - ^
STACK CFI 13cc40 .cfa: $rsp 8 +
STACK CFI INIT 13cc50 a .cfa: $rsp .ra: .cfa 8 - ^
STACK CFI 13cc50 .cfa: $rsp 8 +
STACK CFI INIT 13cc60 1 .cfa: $rsp .ra: .cfa 8 - ^
STACK CFI 13cc60 .cfa: $rsp 8 +
STACK CFI INIT 13cc70 4c .cfa: $rsp .ra: .cfa 8 - ^
STACK CFI 13cc70 .cfa: $rsp 48 +
STACK CFI INIT 13ccc0 35 .cfa: $rsp .ra: .cfa 8 - ^
STACK CFI 13ccc0 .cfa: $rsp 8 +
STACK CFI INIT 13cd00 a .cfa: $rsp .ra: .cfa 8 - ^
STACK CFI 13cd00 .cfa: $rsp 8 +
STACK CFI INIT 13cd10 1 .cfa: $rsp .ra: .cfa 8 - ^
STACK CFI 13cd10 .cfa: $rsp 8 +
STACK CFI INIT 13cd20 a .cfa: $rsp .ra: .cfa 8 - ^
STACK CFI 13cd20 .cfa: $rsp 8 +
STACK CFI INIT 13cd30 1 .cfa: $rsp .ra: .cfa 8 - ^
STACK CFI 13cd30 .cfa: $rsp 8 +
STACK CFI INIT 13cd40 94 .cfa: $rsp .ra: .cfa 8 - ^
STACK CFI 13cd40 .cfa: $rsp 64 +
STACK CFI INIT 13cde0 88 .cfa: $rsp .ra: .cfa 8 - ^
STACK CFI 13cde0 .cfa: $rsp 64 +
STACK CFI INIT 13ce70 a .cfa: $rsp .ra: .cfa 8 - ^
STACK CFI 13ce70 .cfa: $rsp 8 +
STACK CFI INIT 13ce80 1 .cfa: $rsp .ra: .cfa 8 - ^
STACK CFI 13ce80 .cfa: $rsp 8 +
STACK CFI INIT 13ce90 a .cfa: $rsp .ra: .cfa 8 - ^
STACK CFI 13ce90 .cfa: $rsp 8 +
STACK CFI INIT 13cea0 1 .cfa: $rsp .ra: .cfa 8 - ^
STACK CFI 13cea0 .cfa: $rsp 8 +
STACK CFI INIT 13ceb0 91 .cfa: $rsp .ra: .cfa 8 - ^
STACK CFI 13ceb0 .cfa: $rsp 96 +
STACK CFI INIT 13cf50 89 .cfa: $rsp .ra: .cfa 8 - ^
STACK CFI 13cf50 .cfa: $rsp 96 +
STACK CFI INIT 13cfe0 1be .cfa: $rsp .ra: .cfa 8 - ^
STACK CFI 13cfe0 .cfa: $rsp 96 +
STACK CFI INIT 13d1a0 94 .cfa: $rsp .ra: .cfa 8 - ^
STACK CFI 13d1a0 .cfa: $rsp 64 +
STACK CFI INIT 13d240 88 .cfa: $rsp .ra: .cfa 8 - ^
STACK CFI 13d240 .cfa: $rsp 64 +
STACK CFI INIT 13d2d0 94 .cfa: $rsp .ra: .cfa 8 - ^
STACK CFI 13d2d0 .cfa: $rsp 64 +
STACK CFI INIT 13d370 88 .cfa: $rsp .ra: .cfa 8 - ^
STACK CFI 13d370 .cfa: $rsp 64 +
STACK CFI INIT 13d400 94 .cfa: $rsp .ra: .cfa 8 - ^
STACK CFI 13d400 .cfa: $rsp 64 +
STACK CFI INIT 13d4a0 88 .cfa: $rsp .ra: .cfa 8 - ^
STACK CFI 13d4a0 .cfa: $rsp 64 +
STACK CFI INIT 13d530 4c .cfa: $rsp .ra: .cfa 8 - ^
STACK CFI 13d530 .cfa: $rsp 48 +
STACK CFI INIT 13d580 35 .cfa: $rsp .ra: .cfa 8 - ^
STACK CFI 13d580 .cfa: $rsp 8 +
STACK CFI INIT 13d5c0 4c .cfa: $rsp .ra: .cfa 8 - ^
STACK CFI 13d5c0 .cfa: $rsp 48 +
STACK CFI INIT 13d610 35 .cfa: $rsp .ra: .cfa 8 - ^
STACK CFI 13d610 .cfa: $rsp 8 +
STACK CFI INIT 13d650 a .cfa: $rsp .ra: .cfa 8 - ^
STACK CFI 13d650 .cfa: $rsp 8 +
STACK CFI INIT 13d660 1 .cfa: $rsp .ra: .cfa 8 - ^
STACK CFI 13d660 .cfa: $rsp 8 +
STACK CFI INIT 13d670 94 .cfa: $rsp .ra: .cfa 8 - ^
STACK CFI 13d670 .cfa: $rsp 64 +
STACK CFI INIT 13d710 88 .cfa: $rsp .ra: .cfa 8 - ^
STACK CFI 13d710 .cfa: $rsp 64 +
STACK CFI INIT 13d7a0 a .cfa: $rsp .ra: .cfa 8 - ^
STACK CFI 13d7a0 .cfa: $rsp 8 +
STACK CFI INIT 13d7b0 1 .cfa: $rsp .ra: .cfa 8 - ^
STACK CFI 13d7b0 .cfa: $rsp 8 +
STACK CFI INIT 13d7c0 94 .cfa: $rsp .ra: .cfa 8 - ^
STACK CFI 13d7c0 .cfa: $rsp 64 +
STACK CFI INIT 13d860 88 .cfa: $rsp .ra: .cfa 8 - ^
STACK CFI 13d860 .cfa: $rsp 64 +
STACK CFI INIT 13d8f0 a .cfa: $rsp .ra: .cfa 8 - ^
STACK CFI 13d8f0 .cfa: $rsp 8 +
STACK CFI INIT 13d900 1 .cfa: $rsp .ra: .cfa 8 - ^
STACK CFI 13d900 .cfa: $rsp 8 +
STACK CFI INIT 13d910 a .cfa: $rsp .ra: .cfa 8 - ^
STACK CFI 13d910 .cfa: $rsp 8 +
STACK CFI INIT 13d920 1 .cfa: $rsp .ra: .cfa 8 - ^
STACK CFI 13d920 .cfa: $rsp 8 +
STACK CFI INIT 13d930 94 .cfa: $rsp .ra: .cfa 8 - ^
STACK CFI 13d930 .cfa: $rsp 64 +
STACK CFI INIT 13d9d0 88 .cfa: $rsp .ra: .cfa 8 - ^
STACK CFI 13d9d0 .cfa: $rsp 64 +
STACK CFI INIT 13da60 94 .cfa: $rsp .ra: .cfa 8 - ^
STACK CFI 13da60 .cfa: $rsp 64 +
STACK CFI INIT 13db00 88 .cfa: $rsp .ra: .cfa 8 - ^
STACK CFI 13db00 .cfa: $rsp 64 +
STACK CFI INIT 13db90 94 .cfa: $rsp .ra: .cfa 8 - ^
STACK CFI 13db90 .cfa: $rsp 64 +
STACK CFI INIT 13dc30 88 .cfa: $rsp .ra: .cfa 8 - ^
STACK CFI 13dc30 .cfa: $rsp 64 +
STACK CFI INIT 13dcc0 1c1 .cfa: $rsp .ra: .cfa 8 - ^
STACK CFI 13dcc0 .cfa: $rsp 80 +
STACK CFI INIT 13de90 1c1 .cfa: $rsp .ra: .cfa 8 - ^
STACK CFI 13de90 .cfa: $rsp 80 +
STACK CFI INIT 13e060 33 .cfa: $rsp .ra: .cfa 8 - ^
STACK CFI 13e060 .cfa: $rsp 8 +
STACK CFI INIT 13e0a0 249 .cfa: $rsp .ra: .cfa 8 - ^
STACK CFI 13e0a0 .cfa: $rsp 160 +
STACK CFI INIT 13e2f0 324 .cfa: $rsp .ra: .cfa 8 - ^
STACK CFI 13e2f0 .cfa: $rsp 176 +
STACK CFI INIT 13e620 66e .cfa: $rsp .ra: .cfa 8 - ^
STACK CFI 13e620 .cfa: $rsp 176 +
STACK CFI INIT 13ec90 e7 .cfa: $rsp .ra: .cfa 8 - ^
STACK CFI 13ec90 .cfa: $rsp 128 +
STACK CFI INIT 13ed80 37 .cfa: $rsp .ra: .cfa 8 - ^
STACK CFI 13ed80 .cfa: $rsp 8 +
STACK CFI INIT 13edc0 4b3 .cfa: $rsp .ra: .cfa 8 - ^
STACK CFI 13edc0 .cfa: $rsp 192 +
STACK CFI INIT 13f280 ceb .cfa: $rsp .ra: .cfa 8 - ^
STACK CFI 13f280 .cfa: $rsp 176 +
STACK CFI INIT 13ff70 f9 .cfa: $rsp .ra: .cfa 8 - ^
STACK CFI 13ff70 .cfa: $rsp 128 +
STACK CFI INIT 140070 468 .cfa: $rsp .ra: .cfa 8 - ^
STACK CFI 140070 .cfa: $rsp 160 +
STACK CFI INIT 1404e0 861 .cfa: $rsp .ra: .cfa 8 - ^
STACK CFI 1404e0 .cfa: $rsp 224 +
STACK CFI INIT 140d50 f6 .cfa: $rsp .ra: .cfa 8 - ^
STACK CFI 140d50 .cfa: $rsp 144 +
STACK CFI INIT 140e50 ccb .cfa: $rsp .ra: .cfa 8 - ^
STACK CFI 140e50 .cfa: $rsp 208 +
STACK CFI INIT 141b20 3bc .cfa: $rsp .ra: .cfa 8 - ^
STACK CFI 141b20 .cfa: $rsp 352 +
STACK CFI INIT 141ee0 35b .cfa: $rsp .ra: .cfa 8 - ^
STACK CFI 141ee0 .cfa: $rsp 336 +
STACK CFI INIT 142240 34a .cfa: $rsp .ra: .cfa 8 - ^
STACK CFI 142240 .cfa: $rsp 352 +
STACK CFI INIT 142590 2e6 .cfa: $rsp .ra: .cfa 8 - ^
STACK CFI 142590 .cfa: $rsp 96 +
STACK CFI INIT 142880 1f .cfa: $rsp .ra: .cfa 8 - ^
STACK CFI 142880 .cfa: $rsp 48 +
STACK CFI INIT 1428a0 75 .cfa: $rsp .ra: .cfa 8 - ^
STACK CFI 1428a0 .cfa: $rsp 64 +
STACK CFI INIT 142920 33 .cfa: $rsp .ra: .cfa 8 - ^
STACK CFI 142920 .cfa: $rsp 8 +
STACK CFI INIT 142960 249 .cfa: $rsp .ra: .cfa 8 - ^
STACK CFI 142960 .cfa: $rsp 160 +
STACK CFI INIT 142bb0 324 .cfa: $rsp .ra: .cfa 8 - ^
STACK CFI 142bb0 .cfa: $rsp 176 +
STACK CFI INIT 142ee0 66e .cfa: $rsp .ra: .cfa 8 - ^
STACK CFI 142ee0 .cfa: $rsp 176 +
STACK CFI INIT 143550 e7 .cfa: $rsp .ra: .cfa 8 - ^
STACK CFI 143550 .cfa: $rsp 128 +
STACK CFI INIT 143640 37 .cfa: $rsp .ra: .cfa 8 - ^
STACK CFI 143640 .cfa: $rsp 8 +
STACK CFI INIT 143680 4b6 .cfa: $rsp .ra: .cfa 8 - ^
STACK CFI 143680 .cfa: $rsp 192 +
STACK CFI INIT 143b40 c0c .cfa: $rsp .ra: .cfa 8 - ^
STACK CFI 143b40 .cfa: $rsp 176 +
STACK CFI INIT 144750 f9 .cfa: $rsp .ra: .cfa 8 - ^
STACK CFI 144750 .cfa: $rsp 128 +
STACK CFI INIT 144850 468 .cfa: $rsp .ra: .cfa 8 - ^
STACK CFI 144850 .cfa: $rsp 160 +
STACK CFI INIT 144cc0 7a7 .cfa: $rsp .ra: .cfa 8 - ^
STACK CFI 144cc0 .cfa: $rsp 224 +
STACK CFI INIT 145470 d8 .cfa: $rsp .ra: .cfa 8 - ^
STACK CFI 145470 .cfa: $rsp 144 +
STACK CFI INIT 145550 ccb .cfa: $rsp .ra: .cfa 8 - ^
STACK CFI 145550 .cfa: $rsp 208 +
STACK CFI INIT 146220 3bc .cfa: $rsp .ra: .cfa 8 - ^
STACK CFI 146220 .cfa: $rsp 352 +
STACK CFI INIT 1465e0 35b .cfa: $rsp .ra: .cfa 8 - ^
STACK CFI 1465e0 .cfa: $rsp 336 +
STACK CFI INIT 146940 34a .cfa: $rsp .ra: .cfa 8 - ^
STACK CFI 146940 .cfa: $rsp 352 +
STACK CFI INIT 146c90 1f .cfa: $rsp .ra: .cfa 8 - ^
STACK CFI 146c90 .cfa: $rsp 48 +
STACK CFI INIT 146cb0 d9 .cfa: $rsp .ra: .cfa 8 - ^
STACK CFI 146cb0 .cfa: $rsp 64 +
STACK CFI INIT 146d90 a .cfa: $rsp .ra: .cfa 8 - ^
STACK CFI 146d90 .cfa: $rsp 8 +
STACK CFI INIT 146da0 1 .cfa: $rsp .ra: .cfa 8 - ^
STACK CFI 146da0 .cfa: $rsp 8 +
STACK CFI INIT 146db0 91 .cfa: $rsp .ra: .cfa 8 - ^
STACK CFI 146db0 .cfa: $rsp 96 +
STACK CFI INIT 146e50 89 .cfa: $rsp .ra: .cfa 8 - ^
STACK CFI 146e50 .cfa: $rsp 96 +
STACK CFI INIT 146ee0 a .cfa: $rsp .ra: .cfa 8 - ^
STACK CFI 146ee0 .cfa: $rsp 8 +
STACK CFI INIT 146ef0 1 .cfa: $rsp .ra: .cfa 8 - ^
STACK CFI 146ef0 .cfa: $rsp 8 +
STACK CFI INIT 146f00 a .cfa: $rsp .ra: .cfa 8 - ^
STACK CFI 146f00 .cfa: $rsp 8 +
STACK CFI INIT 146f10 1 .cfa: $rsp .ra: .cfa 8 - ^
STACK CFI 146f10 .cfa: $rsp 8 +
STACK CFI INIT 146f20 a .cfa: $rsp .ra: .cfa 8 - ^
STACK CFI 146f20 .cfa: $rsp 8 +
STACK CFI INIT 146f30 1 .cfa: $rsp .ra: .cfa 8 - ^
STACK CFI 146f30 .cfa: $rsp 8 +
STACK CFI INIT 146f40 a .cfa: $rsp .ra: .cfa 8 - ^
STACK CFI 146f40 .cfa: $rsp 8 +
STACK CFI INIT 146f50 1 .cfa: $rsp .ra: .cfa 8 - ^
STACK CFI 146f50 .cfa: $rsp 8 +
STACK CFI INIT 146f60 c2 .cfa: $rsp .ra: .cfa 8 - ^
STACK CFI 146f60 .cfa: $rsp 8 +
STACK CFI INIT 147030 83 .cfa: $rsp .ra: .cfa 8 - ^
STACK CFI 147030 .cfa: $rsp 64 +
STACK CFI INIT 1470c0 fd .cfa: $rsp .ra: .cfa 8 - ^
STACK CFI 1470c0 .cfa: $rsp 112 +
STACK CFI INIT 1471c0 c2 .cfa: $rsp .ra: .cfa 8 - ^
STACK CFI 1471c0 .cfa: $rsp 96 +
STACK CFI INIT 147290 c25 .cfa: $rsp .ra: .cfa 8 - ^
STACK CFI 147290 .cfa: $rsp 64 +
STACK CFI INIT 147ec0 a .cfa: $rsp .ra: .cfa 8 - ^
STACK CFI 147ec0 .cfa: $rsp 8 +
STACK CFI INIT 147ed0 1 .cfa: $rsp .ra: .cfa 8 - ^
STACK CFI 147ed0 .cfa: $rsp 8 +
STACK CFI INIT 147ee0 a .cfa: $rsp .ra: .cfa 8 - ^
STACK CFI 147ee0 .cfa: $rsp 8 +
STACK CFI INIT 147ef0 1 .cfa: $rsp .ra: .cfa 8 - ^
STACK CFI 147ef0 .cfa: $rsp 8 +
STACK CFI INIT 147f00 a .cfa: $rsp .ra: .cfa 8 - ^
STACK CFI 147f00 .cfa: $rsp 8 +
STACK CFI INIT 147f10 1 .cfa: $rsp .ra: .cfa 8 - ^
STACK CFI 147f10 .cfa: $rsp 8 +
STACK CFI INIT 147f20 55 .cfa: $rsp .ra: .cfa 8 - ^
STACK CFI 147f20 .cfa: $rsp 64 +
STACK CFI INIT 147f80 61 .cfa: $rsp .ra: .cfa 8 - ^
STACK CFI 147f80 .cfa: $rsp 64 +
STACK CFI INIT 147ff0 94 .cfa: $rsp .ra: .cfa 8 - ^
STACK CFI 147ff0 .cfa: $rsp 64 +
STACK CFI INIT 148090 88 .cfa: $rsp .ra: .cfa 8 - ^
STACK CFI 148090 .cfa: $rsp 64 +
STACK CFI INIT 148120 94 .cfa: $rsp .ra: .cfa 8 - ^
STACK CFI 148120 .cfa: $rsp 64 +
STACK CFI INIT 1481c0 88 .cfa: $rsp .ra: .cfa 8 - ^
STACK CFI 1481c0 .cfa: $rsp 64 +
STACK CFI INIT 148250 94 .cfa: $rsp .ra: .cfa 8 - ^
STACK CFI 148250 .cfa: $rsp 64 +
STACK CFI INIT 1482f0 88 .cfa: $rsp .ra: .cfa 8 - ^
STACK CFI 1482f0 .cfa: $rsp 64 +
STACK CFI INIT 148380 a .cfa: $rsp .ra: .cfa 8 - ^
STACK CFI 148380 .cfa: $rsp 8 +
STACK CFI INIT 148390 1 .cfa: $rsp .ra: .cfa 8 - ^
STACK CFI 148390 .cfa: $rsp 8 +
STACK CFI INIT 1483a0 a .cfa: $rsp .ra: .cfa 8 - ^
STACK CFI 1483a0 .cfa: $rsp 8 +
STACK CFI INIT 1483b0 1 .cfa: $rsp .ra: .cfa 8 - ^
STACK CFI 1483b0 .cfa: $rsp 8 +
STACK CFI INIT 1483c0 a .cfa: $rsp .ra: .cfa 8 - ^
STACK CFI 1483c0 .cfa: $rsp 8 +
STACK CFI INIT 1483d0 1 .cfa: $rsp .ra: .cfa 8 - ^
STACK CFI 1483d0 .cfa: $rsp 8 +
STACK CFI INIT 1483e0 3 .cfa: $rsp .ra: .cfa 8 - ^
STACK CFI 1483e0 .cfa: $rsp 8 +
STACK CFI INIT 1483f0 94 .cfa: $rsp .ra: .cfa 8 - ^
STACK CFI 1483f0 .cfa: $rsp 64 +
STACK CFI INIT 148490 88 .cfa: $rsp .ra: .cfa 8 - ^
STACK CFI 148490 .cfa: $rsp 64 +
STACK CFI INIT 148520 a .cfa: $rsp .ra: .cfa 8 - ^
STACK CFI 148520 .cfa: $rsp 8 +
STACK CFI INIT 148530 1 .cfa: $rsp .ra: .cfa 8 - ^
STACK CFI 148530 .cfa: $rsp 8 +
STACK CFI INIT 148540 165 .cfa: $rsp .ra: .cfa 8 - ^
STACK CFI 148540 .cfa: $rsp 80 +
STACK CFI INIT 1486b0 15a .cfa: $rsp .ra: .cfa 8 - ^
STACK CFI 1486b0 .cfa: $rsp 80 +
STACK CFI INIT 148810 94 .cfa: $rsp .ra: .cfa 8 - ^
STACK CFI 148810 .cfa: $rsp 64 +
STACK CFI INIT 1488b0 88 .cfa: $rsp .ra: .cfa 8 - ^
STACK CFI 1488b0 .cfa: $rsp 64 +
STACK CFI INIT 148940 a .cfa: $rsp .ra: .cfa 8 - ^
STACK CFI 148940 .cfa: $rsp 8 +
STACK CFI INIT 148950 1 .cfa: $rsp .ra: .cfa 8 - ^
STACK CFI 148950 .cfa: $rsp 8 +
STACK CFI INIT 148960 94 .cfa: $rsp .ra: .cfa 8 - ^
STACK CFI 148960 .cfa: $rsp 64 +
STACK CFI INIT 148a00 88 .cfa: $rsp .ra: .cfa 8 - ^
STACK CFI 148a00 .cfa: $rsp 64 +
STACK CFI INIT 148a90 a .cfa: $rsp .ra: .cfa 8 - ^
STACK CFI 148a90 .cfa: $rsp 8 +
STACK CFI INIT 148aa0 1 .cfa: $rsp .ra: .cfa 8 - ^
STACK CFI 148aa0 .cfa: $rsp 8 +
STACK CFI INIT 148ab0 94 .cfa: $rsp .ra: .cfa 8 - ^
STACK CFI 148ab0 .cfa: $rsp 64 +
STACK CFI INIT 148b50 88 .cfa: $rsp .ra: .cfa 8 - ^
STACK CFI 148b50 .cfa: $rsp 64 +
STACK CFI INIT 148be0 a .cfa: $rsp .ra: .cfa 8 - ^
STACK CFI 148be0 .cfa: $rsp 8 +
STACK CFI INIT 148bf0 1 .cfa: $rsp .ra: .cfa 8 - ^
STACK CFI 148bf0 .cfa: $rsp 8 +
STACK CFI INIT 148c00 94 .cfa: $rsp .ra: .cfa 8 - ^
STACK CFI 148c00 .cfa: $rsp 64 +
STACK CFI INIT 148ca0 88 .cfa: $rsp .ra: .cfa 8 - ^
STACK CFI 148ca0 .cfa: $rsp 64 +
STACK CFI INIT 148d30 94 .cfa: $rsp .ra: .cfa 8 - ^
STACK CFI 148d30 .cfa: $rsp 64 +
STACK CFI INIT 148dd0 88 .cfa: $rsp .ra: .cfa 8 - ^
STACK CFI 148dd0 .cfa: $rsp 64 +
STACK CFI INIT 148e60 a .cfa: $rsp .ra: .cfa 8 - ^
STACK CFI 148e60 .cfa: $rsp 8 +
STACK CFI INIT 148e70 1 .cfa: $rsp .ra: .cfa 8 - ^
STACK CFI 148e70 .cfa: $rsp 8 +
STACK CFI INIT 148e80 a .cfa: $rsp .ra: .cfa 8 - ^
STACK CFI 148e80 .cfa: $rsp 8 +
STACK CFI INIT 148e90 1 .cfa: $rsp .ra: .cfa 8 - ^
STACK CFI 148e90 .cfa: $rsp 8 +
STACK CFI INIT 148ea0 a .cfa: $rsp .ra: .cfa 8 - ^
STACK CFI 148ea0 .cfa: $rsp 8 +
STACK CFI INIT 148eb0 1 .cfa: $rsp .ra: .cfa 8 - ^
STACK CFI 148eb0 .cfa: $rsp 8 +
STACK CFI INIT 148ec0 3a .cfa: $rsp .ra: .cfa 8 - ^
STACK CFI 148ec0 .cfa: $rsp 64 +
STACK CFI INIT 148f00 3a .cfa: $rsp .ra: .cfa 8 - ^
STACK CFI 148f00 .cfa: $rsp 64 +
STACK CFI INIT 148f40 42 .cfa: $rsp .ra: .cfa 8 - ^
STACK CFI 148f40 .cfa: $rsp 80 +
STACK CFI INIT 148f90 42 .cfa: $rsp .ra: .cfa 8 - ^
STACK CFI 148f90 .cfa: $rsp 80 +
STACK CFI INIT 148fe0 42 .cfa: $rsp .ra: .cfa 8 - ^
STACK CFI 148fe0 .cfa: $rsp 80 +
STACK CFI INIT 149030 42 .cfa: $rsp .ra: .cfa 8 - ^
STACK CFI 149030 .cfa: $rsp 80 +
STACK CFI INIT 149080 50 .cfa: $rsp .ra: .cfa 8 - ^
STACK CFI 149080 .cfa: $rsp 80 +
STACK CFI INIT 1490d0 42 .cfa: $rsp .ra: .cfa 8 - ^
STACK CFI 1490d0 .cfa: $rsp 80 +
STACK CFI INIT 149120 a .cfa: $rsp .ra: .cfa 8 - ^
STACK CFI 149120 .cfa: $rsp 8 +
STACK CFI INIT 149130 1 .cfa: $rsp .ra: .cfa 8 - ^
STACK CFI 149130 .cfa: $rsp 8 +
STACK CFI INIT 149140 a .cfa: $rsp .ra: .cfa 8 - ^
STACK CFI 149140 .cfa: $rsp 8 +
STACK CFI INIT 149150 1 .cfa: $rsp .ra: .cfa 8 - ^
STACK CFI 149150 .cfa: $rsp 8 +
STACK CFI INIT 149160 94 .cfa: $rsp .ra: .cfa 8 - ^
STACK CFI 149160 .cfa: $rsp 64 +
STACK CFI INIT 149200 88 .cfa: $rsp .ra: .cfa 8 - ^
STACK CFI 149200 .cfa: $rsp 64 +
STACK CFI INIT 149290 c5 .cfa: $rsp .ra: .cfa 8 - ^
STACK CFI 149290 .cfa: $rsp 24 +
STACK CFI INIT 149360 a .cfa: $rsp .ra: .cfa 8 - ^
STACK CFI 149360 .cfa: $rsp 8 +
STACK CFI INIT 149370 1 .cfa: $rsp .ra: .cfa 8 - ^
STACK CFI 149370 .cfa: $rsp 8 +
STACK CFI INIT 149380 a .cfa: $rsp .ra: .cfa 8 - ^
STACK CFI 149380 .cfa: $rsp 8 +
STACK CFI INIT 149390 1 .cfa: $rsp .ra: .cfa 8 - ^
STACK CFI 149390 .cfa: $rsp 8 +
STACK CFI INIT 1493a0 19b .cfa: $rsp .ra: .cfa 8 - ^
STACK CFI 1493a0 .cfa: $rsp 48 +
STACK CFI INIT 149540 94 .cfa: $rsp .ra: .cfa 8 - ^
STACK CFI 149540 .cfa: $rsp 64 +
STACK CFI INIT 1495e0 88 .cfa: $rsp .ra: .cfa 8 - ^
STACK CFI 1495e0 .cfa: $rsp 64 +
STACK CFI INIT 149670 1 .cfa: $rsp .ra: .cfa 8 - ^
STACK CFI 149670 .cfa: $rsp 8 +
STACK CFI INIT 149680 a .cfa: $rsp .ra: .cfa 8 - ^
STACK CFI 149680 .cfa: $rsp 8 +
STACK CFI INIT 149690 1 .cfa: $rsp .ra: .cfa 8 - ^
STACK CFI 149690 .cfa: $rsp 8 +
STACK CFI INIT 1496a0 a .cfa: $rsp .ra: .cfa 8 - ^
STACK CFI 1496a0 .cfa: $rsp 8 +
STACK CFI INIT 1496b0 1 .cfa: $rsp .ra: .cfa 8 - ^
STACK CFI 1496b0 .cfa: $rsp 8 +
STACK CFI INIT 1496c0 5 .cfa: $rsp .ra: .cfa 8 - ^
STACK CFI 1496c0 .cfa: $rsp 8 +
STACK CFI INIT 1496d0 1 .cfa: $rsp .ra: .cfa 8 - ^
STACK CFI 1496d0 .cfa: $rsp 8 +
STACK CFI INIT 1496e0 a .cfa: $rsp .ra: .cfa 8 - ^
STACK CFI 1496e0 .cfa: $rsp 8 +
STACK CFI INIT 1496f0 1 .cfa: $rsp .ra: .cfa 8 - ^
STACK CFI 1496f0 .cfa: $rsp 8 +
STACK CFI INIT 149700 a .cfa: $rsp .ra: .cfa 8 - ^
STACK CFI 149700 .cfa: $rsp 8 +
STACK CFI INIT 149710 1 .cfa: $rsp .ra: .cfa 8 - ^
STACK CFI 149710 .cfa: $rsp 8 +
STACK CFI INIT 149720 a .cfa: $rsp .ra: .cfa 8 - ^
STACK CFI 149720 .cfa: $rsp 8 +
STACK CFI INIT 149730 1 .cfa: $rsp .ra: .cfa 8 - ^
STACK CFI 149730 .cfa: $rsp 8 +
STACK CFI INIT 149740 92 .cfa: $rsp .ra: .cfa 8 - ^
STACK CFI 149740 .cfa: $rsp 64 +
STACK CFI INIT 1497e0 82 .cfa: $rsp .ra: .cfa 8 - ^
STACK CFI 1497e0 .cfa: $rsp 64 +
STACK CFI INIT 149870 94 .cfa: $rsp .ra: .cfa 8 - ^
STACK CFI 149870 .cfa: $rsp 64 +
STACK CFI INIT 149910 88 .cfa: $rsp .ra: .cfa 8 - ^
STACK CFI 149910 .cfa: $rsp 64 +
STACK CFI INIT 1499a0 b5 .cfa: $rsp .ra: .cfa 8 - ^
STACK CFI 1499a0 .cfa: $rsp 80 +
STACK CFI INIT 149a60 a8 .cfa: $rsp .ra: .cfa 8 - ^
STACK CFI 149a60 .cfa: $rsp 64 +
STACK CFI INIT 149b10 c9 .cfa: $rsp .ra: .cfa 8 - ^
STACK CFI 149b10 .cfa: $rsp 64 +
STACK CFI INIT 149be0 c5 .cfa: $rsp .ra: .cfa 8 - ^
STACK CFI 149be0 .cfa: $rsp 64 +
STACK CFI INIT 149cb0 a .cfa: $rsp .ra: .cfa 8 - ^
STACK CFI 149cb0 .cfa: $rsp 8 +
STACK CFI INIT 149cc0 1 .cfa: $rsp .ra: .cfa 8 - ^
STACK CFI 149cc0 .cfa: $rsp 8 +
STACK CFI INIT 149cd0 a .cfa: $rsp .ra: .cfa 8 - ^
STACK CFI 149cd0 .cfa: $rsp 8 +
STACK CFI INIT 149ce0 1 .cfa: $rsp .ra: .cfa 8 - ^
STACK CFI 149ce0 .cfa: $rsp 8 +
STACK CFI INIT 149cf0 a .cfa: $rsp .ra: .cfa 8 - ^
STACK CFI 149cf0 .cfa: $rsp 8 +
STACK CFI INIT 149d00 1 .cfa: $rsp .ra: .cfa 8 - ^
STACK CFI 149d00 .cfa: $rsp 8 +
STACK CFI INIT 149d10 a .cfa: $rsp .ra: .cfa 8 - ^
STACK CFI 149d10 .cfa: $rsp 8 +
STACK CFI INIT 149d20 1 .cfa: $rsp .ra: .cfa 8 - ^
STACK CFI 149d20 .cfa: $rsp 8 +
STACK CFI INIT 149d30 a .cfa: $rsp .ra: .cfa 8 - ^
STACK CFI 149d30 .cfa: $rsp 8 +
STACK CFI INIT 149d40 1 .cfa: $rsp .ra: .cfa 8 - ^
STACK CFI 149d40 .cfa: $rsp 8 +
STACK CFI INIT 149d50 4d2 .cfa: $rsp .ra: .cfa 8 - ^
STACK CFI 149d50 .cfa: $rsp 144 +
STACK CFI INIT 14a230 94 .cfa: $rsp .ra: .cfa 8 - ^
STACK CFI 14a230 .cfa: $rsp 64 +
STACK CFI INIT 14a2d0 88 .cfa: $rsp .ra: .cfa 8 - ^
STACK CFI 14a2d0 .cfa: $rsp 64 +
STACK CFI INIT 14a360 bd .cfa: $rsp .ra: .cfa 8 - ^
STACK CFI 14a360 .cfa: $rsp 64 +
STACK CFI INIT 14a420 58 .cfa: $rsp .ra: .cfa 8 - ^
STACK CFI 14a420 .cfa: $rsp 8 +
STACK CFI INIT 14a480 68 .cfa: $rsp .ra: .cfa 8 - ^
STACK CFI 14a480 .cfa: $rsp 8 +
STACK CFI INIT 14a4f0 a .cfa: $rsp .ra: .cfa 8 - ^
STACK CFI 14a4f0 .cfa: $rsp 8 +
STACK CFI INIT 14a500 1 .cfa: $rsp .ra: .cfa 8 - ^
STACK CFI 14a500 .cfa: $rsp 8 +
STACK CFI INIT 14a510 a .cfa: $rsp .ra: .cfa 8 - ^
STACK CFI 14a510 .cfa: $rsp 8 +
STACK CFI INIT 14a520 1 .cfa: $rsp .ra: .cfa 8 - ^
STACK CFI 14a520 .cfa: $rsp 8 +
STACK CFI INIT 14a530 1 .cfa: $rsp .ra: .cfa 8 - ^
STACK CFI 14a530 .cfa: $rsp 8 +
STACK CFI INIT 14a540 a .cfa: $rsp .ra: .cfa 8 - ^
STACK CFI 14a540 .cfa: $rsp 8 +
STACK CFI INIT 14a550 1 .cfa: $rsp .ra: .cfa 8 - ^
STACK CFI 14a550 .cfa: $rsp 8 +
STACK CFI INIT 14a560 123 .cfa: $rsp .ra: .cfa 8 - ^
STACK CFI 14a560 .cfa: $rsp 160 +
STACK CFI INIT 14a690 f9 .cfa: $rsp .ra: .cfa 8 - ^
STACK CFI 14a690 .cfa: $rsp 128 +
STACK CFI INIT 14a790 123 .cfa: $rsp .ra: .cfa 8 - ^
STACK CFI 14a790 .cfa: $rsp 160 +
STACK CFI INIT 14a8c0 3ea .cfa: $rsp .ra: .cfa 8 - ^
STACK CFI 14a8c0 .cfa: $rsp 128 +
STACK CFI INIT 14acb0 a .cfa: $rsp .ra: .cfa 8 - ^
STACK CFI 14acb0 .cfa: $rsp 8 +
STACK CFI INIT 14acc0 1 .cfa: $rsp .ra: .cfa 8 - ^
STACK CFI 14acc0 .cfa: $rsp 8 +
STACK CFI INIT 14acd0 a .cfa: $rsp .ra: .cfa 8 - ^
STACK CFI 14acd0 .cfa: $rsp 8 +
STACK CFI INIT 14ace0 1 .cfa: $rsp .ra: .cfa 8 - ^
STACK CFI 14ace0 .cfa: $rsp 8 +
STACK CFI INIT 14acf0 a .cfa: $rsp .ra: .cfa 8 - ^
STACK CFI 14acf0 .cfa: $rsp 8 +
STACK CFI INIT 14ad00 1 .cfa: $rsp .ra: .cfa 8 - ^
STACK CFI 14ad00 .cfa: $rsp 8 +
STACK CFI INIT 14ad10 1b4 .cfa: $rsp .ra: .cfa 8 - ^
STACK CFI 14ad10 .cfa: $rsp 80 +
STACK CFI INIT 14aed0 6d .cfa: $rsp .ra: .cfa 8 - ^
STACK CFI 14aed0 .cfa: $rsp 80 +
STACK CFI INIT 14af40 5a .cfa: $rsp .ra: .cfa 8 - ^
STACK CFI 14af40 .cfa: $rsp 64 +
STACK CFI INIT 14afa0 a .cfa: $rsp .ra: .cfa 8 - ^
STACK CFI 14afa0 .cfa: $rsp 8 +
STACK CFI INIT 14afb0 1 .cfa: $rsp .ra: .cfa 8 - ^
STACK CFI 14afb0 .cfa: $rsp 8 +
STACK CFI INIT 14afc0 a .cfa: $rsp .ra: .cfa 8 - ^
STACK CFI 14afc0 .cfa: $rsp 8 +
STACK CFI INIT 14afd0 1 .cfa: $rsp .ra: .cfa 8 - ^
STACK CFI 14afd0 .cfa: $rsp 8 +
STACK CFI INIT 14afe0 a .cfa: $rsp .ra: .cfa 8 - ^
STACK CFI 14afe0 .cfa: $rsp 8 +
STACK CFI INIT 14aff0 1 .cfa: $rsp .ra: .cfa 8 - ^
STACK CFI 14aff0 .cfa: $rsp 8 +
STACK CFI INIT 14b000 84 .cfa: $rsp .ra: .cfa 8 - ^
STACK CFI 14b000 .cfa: $rsp 64 +
STACK CFI INIT 14b090 1 .cfa: $rsp .ra: .cfa 8 - ^
STACK CFI 14b090 .cfa: $rsp 8 +
STACK CFI INIT 14b0a0 1 .cfa: $rsp .ra: .cfa 8 - ^
STACK CFI 14b0a0 .cfa: $rsp 8 +
STACK CFI INIT 14b0b0 1 .cfa: $rsp .ra: .cfa 8 - ^
STACK CFI 14b0b0 .cfa: $rsp 8 +
STACK CFI INIT 14b0c0 1 .cfa: $rsp .ra: .cfa 8 - ^
STACK CFI 14b0c0 .cfa: $rsp 8 +
STACK CFI INIT 14b0d0 1 .cfa: $rsp .ra: .cfa 8 - ^
STACK CFI 14b0d0 .cfa: $rsp 8 +
STACK CFI INIT 14b0e0 1 .cfa: $rsp .ra: .cfa 8 - ^
STACK CFI 14b0e0 .cfa: $rsp 8 +
STACK CFI INIT 14b0f0 1 .cfa: $rsp .ra: .cfa 8 - ^
STACK CFI 14b0f0 .cfa: $rsp 8 +
STACK CFI INIT 14b100 1 .cfa: $rsp .ra: .cfa 8 - ^
STACK CFI 14b100 .cfa: $rsp 8 +
STACK CFI INIT 14b110 1 .cfa: $rsp .ra: .cfa 8 - ^
STACK CFI 14b110 .cfa: $rsp 8 +
STACK CFI INIT 14b120 cb .cfa: $rsp .ra: .cfa 8 - ^
STACK CFI 14b120 .cfa: $rsp 64 +
STACK CFI INIT 14b1f0 cb .cfa: $rsp .ra: .cfa 8 - ^
STACK CFI 14b1f0 .cfa: $rsp 48 +
STACK CFI INIT 14b2c0 7 .cfa: $rsp .ra: .cfa 8 - ^
STACK CFI 14b2c0 .cfa: $rsp 8 +
STACK CFI INIT 14b2d0 227 .cfa: $rsp .ra: .cfa 8 - ^
STACK CFI 14b2d0 .cfa: $rsp 112 +
STACK CFI INIT 14b500 493 .cfa: $rsp .ra: .cfa 8 - ^
STACK CFI 14b500 .cfa: $rsp 176 +
STACK CFI INIT 14b9a0 20c .cfa: $rsp .ra: .cfa 8 - ^
STACK CFI 14b9a0 .cfa: $rsp 96 +
STACK CFI INIT 14bbb0 20c .cfa: $rsp .ra: .cfa 8 - ^
STACK CFI 14bbb0 .cfa: $rsp 96 +
STACK CFI INIT 14bdc0 87 .cfa: $rsp .ra: .cfa 8 - ^
STACK CFI 14bdc0 .cfa: $rsp 64 +
STACK CFI INIT 14be50 88 .cfa: $rsp .ra: .cfa 8 - ^
STACK CFI 14be50 .cfa: $rsp 64 +
STACK CFI INIT 14bee0 6e .cfa: $rsp .ra: .cfa 8 - ^
STACK CFI 14bee0 .cfa: $rsp 8 +
STACK CFI INIT 14bf50 e2 .cfa: $rsp .ra: .cfa 8 - ^
STACK CFI 14bf50 .cfa: $rsp 64 +
STACK CFI INIT 14c040 dc .cfa: $rsp .ra: .cfa 8 - ^
STACK CFI 14c040 .cfa: $rsp 64 +
STACK CFI INIT 14c120 a .cfa: $rsp .ra: .cfa 8 - ^
STACK CFI 14c120 .cfa: $rsp 8 +
STACK CFI INIT 14c130 1 .cfa: $rsp .ra: .cfa 8 - ^
STACK CFI 14c130 .cfa: $rsp 8 +
STACK CFI INIT 14c140 a .cfa: $rsp .ra: .cfa 8 - ^
STACK CFI 14c140 .cfa: $rsp 8 +
STACK CFI INIT 14c150 1 .cfa: $rsp .ra: .cfa 8 - ^
STACK CFI 14c150 .cfa: $rsp 8 +
STACK CFI INIT 14c160 a .cfa: $rsp .ra: .cfa 8 - ^
STACK CFI 14c160 .cfa: $rsp 8 +
STACK CFI INIT 14c170 1 .cfa: $rsp .ra: .cfa 8 - ^
STACK CFI 14c170 .cfa: $rsp 8 +
STACK CFI INIT 14c180 a .cfa: $rsp .ra: .cfa 8 - ^
STACK CFI 14c180 .cfa: $rsp 8 +
STACK CFI INIT 14c190 1 .cfa: $rsp .ra: .cfa 8 - ^
STACK CFI 14c190 .cfa: $rsp 8 +
STACK CFI INIT 14c1a0 a .cfa: $rsp .ra: .cfa 8 - ^
STACK CFI 14c1a0 .cfa: $rsp 8 +
STACK CFI INIT 14c1b0 1 .cfa: $rsp .ra: .cfa 8 - ^
STACK CFI 14c1b0 .cfa: $rsp 8 +
STACK CFI INIT 14c1c0 a .cfa: $rsp .ra: .cfa 8 - ^
STACK CFI 14c1c0 .cfa: $rsp 8 +
STACK CFI INIT 14c1d0 1 .cfa: $rsp .ra: .cfa 8 - ^
STACK CFI 14c1d0 .cfa: $rsp 8 +
STACK CFI INIT 14c1e0 3ca .cfa: $rsp .ra: .cfa 8 - ^
STACK CFI 14c1e0 .cfa: $rsp 128 +
STACK CFI INIT 14c5b0 15e .cfa: $rsp .ra: .cfa 8 - ^
STACK CFI 14c5b0 .cfa: $rsp 80 +
STACK CFI INIT 14c710 265 .cfa: $rsp .ra: .cfa 8 - ^
STACK CFI 14c710 .cfa: $rsp 112 +
STACK CFI INIT 14c980 35d .cfa: $rsp .ra: .cfa 8 - ^
STACK CFI 14c980 .cfa: $rsp 96 +
STACK CFI INIT 14cce0 5e3 .cfa: $rsp .ra: .cfa 8 - ^
STACK CFI 14cce0 .cfa: $rsp 160 +
STACK CFI INIT 14d2d0 1f9 .cfa: $rsp .ra: .cfa 8 - ^
STACK CFI 14d2d0 .cfa: $rsp 96 +
STACK CFI INIT 14d4d0 a .cfa: $rsp .ra: .cfa 8 - ^
STACK CFI 14d4d0 .cfa: $rsp 8 +
STACK CFI INIT 14d4e0 1 .cfa: $rsp .ra: .cfa 8 - ^
STACK CFI 14d4e0 .cfa: $rsp 8 +
STACK CFI INIT 14d4f0 a .cfa: $rsp .ra: .cfa 8 - ^
STACK CFI 14d4f0 .cfa: $rsp 8 +
STACK CFI INIT 14d500 1 .cfa: $rsp .ra: .cfa 8 - ^
STACK CFI 14d500 .cfa: $rsp 8 +
STACK CFI INIT 14d510 a .cfa: $rsp .ra: .cfa 8 - ^
STACK CFI 14d510 .cfa: $rsp 8 +
STACK CFI INIT 14d520 1 .cfa: $rsp .ra: .cfa 8 - ^
STACK CFI 14d520 .cfa: $rsp 8 +
STACK CFI INIT 14d530 a .cfa: $rsp .ra: .cfa 8 - ^
STACK CFI 14d530 .cfa: $rsp 8 +
STACK CFI INIT 14d540 1 .cfa: $rsp .ra: .cfa 8 - ^
STACK CFI 14d540 .cfa: $rsp 8 +
STACK CFI INIT 14d550 5f .cfa: $rsp .ra: .cfa 8 - ^
STACK CFI 14d550 .cfa: $rsp 48 +
STACK CFI INIT 14d5b0 51 .cfa: $rsp .ra: .cfa 8 - ^
STACK CFI 14d5b0 .cfa: $rsp 8 +
STACK CFI INIT 14d610 a .cfa: $rsp .ra: .cfa 8 - ^
STACK CFI 14d610 .cfa: $rsp 8 +
STACK CFI INIT 14d620 1 .cfa: $rsp .ra: .cfa 8 - ^
STACK CFI 14d620 .cfa: $rsp 8 +
STACK CFI INIT 14d630 d .cfa: $rsp .ra: .cfa 8 - ^
STACK CFI 14d630 .cfa: $rsp 8 +
STACK CFI INIT 14d640 d .cfa: $rsp .ra: .cfa 8 - ^
STACK CFI 14d640 .cfa: $rsp 8 +
STACK CFI INIT 14d650 d .cfa: $rsp .ra: .cfa 8 - ^
STACK CFI 14d650 .cfa: $rsp 8 +
STACK CFI INIT 14d660 d .cfa: $rsp .ra: .cfa 8 - ^
STACK CFI 14d660 .cfa: $rsp 8 +
STACK CFI INIT 14d670 d .cfa: $rsp .ra: .cfa 8 - ^
STACK CFI 14d670 .cfa: $rsp 8 +
STACK CFI INIT 14d680 d .cfa: $rsp .ra: .cfa 8 - ^
STACK CFI 14d680 .cfa: $rsp 8 +
STACK CFI INIT 14d690 d .cfa: $rsp .ra: .cfa 8 - ^
STACK CFI 14d690 .cfa: $rsp 8 +
STACK CFI INIT 14d6a0 d .cfa: $rsp .ra: .cfa 8 - ^
STACK CFI 14d6a0 .cfa: $rsp 8 +
STACK CFI INIT 14d6b0 a .cfa: $rsp .ra: .cfa 8 - ^
STACK CFI 14d6b0 .cfa: $rsp 8 +
STACK CFI INIT 14d6c0 1 .cfa: $rsp .ra: .cfa 8 - ^
STACK CFI 14d6c0 .cfa: $rsp 8 +
STACK CFI INIT 14d6d0 a .cfa: $rsp .ra: .cfa 8 - ^
STACK CFI 14d6d0 .cfa: $rsp 8 +
STACK CFI INIT 14d6e0 1 .cfa: $rsp .ra: .cfa 8 - ^
STACK CFI 14d6e0 .cfa: $rsp 8 +
STACK CFI INIT 14d6f0 3df .cfa: $rsp .ra: .cfa 8 - ^
STACK CFI 14d6f0 .cfa: $rsp 128 +
STACK CFI INIT 14dad0 ca4 .cfa: $rsp .ra: .cfa 8 - ^
STACK CFI 14dad0 .cfa: $rsp 144 +
STACK CFI INIT 14e780 c8 .cfa: $rsp .ra: .cfa 8 - ^
STACK CFI 14e780 .cfa: $rsp 80 +
STACK CFI INIT 14e850 db .cfa: $rsp .ra: .cfa 8 - ^
STACK CFI 14e850 .cfa: $rsp 64 +
STACK CFI INIT 14e930 a .cfa: $rsp .ra: .cfa 8 - ^
STACK CFI 14e930 .cfa: $rsp 8 +
STACK CFI INIT 14e940 1 .cfa: $rsp .ra: .cfa 8 - ^
STACK CFI 14e940 .cfa: $rsp 8 +
STACK CFI INIT 14e950 a .cfa: $rsp .ra: .cfa 8 - ^
STACK CFI 14e950 .cfa: $rsp 8 +
STACK CFI INIT 14e960 1 .cfa: $rsp .ra: .cfa 8 - ^
STACK CFI 14e960 .cfa: $rsp 8 +
STACK CFI INIT 14e970 95 .cfa: $rsp .ra: .cfa 8 - ^
STACK CFI 14e970 .cfa: $rsp 48 +
STACK CFI INIT 14ea10 e4 .cfa: $rsp .ra: .cfa 8 - ^
STACK CFI 14ea10 .cfa: $rsp 64 +
STACK CFI INIT 14eb00 32 .cfa: $rsp .ra: .cfa 8 - ^
STACK CFI 14eb00 .cfa: $rsp 48 +
STACK CFI INIT 14eb40 aa .cfa: $rsp .ra: .cfa 8 - ^
STACK CFI 14eb40 .cfa: $rsp 8 +
STACK CFI INIT 14ebf0 1c8 .cfa: $rsp .ra: .cfa 8 - ^
STACK CFI 14ebf0 .cfa: $rsp 128 +
STACK CFI INIT 14edc0 44b .cfa: $rsp .ra: .cfa 8 - ^
STACK CFI 14edc0 .cfa: $rsp 160 +
STACK CFI INIT 14f210 2a .cfa: $rsp .ra: .cfa 8 - ^
STACK CFI 14f210 .cfa: $rsp 48 +
STACK CFI INIT 14f240 11 .cfa: $rsp .ra: .cfa 8 - ^
STACK CFI 14f240 .cfa: $rsp 8 +
STACK CFI INIT 14f260 2a .cfa: $rsp .ra: .cfa 8 - ^
STACK CFI 14f260 .cfa: $rsp 48 +
STACK CFI INIT 14f290 11 .cfa: $rsp .ra: .cfa 8 - ^
STACK CFI 14f290 .cfa: $rsp 8 +
STACK CFI INIT 14f2b0 11e .cfa: $rsp .ra: .cfa 8 - ^
STACK CFI 14f2b0 .cfa: $rsp 112 +
STACK CFI INIT 14f3d0 2a .cfa: $rsp .ra: .cfa 8 - ^
STACK CFI 14f3d0 .cfa: $rsp 48 +
STACK CFI INIT 14f400 11 .cfa: $rsp .ra: .cfa 8 - ^
STACK CFI 14f400 .cfa: $rsp 8 +
STACK CFI INIT 14f420 a8 .cfa: $rsp .ra: .cfa 8 - ^
STACK CFI 14f420 .cfa: $rsp 64 +
STACK CFI INIT 14f4d0 185 .cfa: $rsp .ra: .cfa 8 - ^
STACK CFI 14f4d0 .cfa: $rsp 80 +
STACK CFI INIT 14f660 53 .cfa: $rsp .ra: .cfa 8 - ^
STACK CFI 14f660 .cfa: $rsp 48 +
STACK CFI INIT 14f6c0 f2 .cfa: $rsp .ra: .cfa 8 - ^
STACK CFI 14f6c0 .cfa: $rsp 80 +
STACK CFI INIT 14f7c0 31 .cfa: $rsp .ra: .cfa 8 - ^
STACK CFI 14f7c0 .cfa: $rsp 8 +
STACK CFI INIT 14f800 4c .cfa: $rsp .ra: .cfa 8 - ^
STACK CFI 14f800 .cfa: $rsp 64 +
STACK CFI INIT 14f850 77 .cfa: $rsp .ra: .cfa 8 - ^
STACK CFI 14f850 .cfa: $rsp 80 +
STACK CFI INIT 14f8d0 143 .cfa: $rsp .ra: .cfa 8 - ^
STACK CFI 14f8d0 .cfa: $rsp 96 +
STACK CFI INIT 14fa20 77 .cfa: $rsp .ra: .cfa 8 - ^
STACK CFI 14fa20 .cfa: $rsp 80 +
STACK CFI INIT 14faa0 143 .cfa: $rsp .ra: .cfa 8 - ^
STACK CFI 14faa0 .cfa: $rsp 96 +
STACK CFI INIT 14fbf0 77 .cfa: $rsp .ra: .cfa 8 - ^
STACK CFI 14fbf0 .cfa: $rsp 80 +
STACK CFI INIT 14fc70 47 .cfa: $rsp .ra: .cfa 8 - ^
STACK CFI 14fc70 .cfa: $rsp 8 +
STACK CFI INIT 14fcc0 13a .cfa: $rsp .ra: .cfa 8 - ^
STACK CFI 14fcc0 .cfa: $rsp 96 +
STACK CFI INIT 14fe00 e0 .cfa: $rsp .ra: .cfa 8 - ^
STACK CFI 14fe00 .cfa: $rsp 80 +
STACK CFI INIT 14fee0 e0 .cfa: $rsp .ra: .cfa 8 - ^
STACK CFI 14fee0 .cfa: $rsp 80 +
STACK CFI INIT 14ffc0 d0 .cfa: $rsp .ra: .cfa 8 - ^
STACK CFI 14ffc0 .cfa: $rsp 80 +
STACK CFI INIT 150090 47 .cfa: $rsp .ra: .cfa 8 - ^
STACK CFI 150090 .cfa: $rsp 64 +
STACK CFI INIT 1500e0 4a .cfa: $rsp .ra: .cfa 8 - ^
STACK CFI 1500e0 .cfa: $rsp 64 +
STACK CFI INIT 150130 4a .cfa: $rsp .ra: .cfa 8 - ^
STACK CFI 150130 .cfa: $rsp 64 +
STACK CFI INIT 150180 4b .cfa: $rsp .ra: .cfa 8 - ^
STACK CFI 150180 .cfa: $rsp 64 +
STACK CFI INIT 1501d0 17a .cfa: $rsp .ra: .cfa 8 - ^
STACK CFI 1501d0 .cfa: $rsp 80 +
STACK CFI INIT 150350 111 .cfa: $rsp .ra: .cfa 8 - ^
STACK CFI 150350 .cfa: $rsp 112 +
STACK CFI INIT 150470 102 .cfa: $rsp .ra: .cfa 8 - ^
STACK CFI 150470 .cfa: $rsp 80 +
STACK CFI INIT 150580 150 .cfa: $rsp .ra: .cfa 8 - ^
STACK CFI 150580 .cfa: $rsp 80 +
STACK CFI INIT 1506d0 102 .cfa: $rsp .ra: .cfa 8 - ^
STACK CFI 1506d0 .cfa: $rsp 80 +
STACK CFI INIT 1507e0 112 .cfa: $rsp .ra: .cfa 8 - ^
STACK CFI 1507e0 .cfa: $rsp 80 +
STACK CFI INIT 150900 1d6 .cfa: $rsp .ra: .cfa 8 - ^
STACK CFI 150900 .cfa: $rsp 112 +
STACK CFI INIT 150ae0 f2 .cfa: $rsp .ra: .cfa 8 - ^
STACK CFI 150ae0 .cfa: $rsp 80 +
STACK CFI INIT 150be0 50 .cfa: $rsp .ra: .cfa 8 - ^
STACK CFI 150be0 .cfa: $rsp 80 +
STACK CFI INIT 150c30 216 .cfa: $rsp .ra: .cfa 8 - ^
STACK CFI 150c30 .cfa: $rsp 128 +
STACK CFI INIT 150e50 100 .cfa: $rsp .ra: .cfa 8 - ^
STACK CFI 150e50 .cfa: $rsp 80 +
STACK CFI INIT 150f50 59 .cfa: $rsp .ra: .cfa 8 - ^
STACK CFI 150f50 .cfa: $rsp 64 +
STACK CFI INIT 150fb0 100 .cfa: $rsp .ra: .cfa 8 - ^
STACK CFI 150fb0 .cfa: $rsp 80 +
STACK CFI INIT 1510b0 f0 .cfa: $rsp .ra: .cfa 8 - ^
STACK CFI 1510b0 .cfa: $rsp 80 +
STACK CFI INIT 1511a0 59 .cfa: $rsp .ra: .cfa 8 - ^
STACK CFI 1511a0 .cfa: $rsp 64 +
STACK CFI INIT 151200 e0 .cfa: $rsp .ra: .cfa 8 - ^
STACK CFI 151200 .cfa: $rsp 80 +
STACK CFI INIT 1512e0 e0 .cfa: $rsp .ra: .cfa 8 - ^
STACK CFI 1512e0 .cfa: $rsp 80 +
STACK CFI INIT 1513c0 102 .cfa: $rsp .ra: .cfa 8 - ^
STACK CFI 1513c0 .cfa: $rsp 80 +
STACK CFI INIT 1514d0 143 .cfa: $rsp .ra: .cfa 8 - ^
STACK CFI 1514d0 .cfa: $rsp 96 +
STACK CFI INIT 151620 102 .cfa: $rsp .ra: .cfa 8 - ^
STACK CFI 151620 .cfa: $rsp 80 +
STACK CFI INIT 151730 4c .cfa: $rsp .ra: .cfa 8 - ^
STACK CFI 151730 .cfa: $rsp 64 +
STACK CFI INIT 151780 e0 .cfa: $rsp .ra: .cfa 8 - ^
STACK CFI 151780 .cfa: $rsp 80 +
STACK CFI INIT 151860 4c .cfa: $rsp .ra: .cfa 8 - ^
STACK CFI 151860 .cfa: $rsp 64 +
STACK CFI INIT 1518b0 d0 .cfa: $rsp .ra: .cfa 8 - ^
STACK CFI 1518b0 .cfa: $rsp 80 +
STACK CFI INIT 151980 f2 .cfa: $rsp .ra: .cfa 8 - ^
STACK CFI 151980 .cfa: $rsp 80 +
STACK CFI INIT 151a80 4a .cfa: $rsp .ra: .cfa 8 - ^
STACK CFI 151a80 .cfa: $rsp 64 +
STACK CFI INIT 151ad0 11d .cfa: $rsp .ra: .cfa 8 - ^
STACK CFI 151ad0 .cfa: $rsp 80 +
STACK CFI INIT 151bf0 d0 .cfa: $rsp .ra: .cfa 8 - ^
STACK CFI 151bf0 .cfa: $rsp 80 +
STACK CFI INIT 151cc0 d0 .cfa: $rsp .ra: .cfa 8 - ^
STACK CFI 151cc0 .cfa: $rsp 80 +
STACK CFI INIT 151d90 d0 .cfa: $rsp .ra: .cfa 8 - ^
STACK CFI 151d90 .cfa: $rsp 80 +
STACK CFI INIT 151e60 84 .cfa: $rsp .ra: .cfa 8 - ^
STACK CFI 151e60 .cfa: $rsp 80 +
STACK CFI INIT 151ef0 11d .cfa: $rsp .ra: .cfa 8 - ^
STACK CFI 151ef0 .cfa: $rsp 80 +
STACK CFI INIT 152010 d0 .cfa: $rsp .ra: .cfa 8 - ^
STACK CFI 152010 .cfa: $rsp 80 +
STACK CFI INIT 1520e0 75 .cfa: $rsp .ra: .cfa 8 - ^
STACK CFI 1520e0 .cfa: $rsp 80 +
STACK CFI INIT 152160 f2 .cfa: $rsp .ra: .cfa 8 - ^
STACK CFI 152160 .cfa: $rsp 80 +
STACK CFI INIT 152260 f2 .cfa: $rsp .ra: .cfa 8 - ^
STACK CFI 152260 .cfa: $rsp 80 +
STACK CFI INIT 152360 d0 .cfa: $rsp .ra: .cfa 8 - ^
STACK CFI 152360 .cfa: $rsp 80 +
STACK CFI INIT 152430 f2 .cfa: $rsp .ra: .cfa 8 - ^
STACK CFI 152430 .cfa: $rsp 80 +
STACK CFI INIT 152530 11d .cfa: $rsp .ra: .cfa 8 - ^
STACK CFI 152530 .cfa: $rsp 80 +
STACK CFI INIT 152650 4c .cfa: $rsp .ra: .cfa 8 - ^
STACK CFI 152650 .cfa: $rsp 64 +
STACK CFI INIT 1526a0 d0 .cfa: $rsp .ra: .cfa 8 - ^
STACK CFI 1526a0 .cfa: $rsp 80 +
STACK CFI INIT 152770 4c .cfa: $rsp .ra: .cfa 8 - ^
STACK CFI 152770 .cfa: $rsp 64 +
STACK CFI INIT 1527c0 d0 .cfa: $rsp .ra: .cfa 8 - ^
STACK CFI 1527c0 .cfa: $rsp 80 +
STACK CFI INIT 152890 f2 .cfa: $rsp .ra: .cfa 8 - ^
STACK CFI 152890 .cfa: $rsp 80 +
STACK CFI INIT 152990 d0 .cfa: $rsp .ra: .cfa 8 - ^
STACK CFI 152990 .cfa: $rsp 80 +
STACK CFI INIT 152a60 f2 .cfa: $rsp .ra: .cfa 8 - ^
STACK CFI 152a60 .cfa: $rsp 80 +
STACK CFI INIT 152b60 f2 .cfa: $rsp .ra: .cfa 8 - ^
STACK CFI 152b60 .cfa: $rsp 80 +
STACK CFI INIT 152c60 f2 .cfa: $rsp .ra: .cfa 8 - ^
STACK CFI 152c60 .cfa: $rsp 80 +
STACK CFI INIT 152d60 11d .cfa: $rsp .ra: .cfa 8 - ^
STACK CFI 152d60 .cfa: $rsp 80 +
STACK CFI INIT 152e80 4c .cfa: $rsp .ra: .cfa 8 - ^
STACK CFI 152e80 .cfa: $rsp 64 +
STACK CFI INIT 152ed0 f2 .cfa: $rsp .ra: .cfa 8 - ^
STACK CFI 152ed0 .cfa: $rsp 80 +
STACK CFI INIT 152fd0 f2 .cfa: $rsp .ra: .cfa 8 - ^
STACK CFI 152fd0 .cfa: $rsp 80 +
STACK CFI INIT 1530d0 f2 .cfa: $rsp .ra: .cfa 8 - ^
STACK CFI 1530d0 .cfa: $rsp 80 +
STACK CFI INIT 1531d0 6e .cfa: $rsp .ra: .cfa 8 - ^
STACK CFI 1531d0 .cfa: $rsp 64 +
STACK CFI INIT 153240 f2 .cfa: $rsp .ra: .cfa 8 - ^
STACK CFI 153240 .cfa: $rsp 80 +
STACK CFI INIT 153340 6e .cfa: $rsp .ra: .cfa 8 - ^
STACK CFI 153340 .cfa: $rsp 64 +
STACK CFI INIT 1533b0 d0 .cfa: $rsp .ra: .cfa 8 - ^
STACK CFI 1533b0 .cfa: $rsp 80 +
STACK CFI INIT 153480 d0 .cfa: $rsp .ra: .cfa 8 - ^
STACK CFI 153480 .cfa: $rsp 80 +
STACK CFI INIT 153550 59 .cfa: $rsp .ra: .cfa 8 - ^
STACK CFI 153550 .cfa: $rsp 64 +
STACK CFI INIT 1535b0 11d .cfa: $rsp .ra: .cfa 8 - ^
STACK CFI 1535b0 .cfa: $rsp 80 +
STACK CFI INIT 1536d0 6e .cfa: $rsp .ra: .cfa 8 - ^
STACK CFI 1536d0 .cfa: $rsp 64 +
STACK CFI INIT 153740 9f .cfa: $rsp .ra: .cfa 8 - ^
STACK CFI 153740 .cfa: $rsp 64 +
STACK CFI INIT 1537e0 c3 .cfa: $rsp .ra: .cfa 8 - ^
STACK CFI 1537e0 .cfa: $rsp 80 +
STACK CFI INIT 1538b0 31 .cfa: $rsp .ra: .cfa 8 - ^
STACK CFI 1538b0 .cfa: $rsp 8 +
STACK CFI INIT 1538f0 f7 .cfa: $rsp .ra: .cfa 8 - ^
STACK CFI 1538f0 .cfa: $rsp 64 +
STACK CFI INIT 1539f0 79 .cfa: $rsp .ra: .cfa 8 - ^
STACK CFI 1539f0 .cfa: $rsp 64 +
STACK CFI INIT 153a70 f2 .cfa: $rsp .ra: .cfa 8 - ^
STACK CFI 153a70 .cfa: $rsp 80 +
STACK CFI INIT 153b70 d0 .cfa: $rsp .ra: .cfa 8 - ^
STACK CFI 153b70 .cfa: $rsp 80 +
STACK CFI INIT 153c40 4c .cfa: $rsp .ra: .cfa 8 - ^
STACK CFI 153c40 .cfa: $rsp 64 +
STACK CFI INIT 153c90 f2 .cfa: $rsp .ra: .cfa 8 - ^
STACK CFI 153c90 .cfa: $rsp 80 +
STACK CFI INIT 153d90 c2 .cfa: $rsp .ra: .cfa 8 - ^
STACK CFI 153d90 .cfa: $rsp 64 +
STACK CFI INIT 153e60 31 .cfa: $rsp .ra: .cfa 8 - ^
STACK CFI 153e60 .cfa: $rsp 8 +
STACK CFI INIT 153ea0 4c .cfa: $rsp .ra: .cfa 8 - ^
STACK CFI 153ea0 .cfa: $rsp 64 +
STACK CFI INIT 153ef0 7f .cfa: $rsp .ra: .cfa 8 - ^
STACK CFI 153ef0 .cfa: $rsp 80 +
STACK CFI INIT 153f70 d3 .cfa: $rsp .ra: .cfa 8 - ^
STACK CFI 153f70 .cfa: $rsp 80 +
STACK CFI INIT 154050 a4 .cfa: $rsp .ra: .cfa 8 - ^
STACK CFI 154050 .cfa: $rsp 80 +
STACK CFI INIT 154100 d3 .cfa: $rsp .ra: .cfa 8 - ^
STACK CFI 154100 .cfa: $rsp 80 +
STACK CFI INIT 1541e0 4c .cfa: $rsp .ra: .cfa 8 - ^
STACK CFI 1541e0 .cfa: $rsp 64 +
STACK CFI INIT 154230 7b .cfa: $rsp .ra: .cfa 8 - ^
STACK CFI 154230 .cfa: $rsp 80 +
STACK CFI INIT 1542b0 a4 .cfa: $rsp .ra: .cfa 8 - ^
STACK CFI 1542b0 .cfa: $rsp 80 +
STACK CFI INIT 154360 cf8 .cfa: $rsp .ra: .cfa 8 - ^
STACK CFI 154360 .cfa: $rsp 400 +
STACK CFI INIT 155060 280 .cfa: $rsp .ra: .cfa 8 - ^
STACK CFI 155060 .cfa: $rsp 112 +
STACK CFI INIT 1552e0 2b0 .cfa: $rsp .ra: .cfa 8 - ^
STACK CFI 1552e0 .cfa: $rsp 112 +
STACK CFI INIT 155590 261 .cfa: $rsp .ra: .cfa 8 - ^
STACK CFI 155590 .cfa: $rsp 176 +
STACK CFI INIT 155800 1bc .cfa: $rsp .ra: .cfa 8 - ^
STACK CFI 155800 .cfa: $rsp 128 +
STACK CFI INIT 1559c0 2b0 .cfa: $rsp .ra: .cfa 8 - ^
STACK CFI 1559c0 .cfa: $rsp 112 +
STACK CFI INIT 155c70 2b0 .cfa: $rsp .ra: .cfa 8 - ^
STACK CFI 155c70 .cfa: $rsp 112 +
STACK CFI INIT 155f20 1bc .cfa: $rsp .ra: .cfa 8 - ^
STACK CFI 155f20 .cfa: $rsp 128 +
STACK CFI INIT 1560e0 57 .cfa: $rsp .ra: .cfa 8 - ^
STACK CFI 1560e0 .cfa: $rsp 8 +
STACK CFI INIT 156140 2a .cfa: $rsp .ra: .cfa 8 - ^
STACK CFI 156140 .cfa: $rsp 8 +
STACK CFI INIT 156170 1a9 .cfa: $rsp .ra: .cfa 8 - ^
STACK CFI 156170 .cfa: $rsp 112 +
STACK CFI INIT 156320 9d .cfa: $rsp .ra: .cfa 8 - ^
STACK CFI 156320 .cfa: $rsp 80 +
STACK CFI INIT 1563c0 2a .cfa: $rsp .ra: .cfa 8 - ^
STACK CFI 1563c0 .cfa: $rsp 8 +
STACK CFI INIT 1563f0 24d .cfa: $rsp .ra: .cfa 8 - ^
STACK CFI 1563f0 .cfa: $rsp 160 +
STACK CFI INIT 156640 6e .cfa: $rsp .ra: .cfa 8 - ^
STACK CFI 156640 .cfa: $rsp 80 +
STACK CFI INIT 1566b0 2a .cfa: $rsp .ra: .cfa 8 - ^
STACK CFI 1566b0 .cfa: $rsp 8 +
STACK CFI INIT 1566e0 27d .cfa: $rsp .ra: .cfa 8 - ^
STACK CFI 1566e0 .cfa: $rsp 160 +
STACK CFI INIT 156960 4ca .cfa: $rsp .ra: .cfa 8 - ^
STACK CFI 156960 .cfa: $rsp 128 +
STACK CFI INIT 156e30 6e .cfa: $rsp .ra: .cfa 8 - ^
STACK CFI 156e30 .cfa: $rsp 80 +
STACK CFI INIT 156ea0 208 .cfa: $rsp .ra: .cfa 8 - ^
STACK CFI 156ea0 .cfa: $rsp 128 +
STACK CFI INIT 1570b0 bd .cfa: $rsp .ra: .cfa 8 - ^
STACK CFI 1570b0 .cfa: $rsp 24 +
STACK CFI INIT 157170 2a .cfa: $rsp .ra: .cfa 8 - ^
STACK CFI 157170 .cfa: $rsp 8 +
STACK CFI INIT 1571a0 15e .cfa: $rsp .ra: .cfa 8 - ^
STACK CFI 1571a0 .cfa: $rsp 112 +
STACK CFI INIT 157300 6e .cfa: $rsp .ra: .cfa 8 - ^
STACK CFI 157300 .cfa: $rsp 80 +
STACK CFI INIT 157370 2a .cfa: $rsp .ra: .cfa 8 - ^
STACK CFI 157370 .cfa: $rsp 8 +
STACK CFI INIT 1573a0 24d .cfa: $rsp .ra: .cfa 8 - ^
STACK CFI 1573a0 .cfa: $rsp 160 +
STACK CFI INIT 1575f0 6e .cfa: $rsp .ra: .cfa 8 - ^
STACK CFI 1575f0 .cfa: $rsp 80 +
STACK CFI INIT 157660 2a .cfa: $rsp .ra: .cfa 8 - ^
STACK CFI 157660 .cfa: $rsp 8 +
STACK CFI INIT 157690 24d .cfa: $rsp .ra: .cfa 8 - ^
STACK CFI 157690 .cfa: $rsp 160 +
STACK CFI INIT 1578e0 2a .cfa: $rsp .ra: .cfa 8 - ^
STACK CFI 1578e0 .cfa: $rsp 8 +
STACK CFI INIT 157910 1ed .cfa: $rsp .ra: .cfa 8 - ^
STACK CFI 157910 .cfa: $rsp 112 +
STACK CFI INIT 157b00 2a .cfa: $rsp .ra: .cfa 8 - ^
STACK CFI 157b00 .cfa: $rsp 8 +
STACK CFI INIT 157b30 192 .cfa: $rsp .ra: .cfa 8 - ^
STACK CFI 157b30 .cfa: $rsp 96 +
STACK CFI INIT 157cd0 6f .cfa: $rsp .ra: .cfa 8 - ^
STACK CFI 157cd0 .cfa: $rsp 80 +
STACK CFI INIT 157d40 10d .cfa: $rsp .ra: .cfa 8 - ^
STACK CFI 157d40 .cfa: $rsp 24 +
STACK CFI INIT 157e50 2a .cfa: $rsp .ra: .cfa 8 - ^
STACK CFI 157e50 .cfa: $rsp 8 +
STACK CFI INIT 157e80 1b0 .cfa: $rsp .ra: .cfa 8 - ^
STACK CFI 157e80 .cfa: $rsp 112 +
STACK CFI INIT 158030 2a .cfa: $rsp .ra: .cfa 8 - ^
STACK CFI 158030 .cfa: $rsp 8 +
STACK CFI INIT 158060 191 .cfa: $rsp .ra: .cfa 8 - ^
STACK CFI 158060 .cfa: $rsp 96 +
STACK CFI INIT 158200 2a .cfa: $rsp .ra: .cfa 8 - ^
STACK CFI 158200 .cfa: $rsp 8 +
STACK CFI INIT 158230 1da .cfa: $rsp .ra: .cfa 8 - ^
STACK CFI 158230 .cfa: $rsp 96 +
STACK CFI INIT 158410 2a .cfa: $rsp .ra: .cfa 8 - ^
STACK CFI 158410 .cfa: $rsp 8 +
STACK CFI INIT 158440 17a .cfa: $rsp .ra: .cfa 8 - ^
STACK CFI 158440 .cfa: $rsp 96 +
STACK CFI INIT 1585c0 2e8 .cfa: $rsp .ra: .cfa 8 - ^
STACK CFI 1585c0 .cfa: $rsp 80 +
STACK CFI INIT 1588b0 2a .cfa: $rsp .ra: .cfa 8 - ^
STACK CFI 1588b0 .cfa: $rsp 8 +
STACK CFI INIT 1588e0 222 .cfa: $rsp .ra: .cfa 8 - ^
STACK CFI 1588e0 .cfa: $rsp 144 +
STACK CFI INIT 158b10 2a .cfa: $rsp .ra: .cfa 8 - ^
STACK CFI 158b10 .cfa: $rsp 8 +
STACK CFI INIT 158b40 142 .cfa: $rsp .ra: .cfa 8 - ^
STACK CFI 158b40 .cfa: $rsp 96 +
STACK CFI INIT 158c90 10d .cfa: $rsp .ra: .cfa 8 - ^
STACK CFI 158c90 .cfa: $rsp 24 +
STACK CFI INIT 158da0 2a .cfa: $rsp .ra: .cfa 8 - ^
STACK CFI 158da0 .cfa: $rsp 8 +
STACK CFI INIT 158dd0 17a .cfa: $rsp .ra: .cfa 8 - ^
STACK CFI 158dd0 .cfa: $rsp 96 +
STACK CFI INIT 158f50 2a .cfa: $rsp .ra: .cfa 8 - ^
STACK CFI 158f50 .cfa: $rsp 8 +
STACK CFI INIT 158f80 192 .cfa: $rsp .ra: .cfa 8 - ^
STACK CFI 158f80 .cfa: $rsp 96 +
STACK CFI INIT 159120 10d .cfa: $rsp .ra: .cfa 8 - ^
STACK CFI 159120 .cfa: $rsp 24 +
STACK CFI INIT 159230 2a .cfa: $rsp .ra: .cfa 8 - ^
STACK CFI 159230 .cfa: $rsp 8 +
STACK CFI INIT 159260 17a .cfa: $rsp .ra: .cfa 8 - ^
STACK CFI 159260 .cfa: $rsp 96 +
STACK CFI INIT 1593e0 37 .cfa: $rsp .ra: .cfa 8 - ^
STACK CFI 1593e0 .cfa: $rsp 8 +
STACK CFI INIT 159420 2a .cfa: $rsp .ra: .cfa 8 - ^
STACK CFI 159420 .cfa: $rsp 8 +
STACK CFI INIT 159450 17a .cfa: $rsp .ra: .cfa 8 - ^
STACK CFI 159450 .cfa: $rsp 96 +
STACK CFI INIT 1595d0 2a .cfa: $rsp .ra: .cfa 8 - ^
STACK CFI 1595d0 .cfa: $rsp 8 +
STACK CFI INIT 159600 17a .cfa: $rsp .ra: .cfa 8 - ^
STACK CFI 159600 .cfa: $rsp 96 +
STACK CFI INIT 159780 10d .cfa: $rsp .ra: .cfa 8 - ^
STACK CFI 159780 .cfa: $rsp 24 +
STACK CFI INIT 159890 2a .cfa: $rsp .ra: .cfa 8 - ^
STACK CFI 159890 .cfa: $rsp 8 +
STACK CFI INIT 1598c0 191 .cfa: $rsp .ra: .cfa 8 - ^
STACK CFI 1598c0 .cfa: $rsp 96 +
STACK CFI INIT 159a60 24d .cfa: $rsp .ra: .cfa 8 - ^
STACK CFI 159a60 .cfa: $rsp 128 +
STACK CFI INIT 159cb0 10d .cfa: $rsp .ra: .cfa 8 - ^
STACK CFI 159cb0 .cfa: $rsp 24 +
STACK CFI INIT 159dc0 2a .cfa: $rsp .ra: .cfa 8 - ^
STACK CFI 159dc0 .cfa: $rsp 8 +
STACK CFI INIT 159df0 17a .cfa: $rsp .ra: .cfa 8 - ^
STACK CFI 159df0 .cfa: $rsp 96 +
STACK CFI INIT 159f70 2a .cfa: $rsp .ra: .cfa 8 - ^
STACK CFI 159f70 .cfa: $rsp 8 +
STACK CFI INIT 159fa0 191 .cfa: $rsp .ra: .cfa 8 - ^
STACK CFI 159fa0 .cfa: $rsp 96 +
STACK CFI INIT 15a140 6e .cfa: $rsp .ra: .cfa 8 - ^
STACK CFI 15a140 .cfa: $rsp 80 +
STACK CFI INIT 15a1b0 b6 .cfa: $rsp .ra: .cfa 8 - ^
STACK CFI 15a1b0 .cfa: $rsp 40 +
STACK CFI INIT 15a270 2a .cfa: $rsp .ra: .cfa 8 - ^
STACK CFI 15a270 .cfa: $rsp 8 +
STACK CFI INIT 15a2a0 182 .cfa: $rsp .ra: .cfa 8 - ^
STACK CFI 15a2a0 .cfa: $rsp 112 +
STACK CFI INIT 15a430 2a .cfa: $rsp .ra: .cfa 8 - ^
STACK CFI 15a430 .cfa: $rsp 8 +
STACK CFI INIT 15a460 237 .cfa: $rsp .ra: .cfa 8 - ^
STACK CFI 15a460 .cfa: $rsp 96 +
STACK CFI INIT 15a6a0 dd .cfa: $rsp .ra: .cfa 8 - ^
STACK CFI 15a6a0 .cfa: $rsp 24 +
STACK CFI INIT 15a780 2a .cfa: $rsp .ra: .cfa 8 - ^
STACK CFI 15a780 .cfa: $rsp 8 +
STACK CFI INIT 15a7b0 1bf .cfa: $rsp .ra: .cfa 8 - ^
STACK CFI 15a7b0 .cfa: $rsp 96 +
STACK CFI INIT 15a970 37 .cfa: $rsp .ra: .cfa 8 - ^
STACK CFI 15a970 .cfa: $rsp 8 +
STACK CFI INIT 15a9b0 238 .cfa: $rsp .ra: .cfa 8 - ^
STACK CFI 15a9b0 .cfa: $rsp 128 +
STACK CFI INIT 15abf0 dd .cfa: $rsp .ra: .cfa 8 - ^
STACK CFI 15abf0 .cfa: $rsp 24 +
STACK CFI INIT 15acd0 2a .cfa: $rsp .ra: .cfa 8 - ^
STACK CFI 15acd0 .cfa: $rsp 8 +
STACK CFI INIT 15ad00 170 .cfa: $rsp .ra: .cfa 8 - ^
STACK CFI 15ad00 .cfa: $rsp 96 +
STACK CFI INIT 15ae70 dd .cfa: $rsp .ra: .cfa 8 - ^
STACK CFI 15ae70 .cfa: $rsp 24 +
STACK CFI INIT 15af50 2a .cfa: $rsp .ra: .cfa 8 - ^
STACK CFI 15af50 .cfa: $rsp 8 +
STACK CFI INIT 15af80 170 .cfa: $rsp .ra: .cfa 8 - ^
STACK CFI 15af80 .cfa: $rsp 96 +
STACK CFI INIT 15b0f0 346 .cfa: $rsp .ra: .cfa 8 - ^
STACK CFI 15b0f0 .cfa: $rsp 256 +
STACK CFI INIT 15b440 a2 .cfa: $rsp .ra: .cfa 8 - ^
STACK CFI 15b440 .cfa: $rsp 64 +
STACK CFI INIT 15b4f0 29 .cfa: $rsp .ra: .cfa 8 - ^
STACK CFI 15b4f0 .cfa: $rsp 48 +
STACK CFI INIT 15b520 f .cfa: $rsp .ra: .cfa 8 - ^
STACK CFI 15b520 .cfa: $rsp 8 +
STACK CFI INIT 15b530 29 .cfa: $rsp .ra: .cfa 8 - ^
STACK CFI 15b530 .cfa: $rsp 48 +
STACK CFI INIT 15b560 f .cfa: $rsp .ra: .cfa 8 - ^
STACK CFI 15b560 .cfa: $rsp 8 +
STACK CFI INIT 15b570 29 .cfa: $rsp .ra: .cfa 8 - ^
STACK CFI 15b570 .cfa: $rsp 48 +
STACK CFI INIT 15b5a0 f .cfa: $rsp .ra: .cfa 8 - ^
STACK CFI 15b5a0 .cfa: $rsp 8 +
STACK CFI INIT 15b5b0 2b .cfa: $rsp .ra: .cfa 8 - ^
STACK CFI 15b5b0 .cfa: $rsp 48 +
STACK CFI INIT 15b5e0 29 .cfa: $rsp .ra: .cfa 8 - ^
STACK CFI 15b5e0 .cfa: $rsp 48 +
STACK CFI INIT 15b610 f .cfa: $rsp .ra: .cfa 8 - ^
STACK CFI 15b610 .cfa: $rsp 8 +
STACK CFI INIT 15b620 a4 .cfa: $rsp .ra: .cfa 8 - ^
STACK CFI 15b620 .cfa: $rsp 64 +
STACK CFI INIT 15b6d0 9b .cfa: $rsp .ra: .cfa 8 - ^
STACK CFI 15b6d0 .cfa: $rsp 64 +
STACK CFI INIT 15b770 14f .cfa: $rsp .ra: .cfa 8 - ^
STACK CFI 15b770 .cfa: $rsp 64 +
STACK CFI INIT 15b8c0 2a .cfa: $rsp .ra: .cfa 8 - ^
STACK CFI 15b8c0 .cfa: $rsp 48 +
STACK CFI INIT 15b8f0 11 .cfa: $rsp .ra: .cfa 8 - ^
STACK CFI 15b8f0 .cfa: $rsp 8 +
STACK CFI INIT 15b910 9 .cfa: $rsp .ra: .cfa 8 - ^
STACK CFI 15b910 .cfa: $rsp 8 +
STACK CFI INIT 15b920 9 .cfa: $rsp .ra: .cfa 8 - ^
STACK CFI 15b920 .cfa: $rsp 8 +
STACK CFI INIT 15b930 9 .cfa: $rsp .ra: .cfa 8 - ^
STACK CFI 15b930 .cfa: $rsp 8 +
STACK CFI INIT 15b940 9 .cfa: $rsp .ra: .cfa 8 - ^
STACK CFI 15b940 .cfa: $rsp 8 +
STACK CFI INIT 15b950 29 .cfa: $rsp .ra: .cfa 8 - ^
STACK CFI 15b950 .cfa: $rsp 64 +
STACK CFI INIT 15b980 9 .cfa: $rsp .ra: .cfa 8 - ^
STACK CFI 15b980 .cfa: $rsp 8 +
STACK CFI INIT 15b990 9 .cfa: $rsp .ra: .cfa 8 - ^
STACK CFI 15b990 .cfa: $rsp 8 +
STACK CFI INIT 15b9a0 e6 .cfa: $rsp .ra: .cfa 8 - ^
STACK CFI 15b9a0 .cfa: $rsp 64 +
STACK CFI INIT 15ba90 9 .cfa: $rsp .ra: .cfa 8 - ^
STACK CFI 15ba90 .cfa: $rsp 8 +
STACK CFI INIT 15baa0 49 .cfa: $rsp .ra: .cfa 8 - ^
STACK CFI 15baa0 .cfa: $rsp 80 +
STACK CFI INIT 15baf0 9 .cfa: $rsp .ra: .cfa 8 - ^
STACK CFI 15baf0 .cfa: $rsp 8 +
STACK CFI INIT 15bb00 94 .cfa: $rsp .ra: .cfa 8 - ^
STACK CFI 15bb00 .cfa: $rsp 64 +
STACK CFI INIT 15bba0 88 .cfa: $rsp .ra: .cfa 8 - ^
STACK CFI 15bba0 .cfa: $rsp 64 +
STACK CFI INIT 15bc30 95 .cfa: $rsp .ra: .cfa 8 - ^
STACK CFI 15bc30 .cfa: $rsp 64 +
STACK CFI INIT 15bcd0 8d .cfa: $rsp .ra: .cfa 8 - ^
STACK CFI 15bcd0 .cfa: $rsp 64 +
STACK CFI INIT 15bd60 a .cfa: $rsp .ra: .cfa 8 - ^
STACK CFI 15bd60 .cfa: $rsp 8 +
STACK CFI INIT 15bd70 1 .cfa: $rsp .ra: .cfa 8 - ^
STACK CFI 15bd70 .cfa: $rsp 8 +
STACK CFI INIT 15bd80 a .cfa: $rsp .ra: .cfa 8 - ^
STACK CFI 15bd80 .cfa: $rsp 8 +
STACK CFI INIT 15bd90 1 .cfa: $rsp .ra: .cfa 8 - ^
STACK CFI 15bd90 .cfa: $rsp 8 +
STACK CFI INIT 15bda0 a .cfa: $rsp .ra: .cfa 8 - ^
STACK CFI 15bda0 .cfa: $rsp 8 +
STACK CFI INIT 15bdb0 1 .cfa: $rsp .ra: .cfa 8 - ^
STACK CFI 15bdb0 .cfa: $rsp 8 +
STACK CFI INIT 15bdc0 a .cfa: $rsp .ra: .cfa 8 - ^
STACK CFI 15bdc0 .cfa: $rsp 8 +
STACK CFI INIT 15bdd0 1 .cfa: $rsp .ra: .cfa 8 - ^
STACK CFI 15bdd0 .cfa: $rsp 8 +
STACK CFI INIT 15bde0 a .cfa: $rsp .ra: .cfa 8 - ^
STACK CFI 15bde0 .cfa: $rsp 8 +
STACK CFI INIT 15bdf0 1 .cfa: $rsp .ra: .cfa 8 - ^
STACK CFI 15bdf0 .cfa: $rsp 8 +
STACK CFI INIT 15be00 a .cfa: $rsp .ra: .cfa 8 - ^
STACK CFI 15be00 .cfa: $rsp 8 +
STACK CFI INIT 15be10 1 .cfa: $rsp .ra: .cfa 8 - ^
STACK CFI 15be10 .cfa: $rsp 8 +
STACK CFI INIT 15be20 a .cfa: $rsp .ra: .cfa 8 - ^
STACK CFI 15be20 .cfa: $rsp 8 +
STACK CFI INIT 15be30 1 .cfa: $rsp .ra: .cfa 8 - ^
STACK CFI 15be30 .cfa: $rsp 8 +
STACK CFI INIT 15be40 a .cfa: $rsp .ra: .cfa 8 - ^
STACK CFI 15be40 .cfa: $rsp 8 +
STACK CFI INIT 15be50 1 .cfa: $rsp .ra: .cfa 8 - ^
STACK CFI 15be50 .cfa: $rsp 8 +
STACK CFI INIT 15be60 a .cfa: $rsp .ra: .cfa 8 - ^
STACK CFI 15be60 .cfa: $rsp 8 +
STACK CFI INIT 15be70 1 .cfa: $rsp .ra: .cfa 8 - ^
STACK CFI 15be70 .cfa: $rsp 8 +
STACK CFI INIT 15be80 a .cfa: $rsp .ra: .cfa 8 - ^
STACK CFI 15be80 .cfa: $rsp 8 +
STACK CFI INIT 15be90 1 .cfa: $rsp .ra: .cfa 8 - ^
STACK CFI 15be90 .cfa: $rsp 8 +
STACK CFI INIT 15bea0 a .cfa: $rsp .ra: .cfa 8 - ^
STACK CFI 15bea0 .cfa: $rsp 8 +
STACK CFI INIT 15beb0 1 .cfa: $rsp .ra: .cfa 8 - ^
STACK CFI 15beb0 .cfa: $rsp 8 +
STACK CFI INIT 15bec0 a .cfa: $rsp .ra: .cfa 8 - ^
STACK CFI 15bec0 .cfa: $rsp 8 +
STACK CFI INIT 15bed0 1 .cfa: $rsp .ra: .cfa 8 - ^
STACK CFI 15bed0 .cfa: $rsp 8 +
STACK CFI INIT 15bee0 a .cfa: $rsp .ra: .cfa 8 - ^
STACK CFI 15bee0 .cfa: $rsp 8 +
STACK CFI INIT 15bef0 1 .cfa: $rsp .ra: .cfa 8 - ^
STACK CFI 15bef0 .cfa: $rsp 8 +
STACK CFI INIT 15bf00 a .cfa: $rsp .ra: .cfa 8 - ^
STACK CFI 15bf00 .cfa: $rsp 8 +
STACK CFI INIT 15bf10 1 .cfa: $rsp .ra: .cfa 8 - ^
STACK CFI 15bf10 .cfa: $rsp 8 +
STACK CFI INIT 15bf20 a .cfa: $rsp .ra: .cfa 8 - ^
STACK CFI 15bf20 .cfa: $rsp 8 +
STACK CFI INIT 15bf30 1 .cfa: $rsp .ra: .cfa 8 - ^
STACK CFI 15bf30 .cfa: $rsp 8 +
STACK CFI INIT 15bf40 a .cfa: $rsp .ra: .cfa 8 - ^
STACK CFI 15bf40 .cfa: $rsp 8 +
STACK CFI INIT 15bf50 1 .cfa: $rsp .ra: .cfa 8 - ^
STACK CFI 15bf50 .cfa: $rsp 8 +
STACK CFI INIT 15bf60 a .cfa: $rsp .ra: .cfa 8 - ^
STACK CFI 15bf60 .cfa: $rsp 8 +
STACK CFI INIT 15bf70 1 .cfa: $rsp .ra: .cfa 8 - ^
STACK CFI 15bf70 .cfa: $rsp 8 +
STACK CFI INIT 15bf80 a .cfa: $rsp .ra: .cfa 8 - ^
STACK CFI 15bf80 .cfa: $rsp 8 +
STACK CFI INIT 15bf90 1 .cfa: $rsp .ra: .cfa 8 - ^
STACK CFI 15bf90 .cfa: $rsp 8 +
STACK CFI INIT 15bfa0 a .cfa: $rsp .ra: .cfa 8 - ^
STACK CFI 15bfa0 .cfa: $rsp 8 +
STACK CFI INIT 15bfb0 1 .cfa: $rsp .ra: .cfa 8 - ^
STACK CFI 15bfb0 .cfa: $rsp 8 +
STACK CFI INIT 15bfc0 a .cfa: $rsp .ra: .cfa 8 - ^
STACK CFI 15bfc0 .cfa: $rsp 8 +
STACK CFI INIT 15bfd0 1 .cfa: $rsp .ra: .cfa 8 - ^
STACK CFI 15bfd0 .cfa: $rsp 8 +
STACK CFI INIT 15bfe0 a .cfa: $rsp .ra: .cfa 8 - ^
STACK CFI 15bfe0 .cfa: $rsp 8 +
STACK CFI INIT 15bff0 1 .cfa: $rsp .ra: .cfa 8 - ^
STACK CFI 15bff0 .cfa: $rsp 8 +
STACK CFI INIT 15c000 a .cfa: $rsp .ra: .cfa 8 - ^
STACK CFI 15c000 .cfa: $rsp 8 +
STACK CFI INIT 15c010 1 .cfa: $rsp .ra: .cfa 8 - ^
STACK CFI 15c010 .cfa: $rsp 8 +
STACK CFI INIT 15c020 a .cfa: $rsp .ra: .cfa 8 - ^
STACK CFI 15c020 .cfa: $rsp 8 +
STACK CFI INIT 15c030 1 .cfa: $rsp .ra: .cfa 8 - ^
STACK CFI 15c030 .cfa: $rsp 8 +
STACK CFI INIT 15c040 a .cfa: $rsp .ra: .cfa 8 - ^
STACK CFI 15c040 .cfa: $rsp 8 +
STACK CFI INIT 15c050 1 .cfa: $rsp .ra: .cfa 8 - ^
STACK CFI 15c050 .cfa: $rsp 8 +
STACK CFI INIT 15c060 a .cfa: $rsp .ra: .cfa 8 - ^
STACK CFI 15c060 .cfa: $rsp 8 +
STACK CFI INIT 15c070 1 .cfa: $rsp .ra: .cfa 8 - ^
STACK CFI 15c070 .cfa: $rsp 8 +
STACK CFI INIT 15c080 a .cfa: $rsp .ra: .cfa 8 - ^
STACK CFI 15c080 .cfa: $rsp 8 +
STACK CFI INIT 15c090 1 .cfa: $rsp .ra: .cfa 8 - ^
STACK CFI 15c090 .cfa: $rsp 8 +
STACK CFI INIT 15c0a0 a .cfa: $rsp .ra: .cfa 8 - ^
STACK CFI 15c0a0 .cfa: $rsp 8 +
STACK CFI INIT 15c0b0 1 .cfa: $rsp .ra: .cfa 8 - ^
STACK CFI 15c0b0 .cfa: $rsp 8 +
STACK CFI INIT 15c0c0 a .cfa: $rsp .ra: .cfa 8 - ^
STACK CFI 15c0c0 .cfa: $rsp 8 +
STACK CFI INIT 15c0d0 1 .cfa: $rsp .ra: .cfa 8 - ^
STACK CFI 15c0d0 .cfa: $rsp 8 +
STACK CFI INIT 15c0e0 a .cfa: $rsp .ra: .cfa 8 - ^
STACK CFI 15c0e0 .cfa: $rsp 8 +
STACK CFI INIT 15c0f0 1 .cfa: $rsp .ra: .cfa 8 - ^
STACK CFI 15c0f0 .cfa: $rsp 8 +
STACK CFI INIT 15c100 a .cfa: $rsp .ra: .cfa 8 - ^
STACK CFI 15c100 .cfa: $rsp 8 +
STACK CFI INIT 15c110 1 .cfa: $rsp .ra: .cfa 8 - ^
STACK CFI 15c110 .cfa: $rsp 8 +
STACK CFI INIT 15c120 a .cfa: $rsp .ra: .cfa 8 - ^
STACK CFI 15c120 .cfa: $rsp 8 +
STACK CFI INIT 15c130 1 .cfa: $rsp .ra: .cfa 8 - ^
STACK CFI 15c130 .cfa: $rsp 8 +
STACK CFI INIT 15c140 a .cfa: $rsp .ra: .cfa 8 - ^
STACK CFI 15c140 .cfa: $rsp 8 +
STACK CFI INIT 15c150 1 .cfa: $rsp .ra: .cfa 8 - ^
STACK CFI 15c150 .cfa: $rsp 8 +
STACK CFI INIT 15c160 a .cfa: $rsp .ra: .cfa 8 - ^
STACK CFI 15c160 .cfa: $rsp 8 +
STACK CFI INIT 15c170 1 .cfa: $rsp .ra: .cfa 8 - ^
STACK CFI 15c170 .cfa: $rsp 8 +
STACK CFI INIT 15c180 a .cfa: $rsp .ra: .cfa 8 - ^
STACK CFI 15c180 .cfa: $rsp 8 +
STACK CFI INIT 15c190 1 .cfa: $rsp .ra: .cfa 8 - ^
STACK CFI 15c190 .cfa: $rsp 8 +
STACK CFI INIT 15c1a0 a .cfa: $rsp .ra: .cfa 8 - ^
STACK CFI 15c1a0 .cfa: $rsp 8 +
STACK CFI INIT 15c1b0 1 .cfa: $rsp .ra: .cfa 8 - ^
STACK CFI 15c1b0 .cfa: $rsp 8 +
STACK CFI INIT 15c1c0 a .cfa: $rsp .ra: .cfa 8 - ^
STACK CFI 15c1c0 .cfa: $rsp 8 +
STACK CFI INIT 15c1d0 1 .cfa: $rsp .ra: .cfa 8 - ^
STACK CFI 15c1d0 .cfa: $rsp 8 +
STACK CFI INIT 15c1e0 a .cfa: $rsp .ra: .cfa 8 - ^
STACK CFI 15c1e0 .cfa: $rsp 8 +
STACK CFI INIT 15c1f0 1 .cfa: $rsp .ra: .cfa 8 - ^
STACK CFI 15c1f0 .cfa: $rsp 8 +
STACK CFI INIT 15c200 a .cfa: $rsp .ra: .cfa 8 - ^
STACK CFI 15c200 .cfa: $rsp 8 +
STACK CFI INIT 15c210 1 .cfa: $rsp .ra: .cfa 8 - ^
STACK CFI 15c210 .cfa: $rsp 8 +
STACK CFI INIT 15c220 a .cfa: $rsp .ra: .cfa 8 - ^
STACK CFI 15c220 .cfa: $rsp 8 +
STACK CFI INIT 15c230 1 .cfa: $rsp .ra: .cfa 8 - ^
STACK CFI 15c230 .cfa: $rsp 8 +
STACK CFI INIT 15c240 a .cfa: $rsp .ra: .cfa 8 - ^
STACK CFI 15c240 .cfa: $rsp 8 +
STACK CFI INIT 15c250 1 .cfa: $rsp .ra: .cfa 8 - ^
STACK CFI 15c250 .cfa: $rsp 8 +
STACK CFI INIT 15c260 a .cfa: $rsp .ra: .cfa 8 - ^
STACK CFI 15c260 .cfa: $rsp 8 +
STACK CFI INIT 15c270 1 .cfa: $rsp .ra: .cfa 8 - ^
STACK CFI 15c270 .cfa: $rsp 8 +
STACK CFI INIT 15c280 a .cfa: $rsp .ra: .cfa 8 - ^
STACK CFI 15c280 .cfa: $rsp 8 +
STACK CFI INIT 15c290 1 .cfa: $rsp .ra: .cfa 8 - ^
STACK CFI 15c290 .cfa: $rsp 8 +
STACK CFI INIT 15c2a0 a .cfa: $rsp .ra: .cfa 8 - ^
STACK CFI 15c2a0 .cfa: $rsp 8 +
STACK CFI INIT 15c2b0 1 .cfa: $rsp .ra: .cfa 8 - ^
STACK CFI 15c2b0 .cfa: $rsp 8 +
STACK CFI INIT 15c2c0 a .cfa: $rsp .ra: .cfa 8 - ^
STACK CFI 15c2c0 .cfa: $rsp 8 +
STACK CFI INIT 15c2d0 1 .cfa: $rsp .ra: .cfa 8 - ^
STACK CFI 15c2d0 .cfa: $rsp 8 +
STACK CFI INIT 15c2e0 a .cfa: $rsp .ra: .cfa 8 - ^
STACK CFI 15c2e0 .cfa: $rsp 8 +
STACK CFI INIT 15c2f0 1 .cfa: $rsp .ra: .cfa 8 - ^
STACK CFI 15c2f0 .cfa: $rsp 8 +
STACK CFI INIT 15c300 a .cfa: $rsp .ra: .cfa 8 - ^
STACK CFI 15c300 .cfa: $rsp 8 +
STACK CFI INIT 15c310 1 .cfa: $rsp .ra: .cfa 8 - ^
STACK CFI 15c310 .cfa: $rsp 8 +
STACK CFI INIT 15c320 a .cfa: $rsp .ra: .cfa 8 - ^
STACK CFI 15c320 .cfa: $rsp 8 +
STACK CFI INIT 15c330 1 .cfa: $rsp .ra: .cfa 8 - ^
STACK CFI 15c330 .cfa: $rsp 8 +
STACK CFI INIT 15c340 a .cfa: $rsp .ra: .cfa 8 - ^
STACK CFI 15c340 .cfa: $rsp 8 +
STACK CFI INIT 15c350 1 .cfa: $rsp .ra: .cfa 8 - ^
STACK CFI 15c350 .cfa: $rsp 8 +
STACK CFI INIT 15c360 a .cfa: $rsp .ra: .cfa 8 - ^
STACK CFI 15c360 .cfa: $rsp 8 +
STACK CFI INIT 15c370 1 .cfa: $rsp .ra: .cfa 8 - ^
STACK CFI 15c370 .cfa: $rsp 8 +
STACK CFI INIT 15c380 a .cfa: $rsp .ra: .cfa 8 - ^
STACK CFI 15c380 .cfa: $rsp 8 +
STACK CFI INIT 15c390 1 .cfa: $rsp .ra: .cfa 8 - ^
STACK CFI 15c390 .cfa: $rsp 8 +
STACK CFI INIT 15c3a0 a .cfa: $rsp .ra: .cfa 8 - ^
STACK CFI 15c3a0 .cfa: $rsp 8 +
STACK CFI INIT 15c3b0 1 .cfa: $rsp .ra: .cfa 8 - ^
STACK CFI 15c3b0 .cfa: $rsp 8 +
STACK CFI INIT 15c3c0 a .cfa: $rsp .ra: .cfa 8 - ^
STACK CFI 15c3c0 .cfa: $rsp 8 +
STACK CFI INIT 15c3d0 1 .cfa: $rsp .ra: .cfa 8 - ^
STACK CFI 15c3d0 .cfa: $rsp 8 +
STACK CFI INIT 15c3e0 a .cfa: $rsp .ra: .cfa 8 - ^
STACK CFI 15c3e0 .cfa: $rsp 8 +
STACK CFI INIT 15c3f0 1 .cfa: $rsp .ra: .cfa 8 - ^
STACK CFI 15c3f0 .cfa: $rsp 8 +
STACK CFI INIT 15c400 a .cfa: $rsp .ra: .cfa 8 - ^
STACK CFI 15c400 .cfa: $rsp 8 +
STACK CFI INIT 15c410 1 .cfa: $rsp .ra: .cfa 8 - ^
STACK CFI 15c410 .cfa: $rsp 8 +
STACK CFI INIT 15c420 a .cfa: $rsp .ra: .cfa 8 - ^
STACK CFI 15c420 .cfa: $rsp 8 +
STACK CFI INIT 15c430 1 .cfa: $rsp .ra: .cfa 8 - ^
STACK CFI 15c430 .cfa: $rsp 8 +
STACK CFI INIT 15c440 a .cfa: $rsp .ra: .cfa 8 - ^
STACK CFI 15c440 .cfa: $rsp 8 +
STACK CFI INIT 15c450 1 .cfa: $rsp .ra: .cfa 8 - ^
STACK CFI 15c450 .cfa: $rsp 8 +
STACK CFI INIT 15c460 a .cfa: $rsp .ra: .cfa 8 - ^
STACK CFI 15c460 .cfa: $rsp 8 +
STACK CFI INIT 15c470 1 .cfa: $rsp .ra: .cfa 8 - ^
STACK CFI 15c470 .cfa: $rsp 8 +
STACK CFI INIT 15c480 a .cfa: $rsp .ra: .cfa 8 - ^
STACK CFI 15c480 .cfa: $rsp 8 +
STACK CFI INIT 15c490 1 .cfa: $rsp .ra: .cfa 8 - ^
STACK CFI 15c490 .cfa: $rsp 8 +
STACK CFI INIT 15c4a0 a .cfa: $rsp .ra: .cfa 8 - ^
STACK CFI 15c4a0 .cfa: $rsp 8 +
STACK CFI INIT 15c4b0 1 .cfa: $rsp .ra: .cfa 8 - ^
STACK CFI 15c4b0 .cfa: $rsp 8 +
STACK CFI INIT 15c4c0 a .cfa: $rsp .ra: .cfa 8 - ^
STACK CFI 15c4c0 .cfa: $rsp 8 +
STACK CFI INIT 15c4d0 1 .cfa: $rsp .ra: .cfa 8 - ^
STACK CFI 15c4d0 .cfa: $rsp 8 +
STACK CFI INIT 15c4e0 a .cfa: $rsp .ra: .cfa 8 - ^
STACK CFI 15c4e0 .cfa: $rsp 8 +
STACK CFI INIT 15c4f0 1 .cfa: $rsp .ra: .cfa 8 - ^
STACK CFI 15c4f0 .cfa: $rsp 8 +
STACK CFI INIT 15c500 a .cfa: $rsp .ra: .cfa 8 - ^
STACK CFI 15c500 .cfa: $rsp 8 +
STACK CFI INIT 15c510 1 .cfa: $rsp .ra: .cfa 8 - ^
STACK CFI 15c510 .cfa: $rsp 8 +
STACK CFI INIT 15c520 a .cfa: $rsp .ra: .cfa 8 - ^
STACK CFI 15c520 .cfa: $rsp 8 +
STACK CFI INIT 15c530 1 .cfa: $rsp .ra: .cfa 8 - ^
STACK CFI 15c530 .cfa: $rsp 8 +
STACK CFI INIT 15c540 a .cfa: $rsp .ra: .cfa 8 - ^
STACK CFI 15c540 .cfa: $rsp 8 +
STACK CFI INIT 15c550 1 .cfa: $rsp .ra: .cfa 8 - ^
STACK CFI 15c550 .cfa: $rsp 8 +
STACK CFI INIT 15c560 a .cfa: $rsp .ra: .cfa 8 - ^
STACK CFI 15c560 .cfa: $rsp 8 +
STACK CFI INIT 15c570 1 .cfa: $rsp .ra: .cfa 8 - ^
STACK CFI 15c570 .cfa: $rsp 8 +
STACK CFI INIT 15c580 a .cfa: $rsp .ra: .cfa 8 - ^
STACK CFI 15c580 .cfa: $rsp 8 +
STACK CFI INIT 15c590 1 .cfa: $rsp .ra: .cfa 8 - ^
STACK CFI 15c590 .cfa: $rsp 8 +
STACK CFI INIT 15c5a0 a .cfa: $rsp .ra: .cfa 8 - ^
STACK CFI 15c5a0 .cfa: $rsp 8 +
STACK CFI INIT 15c5b0 1 .cfa: $rsp .ra: .cfa 8 - ^
STACK CFI 15c5b0 .cfa: $rsp 8 +
STACK CFI INIT 15c5c0 a .cfa: $rsp .ra: .cfa 8 - ^
STACK CFI 15c5c0 .cfa: $rsp 8 +
STACK CFI INIT 15c5d0 1 .cfa: $rsp .ra: .cfa 8 - ^
STACK CFI 15c5d0 .cfa: $rsp 8 +
STACK CFI INIT 15c5e0 a .cfa: $rsp .ra: .cfa 8 - ^
STACK CFI 15c5e0 .cfa: $rsp 8 +
STACK CFI INIT 15c5f0 1 .cfa: $rsp .ra: .cfa 8 - ^
STACK CFI 15c5f0 .cfa: $rsp 8 +
STACK CFI INIT 15c600 a .cfa: $rsp .ra: .cfa 8 - ^
STACK CFI 15c600 .cfa: $rsp 8 +
STACK CFI INIT 15c610 1 .cfa: $rsp .ra: .cfa 8 - ^
STACK CFI 15c610 .cfa: $rsp 8 +
STACK CFI INIT 15c620 a .cfa: $rsp .ra: .cfa 8 - ^
STACK CFI 15c620 .cfa: $rsp 8 +
STACK CFI INIT 15c630 1 .cfa: $rsp .ra: .cfa 8 - ^
STACK CFI 15c630 .cfa: $rsp 8 +
STACK CFI INIT 15c640 a .cfa: $rsp .ra: .cfa 8 - ^
STACK CFI 15c640 .cfa: $rsp 8 +
STACK CFI INIT 15c650 1 .cfa: $rsp .ra: .cfa 8 - ^
STACK CFI 15c650 .cfa: $rsp 8 +
STACK CFI INIT 15c660 6 .cfa: $rsp .ra: .cfa 8 - ^
STACK CFI 15c660 .cfa: $rsp 8 +
STACK CFI INIT 15c670 6 .cfa: $rsp .ra: .cfa 8 - ^
STACK CFI 15c670 .cfa: $rsp 8 +
STACK CFI INIT 15c680 6 .cfa: $rsp .ra: .cfa 8 - ^
STACK CFI 15c680 .cfa: $rsp 8 +
STACK CFI INIT 15c690 6 .cfa: $rsp .ra: .cfa 8 - ^
STACK CFI 15c690 .cfa: $rsp 8 +
STACK CFI INIT 15c6a0 6 .cfa: $rsp .ra: .cfa 8 - ^
STACK CFI 15c6a0 .cfa: $rsp 8 +
STACK CFI INIT 15c6b0 6 .cfa: $rsp .ra: .cfa 8 - ^
STACK CFI 15c6b0 .cfa: $rsp 8 +
STACK CFI INIT 15c6c0 6 .cfa: $rsp .ra: .cfa 8 - ^
STACK CFI 15c6c0 .cfa: $rsp 8 +
STACK CFI INIT 15c6d0 6 .cfa: $rsp .ra: .cfa 8 - ^
STACK CFI 15c6d0 .cfa: $rsp 8 +
STACK CFI INIT 15c6e0 6 .cfa: $rsp .ra: .cfa 8 - ^
STACK CFI 15c6e0 .cfa: $rsp 8 +
STACK CFI INIT 15c6f0 6 .cfa: $rsp .ra: .cfa 8 - ^
STACK CFI 15c6f0 .cfa: $rsp 8 +
STACK CFI INIT 15c700 6 .cfa: $rsp .ra: .cfa 8 - ^
STACK CFI 15c700 .cfa: $rsp 8 +
STACK CFI INIT 15c710 6 .cfa: $rsp .ra: .cfa 8 - ^
STACK CFI 15c710 .cfa: $rsp 8 +
STACK CFI INIT 15c720 6 .cfa: $rsp .ra: .cfa 8 - ^
STACK CFI 15c720 .cfa: $rsp 8 +
STACK CFI INIT 15c730 6 .cfa: $rsp .ra: .cfa 8 - ^
STACK CFI 15c730 .cfa: $rsp 8 +
STACK CFI INIT 15c740 6 .cfa: $rsp .ra: .cfa 8 - ^
STACK CFI 15c740 .cfa: $rsp 8 +
STACK CFI INIT 15c750 6 .cfa: $rsp .ra: .cfa 8 - ^
STACK CFI 15c750 .cfa: $rsp 8 +
STACK CFI INIT 15c760 6 .cfa: $rsp .ra: .cfa 8 - ^
STACK CFI 15c760 .cfa: $rsp 8 +
STACK CFI INIT 15c770 6 .cfa: $rsp .ra: .cfa 8 - ^
STACK CFI 15c770 .cfa: $rsp 8 +
STACK CFI INIT 15c780 6 .cfa: $rsp .ra: .cfa 8 - ^
STACK CFI 15c780 .cfa: $rsp 8 +
STACK CFI INIT 15c790 6 .cfa: $rsp .ra: .cfa 8 - ^
STACK CFI 15c790 .cfa: $rsp 8 +
STACK CFI INIT 15c7a0 6 .cfa: $rsp .ra: .cfa 8 - ^
STACK CFI 15c7a0 .cfa: $rsp 8 +
STACK CFI INIT 15c7b0 6 .cfa: $rsp .ra: .cfa 8 - ^
STACK CFI 15c7b0 .cfa: $rsp 8 +
STACK CFI INIT 15c7c0 6 .cfa: $rsp .ra: .cfa 8 - ^
STACK CFI 15c7c0 .cfa: $rsp 8 +
STACK CFI INIT 15c7d0 6 .cfa: $rsp .ra: .cfa 8 - ^
STACK CFI 15c7d0 .cfa: $rsp 8 +
STACK CFI INIT 15c7e0 6 .cfa: $rsp .ra: .cfa 8 - ^
STACK CFI 15c7e0 .cfa: $rsp 8 +
STACK CFI INIT 15c7f0 6 .cfa: $rsp .ra: .cfa 8 - ^
STACK CFI 15c7f0 .cfa: $rsp 8 +
STACK CFI INIT 15c800 6 .cfa: $rsp .ra: .cfa 8 - ^
STACK CFI 15c800 .cfa: $rsp 8 +
STACK CFI INIT 15c810 6 .cfa: $rsp .ra: .cfa 8 - ^
STACK CFI 15c810 .cfa: $rsp 8 +
STACK CFI INIT 15c820 6 .cfa: $rsp .ra: .cfa 8 - ^
STACK CFI 15c820 .cfa: $rsp 8 +
STACK CFI INIT 15c830 6 .cfa: $rsp .ra: .cfa 8 - ^
STACK CFI 15c830 .cfa: $rsp 8 +
STACK CFI INIT 15c840 6 .cfa: $rsp .ra: .cfa 8 - ^
STACK CFI 15c840 .cfa: $rsp 8 +
STACK CFI INIT 15c850 6 .cfa: $rsp .ra: .cfa 8 - ^
STACK CFI 15c850 .cfa: $rsp 8 +
STACK CFI INIT 15c860 6 .cfa: $rsp .ra: .cfa 8 - ^
STACK CFI 15c860 .cfa: $rsp 8 +
STACK CFI INIT 15c870 6 .cfa: $rsp .ra: .cfa 8 - ^
STACK CFI 15c870 .cfa: $rsp 8 +
STACK CFI INIT 15c880 6 .cfa: $rsp .ra: .cfa 8 - ^
STACK CFI 15c880 .cfa: $rsp 8 +
STACK CFI INIT 15c890 6 .cfa: $rsp .ra: .cfa 8 - ^
STACK CFI 15c890 .cfa: $rsp 8 +
STACK CFI INIT 15c8a0 6 .cfa: $rsp .ra: .cfa 8 - ^
STACK CFI 15c8a0 .cfa: $rsp 8 +
STACK CFI INIT 15c8b0 6 .cfa: $rsp .ra: .cfa 8 - ^
STACK CFI 15c8b0 .cfa: $rsp 8 +
STACK CFI INIT 15c8c0 6 .cfa: $rsp .ra: .cfa 8 - ^
STACK CFI 15c8c0 .cfa: $rsp 8 +
STACK CFI INIT 15c8d0 6 .cfa: $rsp .ra: .cfa 8 - ^
STACK CFI 15c8d0 .cfa: $rsp 8 +
STACK CFI INIT 15c8e0 6 .cfa: $rsp .ra: .cfa 8 - ^
STACK CFI 15c8e0 .cfa: $rsp 8 +
STACK CFI INIT 15c8f0 6 .cfa: $rsp .ra: .cfa 8 - ^
STACK CFI 15c8f0 .cfa: $rsp 8 +
STACK CFI INIT 15c900 6 .cfa: $rsp .ra: .cfa 8 - ^
STACK CFI 15c900 .cfa: $rsp 8 +
STACK CFI INIT 15c910 6 .cfa: $rsp .ra: .cfa 8 - ^
STACK CFI 15c910 .cfa: $rsp 8 +
STACK CFI INIT 15c920 6 .cfa: $rsp .ra: .cfa 8 - ^
STACK CFI 15c920 .cfa: $rsp 8 +
STACK CFI INIT 15c930 6 .cfa: $rsp .ra: .cfa 8 - ^
STACK CFI 15c930 .cfa: $rsp 8 +
STACK CFI INIT 15c940 6 .cfa: $rsp .ra: .cfa 8 - ^
STACK CFI 15c940 .cfa: $rsp 8 +
STACK CFI INIT 15c950 6 .cfa: $rsp .ra: .cfa 8 - ^
STACK CFI 15c950 .cfa: $rsp 8 +
STACK CFI INIT 15c960 6 .cfa: $rsp .ra: .cfa 8 - ^
STACK CFI 15c960 .cfa: $rsp 8 +
STACK CFI INIT 15c970 6 .cfa: $rsp .ra: .cfa 8 - ^
STACK CFI 15c970 .cfa: $rsp 8 +
STACK CFI INIT 15c980 6 .cfa: $rsp .ra: .cfa 8 - ^
STACK CFI 15c980 .cfa: $rsp 8 +
STACK CFI INIT 15c990 6 .cfa: $rsp .ra: .cfa 8 - ^
STACK CFI 15c990 .cfa: $rsp 8 +
STACK CFI INIT 15c9a0 6 .cfa: $rsp .ra: .cfa 8 - ^
STACK CFI 15c9a0 .cfa: $rsp 8 +
STACK CFI INIT 15c9b0 6 .cfa: $rsp .ra: .cfa 8 - ^
STACK CFI 15c9b0 .cfa: $rsp 8 +
STACK CFI INIT 15c9c0 6 .cfa: $rsp .ra: .cfa 8 - ^
STACK CFI 15c9c0 .cfa: $rsp 8 +
STACK CFI INIT 15c9d0 6 .cfa: $rsp .ra: .cfa 8 - ^
STACK CFI 15c9d0 .cfa: $rsp 8 +
STACK CFI INIT 15c9e0 6 .cfa: $rsp .ra: .cfa 8 - ^
STACK CFI 15c9e0 .cfa: $rsp 8 +
STACK CFI INIT 15c9f0 6 .cfa: $rsp .ra: .cfa 8 - ^
STACK CFI 15c9f0 .cfa: $rsp 8 +
STACK CFI INIT 15ca00 6 .cfa: $rsp .ra: .cfa 8 - ^
STACK CFI 15ca00 .cfa: $rsp 8 +
STACK CFI INIT 15ca10 6 .cfa: $rsp .ra: .cfa 8 - ^
STACK CFI 15ca10 .cfa: $rsp 8 +
STACK CFI INIT 15ca20 6 .cfa: $rsp .ra: .cfa 8 - ^
STACK CFI 15ca20 .cfa: $rsp 8 +
STACK CFI INIT 15ca30 6 .cfa: $rsp .ra: .cfa 8 - ^
STACK CFI 15ca30 .cfa: $rsp 8 +
STACK CFI INIT 15ca40 6 .cfa: $rsp .ra: .cfa 8 - ^
STACK CFI 15ca40 .cfa: $rsp 8 +
STACK CFI INIT 15ca50 6 .cfa: $rsp .ra: .cfa 8 - ^
STACK CFI 15ca50 .cfa: $rsp 8 +
STACK CFI INIT 15ca60 6 .cfa: $rsp .ra: .cfa 8 - ^
STACK CFI 15ca60 .cfa: $rsp 8 +
STACK CFI INIT 15ca70 6 .cfa: $rsp .ra: .cfa 8 - ^
STACK CFI 15ca70 .cfa: $rsp 8 +
STACK CFI INIT 15ca80 6 .cfa: $rsp .ra: .cfa 8 - ^
STACK CFI 15ca80 .cfa: $rsp 8 +
STACK CFI INIT 15ca90 6 .cfa: $rsp .ra: .cfa 8 - ^
STACK CFI 15ca90 .cfa: $rsp 8 +
STACK CFI INIT 15caa0 6 .cfa: $rsp .ra: .cfa 8 - ^
STACK CFI 15caa0 .cfa: $rsp 8 +
STACK CFI INIT 15cab0 6 .cfa: $rsp .ra: .cfa 8 - ^
STACK CFI 15cab0 .cfa: $rsp 8 +
STACK CFI INIT 15cac0 6 .cfa: $rsp .ra: .cfa 8 - ^
STACK CFI 15cac0 .cfa: $rsp 8 +
STACK CFI INIT 15cad0 6 .cfa: $rsp .ra: .cfa 8 - ^
STACK CFI 15cad0 .cfa: $rsp 8 +
STACK CFI INIT 15cae0 6 .cfa: $rsp .ra: .cfa 8 - ^
STACK CFI 15cae0 .cfa: $rsp 8 +
STACK CFI INIT 15caf0 1 .cfa: $rsp .ra: .cfa 8 - ^
STACK CFI 15caf0 .cfa: $rsp 8 +
STACK CFI INIT 15cb00 1 .cfa: $rsp .ra: .cfa 8 - ^
STACK CFI 15cb00 .cfa: $rsp 8 +
STACK CFI INIT 15cb10 1 .cfa: $rsp .ra: .cfa 8 - ^
STACK CFI 15cb10 .cfa: $rsp 8 +
STACK CFI INIT 15cb20 1 .cfa: $rsp .ra: .cfa 8 - ^
STACK CFI 15cb20 .cfa: $rsp 8 +
STACK CFI INIT 15cb30 1 .cfa: $rsp .ra: .cfa 8 - ^
STACK CFI 15cb30 .cfa: $rsp 8 +
STACK CFI INIT 15cb40 1 .cfa: $rsp .ra: .cfa 8 - ^
STACK CFI 15cb40 .cfa: $rsp 8 +
STACK CFI INIT 15cb50 1 .cfa: $rsp .ra: .cfa 8 - ^
STACK CFI 15cb50 .cfa: $rsp 8 +
STACK CFI INIT 15cb60 1 .cfa: $rsp .ra: .cfa 8 - ^
STACK CFI 15cb60 .cfa: $rsp 8 +
STACK CFI INIT 15cb70 1 .cfa: $rsp .ra: .cfa 8 - ^
STACK CFI 15cb70 .cfa: $rsp 8 +
STACK CFI INIT 15cb80 1 .cfa: $rsp .ra: .cfa 8 - ^
STACK CFI 15cb80 .cfa: $rsp 8 +
STACK CFI INIT 15cb90 1 .cfa: $rsp .ra: .cfa 8 - ^
STACK CFI 15cb90 .cfa: $rsp 8 +
STACK CFI INIT 15cba0 1 .cfa: $rsp .ra: .cfa 8 - ^
STACK CFI 15cba0 .cfa: $rsp 8 +
STACK CFI INIT 15cbb0 1 .cfa: $rsp .ra: .cfa 8 - ^
STACK CFI 15cbb0 .cfa: $rsp 8 +
STACK CFI INIT 15cbc0 1 .cfa: $rsp .ra: .cfa 8 - ^
STACK CFI 15cbc0 .cfa: $rsp 8 +
STACK CFI INIT 15cbd0 1 .cfa: $rsp .ra: .cfa 8 - ^
STACK CFI 15cbd0 .cfa: $rsp 8 +
STACK CFI INIT 15cbe0 1 .cfa: $rsp .ra: .cfa 8 - ^
STACK CFI 15cbe0 .cfa: $rsp 8 +
STACK CFI INIT 15cbf0 1 .cfa: $rsp .ra: .cfa 8 - ^
STACK CFI 15cbf0 .cfa: $rsp 8 +
STACK CFI INIT 15cc00 1 .cfa: $rsp .ra: .cfa 8 - ^
STACK CFI 15cc00 .cfa: $rsp 8 +
STACK CFI INIT 15cc10 1 .cfa: $rsp .ra: .cfa 8 - ^
STACK CFI 15cc10 .cfa: $rsp 8 +
STACK CFI INIT 15cc20 1 .cfa: $rsp .ra: .cfa 8 - ^
STACK CFI 15cc20 .cfa: $rsp 8 +
STACK CFI INIT 15cc30 1 .cfa: $rsp .ra: .cfa 8 - ^
STACK CFI 15cc30 .cfa: $rsp 8 +
STACK CFI INIT 15cc40 1 .cfa: $rsp .ra: .cfa 8 - ^
STACK CFI 15cc40 .cfa: $rsp 8 +
STACK CFI INIT 15cc50 1 .cfa: $rsp .ra: .cfa 8 - ^
STACK CFI 15cc50 .cfa: $rsp 8 +
STACK CFI INIT 15cc60 1 .cfa: $rsp .ra: .cfa 8 - ^
STACK CFI 15cc60 .cfa: $rsp 8 +
STACK CFI INIT 15cc70 1 .cfa: $rsp .ra: .cfa 8 - ^
STACK CFI 15cc70 .cfa: $rsp 8 +
STACK CFI INIT 15cc80 1 .cfa: $rsp .ra: .cfa 8 - ^
STACK CFI 15cc80 .cfa: $rsp 8 +
STACK CFI INIT 15cc90 1 .cfa: $rsp .ra: .cfa 8 - ^
STACK CFI 15cc90 .cfa: $rsp 8 +
STACK CFI INIT 15cca0 1 .cfa: $rsp .ra: .cfa 8 - ^
STACK CFI 15cca0 .cfa: $rsp 8 +
STACK CFI INIT 15ccb0 1 .cfa: $rsp .ra: .cfa 8 - ^
STACK CFI 15ccb0 .cfa: $rsp 8 +
STACK CFI INIT 15ccc0 1 .cfa: $rsp .ra: .cfa 8 - ^
STACK CFI 15ccc0 .cfa: $rsp 8 +
STACK CFI INIT 15ccd0 1 .cfa: $rsp .ra: .cfa 8 - ^
STACK CFI 15ccd0 .cfa: $rsp 8 +
STACK CFI INIT 15cce0 1 .cfa: $rsp .ra: .cfa 8 - ^
STACK CFI 15cce0 .cfa: $rsp 8 +
STACK CFI INIT 15ccf0 1 .cfa: $rsp .ra: .cfa 8 - ^
STACK CFI 15ccf0 .cfa: $rsp 8 +
STACK CFI INIT 15cd00 1 .cfa: $rsp .ra: .cfa 8 - ^
STACK CFI 15cd00 .cfa: $rsp 8 +
STACK CFI INIT 15cd10 1 .cfa: $rsp .ra: .cfa 8 - ^
STACK CFI 15cd10 .cfa: $rsp 8 +
STACK CFI INIT 15cd20 1 .cfa: $rsp .ra: .cfa 8 - ^
STACK CFI 15cd20 .cfa: $rsp 8 +
STACK CFI INIT 15cd30 1 .cfa: $rsp .ra: .cfa 8 - ^
STACK CFI 15cd30 .cfa: $rsp 8 +
STACK CFI INIT 15cd40 1 .cfa: $rsp .ra: .cfa 8 - ^
STACK CFI 15cd40 .cfa: $rsp 8 +
STACK CFI INIT 15cd50 1 .cfa: $rsp .ra: .cfa 8 - ^
STACK CFI 15cd50 .cfa: $rsp 8 +
STACK CFI INIT 15cd60 1 .cfa: $rsp .ra: .cfa 8 - ^
STACK CFI 15cd60 .cfa: $rsp 8 +
STACK CFI INIT 15cd70 1 .cfa: $rsp .ra: .cfa 8 - ^
STACK CFI 15cd70 .cfa: $rsp 8 +
STACK CFI INIT 15cd80 1 .cfa: $rsp .ra: .cfa 8 - ^
STACK CFI 15cd80 .cfa: $rsp 8 +
STACK CFI INIT 15cd90 1 .cfa: $rsp .ra: .cfa 8 - ^
STACK CFI 15cd90 .cfa: $rsp 8 +
STACK CFI INIT 15cda0 1 .cfa: $rsp .ra: .cfa 8 - ^
STACK CFI 15cda0 .cfa: $rsp 8 +
STACK CFI INIT 15cdb0 1 .cfa: $rsp .ra: .cfa 8 - ^
STACK CFI 15cdb0 .cfa: $rsp 8 +
STACK CFI INIT 15cdc0 1 .cfa: $rsp .ra: .cfa 8 - ^
STACK CFI 15cdc0 .cfa: $rsp 8 +
STACK CFI INIT 15cdd0 1 .cfa: $rsp .ra: .cfa 8 - ^
STACK CFI 15cdd0 .cfa: $rsp 8 +
STACK CFI INIT 15cde0 1 .cfa: $rsp .ra: .cfa 8 - ^
STACK CFI 15cde0 .cfa: $rsp 8 +
STACK CFI INIT 15cdf0 1 .cfa: $rsp .ra: .cfa 8 - ^
STACK CFI 15cdf0 .cfa: $rsp 8 +
STACK CFI INIT 15ce00 1 .cfa: $rsp .ra: .cfa 8 - ^
STACK CFI 15ce00 .cfa: $rsp 8 +
STACK CFI INIT 15ce10 1 .cfa: $rsp .ra: .cfa 8 - ^
STACK CFI 15ce10 .cfa: $rsp 8 +
STACK CFI INIT 15ce20 1 .cfa: $rsp .ra: .cfa 8 - ^
STACK CFI 15ce20 .cfa: $rsp 8 +
STACK CFI INIT 15ce30 1 .cfa: $rsp .ra: .cfa 8 - ^
STACK CFI 15ce30 .cfa: $rsp 8 +
STACK CFI INIT 15ce40 1 .cfa: $rsp .ra: .cfa 8 - ^
STACK CFI 15ce40 .cfa: $rsp 8 +
STACK CFI INIT 15ce50 1 .cfa: $rsp .ra: .cfa 8 - ^
STACK CFI 15ce50 .cfa: $rsp 8 +
STACK CFI INIT 15ce60 1 .cfa: $rsp .ra: .cfa 8 - ^
STACK CFI 15ce60 .cfa: $rsp 8 +
STACK CFI INIT 15ce70 1 .cfa: $rsp .ra: .cfa 8 - ^
STACK CFI 15ce70 .cfa: $rsp 8 +
STACK CFI INIT 15ce80 1 .cfa: $rsp .ra: .cfa 8 - ^
STACK CFI 15ce80 .cfa: $rsp 8 +
STACK CFI INIT 15ce90 1 .cfa: $rsp .ra: .cfa 8 - ^
STACK CFI 15ce90 .cfa: $rsp 8 +
STACK CFI INIT 15cea0 1 .cfa: $rsp .ra: .cfa 8 - ^
STACK CFI 15cea0 .cfa: $rsp 8 +
STACK CFI INIT 15ceb0 1 .cfa: $rsp .ra: .cfa 8 - ^
STACK CFI 15ceb0 .cfa: $rsp 8 +
STACK CFI INIT 15cec0 1 .cfa: $rsp .ra: .cfa 8 - ^
STACK CFI 15cec0 .cfa: $rsp 8 +
STACK CFI INIT 15ced0 1 .cfa: $rsp .ra: .cfa 8 - ^
STACK CFI 15ced0 .cfa: $rsp 8 +
STACK CFI INIT 15cee0 1 .cfa: $rsp .ra: .cfa 8 - ^
STACK CFI 15cee0 .cfa: $rsp 8 +
STACK CFI INIT 15cef0 1 .cfa: $rsp .ra: .cfa 8 - ^
STACK CFI 15cef0 .cfa: $rsp 8 +
STACK CFI INIT 15cf00 1 .cfa: $rsp .ra: .cfa 8 - ^
STACK CFI 15cf00 .cfa: $rsp 8 +
STACK CFI INIT 15cf10 1 .cfa: $rsp .ra: .cfa 8 - ^
STACK CFI 15cf10 .cfa: $rsp 8 +
STACK CFI INIT 15cf20 1 .cfa: $rsp .ra: .cfa 8 - ^
STACK CFI 15cf20 .cfa: $rsp 8 +
STACK CFI INIT 15cf30 1 .cfa: $rsp .ra: .cfa 8 - ^
STACK CFI 15cf30 .cfa: $rsp 8 +
STACK CFI INIT 15cf40 1 .cfa: $rsp .ra: .cfa 8 - ^
STACK CFI 15cf40 .cfa: $rsp 8 +
STACK CFI INIT 15cf50 1 .cfa: $rsp .ra: .cfa 8 - ^
STACK CFI 15cf50 .cfa: $rsp 8 +
STACK CFI INIT 15cf60 1 .cfa: $rsp .ra: .cfa 8 - ^
STACK CFI 15cf60 .cfa: $rsp 8 +
STACK CFI INIT 15cf70 1 .cfa: $rsp .ra: .cfa 8 - ^
STACK CFI 15cf70 .cfa: $rsp 8 +
STACK CFI INIT 15cf80 6 .cfa: $rsp .ra: .cfa 8 - ^
STACK CFI 15cf80 .cfa: $rsp 8 +
STACK CFI INIT 15cf90 1 .cfa: $rsp .ra: .cfa 8 - ^
STACK CFI 15cf90 .cfa: $rsp 8 +
STACK CFI INIT 15cfa0 a .cfa: $rsp .ra: .cfa 8 - ^
STACK CFI 15cfa0 .cfa: $rsp 8 +
STACK CFI INIT 15cfb0 1 .cfa: $rsp .ra: .cfa 8 - ^
STACK CFI 15cfb0 .cfa: $rsp 8 +
STACK CFI INIT 15cfc0 62 .cfa: $rsp .ra: .cfa 8 - ^
STACK CFI 15cfc0 .cfa: $rsp 80 +
STACK CFI INIT 15d030 3b .cfa: $rsp .ra: .cfa 8 - ^
STACK CFI 15d030 .cfa: $rsp 64 +
STACK CFI INIT 15d070 97 .cfa: $rsp .ra: .cfa 8 - ^
STACK CFI 15d070 .cfa: $rsp 64 +
STACK CFI INIT 15d110 2a .cfa: $rsp .ra: .cfa 8 - ^
STACK CFI 15d110 .cfa: $rsp 8 +
STACK CFI INIT 15d140 78 .cfa: $rsp .ra: .cfa 8 - ^
STACK CFI 15d140 .cfa: $rsp 64 +
STACK CFI INIT 15d1c0 231 .cfa: $rsp .ra: .cfa 8 - ^
STACK CFI 15d1c0 .cfa: $rsp 96 +
STACK CFI INIT 15d400 24 .cfa: $rsp .ra: .cfa 8 - ^
STACK CFI 15d400 .cfa: $rsp 8 +
STACK CFI INIT 15d430 11d .cfa: $rsp .ra: .cfa 8 - ^
STACK CFI 15d430 .cfa: $rsp 64 +
STACK CFI INIT 15d550 1d .cfa: $rsp .ra: .cfa 8 - ^
STACK CFI 15d550 .cfa: $rsp 8 +
STACK CFI INIT 15d570 225 .cfa: $rsp .ra: .cfa 8 - ^
STACK CFI 15d570 .cfa: $rsp 64 +
STACK CFI INIT 15d7a0 389 .cfa: $rsp .ra: .cfa 8 - ^
STACK CFI 15d7a0 .cfa: $rsp 128 +
STACK CFI INIT 15db30 b6 .cfa: $rsp .ra: .cfa 8 - ^
STACK CFI 15db30 .cfa: $rsp 64 +
STACK CFI INIT 15dbf0 1f0 .cfa: $rsp .ra: .cfa 8 - ^
STACK CFI 15dbf0 .cfa: $rsp 272 +
STACK CFI INIT 15dde0 51 .cfa: $rsp .ra: .cfa 8 - ^
STACK CFI 15dde0 .cfa: $rsp 48 +
STACK CFI INIT 15de40 315 .cfa: $rsp .ra: .cfa 8 - ^
STACK CFI 15de40 .cfa: $rsp 320 +
STACK CFI INIT 15e160 3ec .cfa: $rsp .ra: .cfa 8 - ^
STACK CFI 15e160 .cfa: $rsp 144 +
STACK CFI INIT 15e550 151 .cfa: $rsp .ra: .cfa 8 - ^
STACK CFI 15e550 .cfa: $rsp 80 +
STACK CFI INIT 15e6b0 8d .cfa: $rsp .ra: .cfa 8 - ^
STACK CFI 15e6b0 .cfa: $rsp 64 +
STACK CFI INIT 15e740 a71 .cfa: $rsp .ra: .cfa 8 - ^
STACK CFI 15e740 .cfa: $rsp 112 +
STACK CFI INIT 15f1c0 38 .cfa: $rsp .ra: .cfa 8 - ^
STACK CFI 15f1c0 .cfa: $rsp 48 +
STACK CFI INIT 15f200 13c .cfa: $rsp .ra: .cfa 8 - ^
STACK CFI 15f200 .cfa: $rsp 96 +
STACK CFI INIT 15f340 8a .cfa: $rsp .ra: .cfa 8 - ^
STACK CFI 15f340 .cfa: $rsp 8 +
STACK CFI INIT 15f3d0 84 .cfa: $rsp .ra: .cfa 8 - ^
STACK CFI 15f3d0 .cfa: $rsp 8 +
STACK CFI INIT 15f460 177 .cfa: $rsp .ra: .cfa 8 - ^
STACK CFI 15f460 .cfa: $rsp 144 +
STACK CFI INIT 15f5e0 18 .cfa: $rsp .ra: .cfa 8 - ^
STACK CFI 15f5e0 .cfa: $rsp 8 +
STACK CFI INIT 15f600 1a .cfa: $rsp .ra: .cfa 8 - ^
STACK CFI 15f600 .cfa: $rsp 8 +
STACK CFI INIT 15f620 8 .cfa: $rsp .ra: .cfa 8 - ^
STACK CFI 15f620 .cfa: $rsp 8 +
STACK CFI INIT 15f630 3 .cfa: $rsp .ra: .cfa 8 - ^
STACK CFI 15f630 .cfa: $rsp 8 +
STACK CFI INIT 15f640 8 .cfa: $rsp .ra: .cfa 8 - ^
STACK CFI 15f640 .cfa: $rsp 8 +
STACK CFI INIT 15f650 be .cfa: $rsp .ra: .cfa 8 - ^
STACK CFI 15f650 .cfa: $rsp 80 +
STACK CFI INIT 15f710 66 .cfa: $rsp .ra: .cfa 8 - ^
STACK CFI 15f710 .cfa: $rsp 64 +
STACK CFI INIT 15f780 85 .cfa: $rsp .ra: .cfa 8 - ^
STACK CFI 15f780 .cfa: $rsp 80 +
STACK CFI INIT 15f810 66 .cfa: $rsp .ra: .cfa 8 - ^
STACK CFI 15f810 .cfa: $rsp 64 +
STACK CFI INIT 15f880 6e .cfa: $rsp .ra: .cfa 8 - ^
STACK CFI 15f880 .cfa: $rsp 80 +
STACK CFI INIT 15f8f0 90 .cfa: $rsp .ra: .cfa 8 - ^
STACK CFI 15f8f0 .cfa: $rsp 16 +
STACK CFI INIT 15f980 90 .cfa: $rsp .ra: .cfa 8 - ^
STACK CFI 15f980 .cfa: $rsp 16 +
STACK CFI INIT 15fa10 90 .cfa: $rsp .ra: .cfa 8 - ^
STACK CFI 15fa10 .cfa: $rsp 16 +
STACK CFI INIT 15faa0 7a .cfa: $rsp .ra: .cfa 8 - ^
STACK CFI 15faa0 .cfa: $rsp 16 +
STACK CFI INIT 15fb20 90 .cfa: $rsp .ra: .cfa 8 - ^
STACK CFI 15fb20 .cfa: $rsp 16 +
STACK CFI INIT 15fbb0 a4 .cfa: $rsp .ra: .cfa 8 - ^
STACK CFI 15fbb0 .cfa: $rsp 80 +
STACK CFI INIT 15fc60 8 .cfa: $rsp .ra: .cfa 8 - ^
STACK CFI 15fc60 .cfa: $rsp 8 +
STACK CFI INIT 15fc70 8 .cfa: $rsp .ra: .cfa 8 - ^
STACK CFI 15fc70 .cfa: $rsp 8 +
STACK CFI INIT 15fc80 8 .cfa: $rsp .ra: .cfa 8 - ^
STACK CFI 15fc80 .cfa: $rsp 8 +
STACK CFI INIT 15fc90 6 .cfa: $rsp .ra: .cfa 8 - ^
STACK CFI 15fc90 .cfa: $rsp 8 +
STACK CFI INIT 15fca0 6 .cfa: $rsp .ra: .cfa 8 - ^
STACK CFI 15fca0 .cfa: $rsp 8 +
STACK CFI INIT 15fcb0 6 .cfa: $rsp .ra: .cfa 8 - ^
STACK CFI 15fcb0 .cfa: $rsp 8 +
STACK CFI INIT 15fcc0 6 .cfa: $rsp .ra: .cfa 8 - ^
STACK CFI 15fcc0 .cfa: $rsp 8 +
STACK CFI INIT 15fcd0 6 .cfa: $rsp .ra: .cfa 8 - ^
STACK CFI 15fcd0 .cfa: $rsp 8 +
STACK CFI INIT 15fce0 6 .cfa: $rsp .ra: .cfa 8 - ^
STACK CFI 15fce0 .cfa: $rsp 8 +
STACK CFI INIT 15fcf0 5 .cfa: $rsp .ra: .cfa 8 - ^
STACK CFI 15fcf0 .cfa: $rsp 8 +
STACK CFI INIT 15fd00 6 .cfa: $rsp .ra: .cfa 8 - ^
STACK CFI 15fd00 .cfa: $rsp 8 +
STACK CFI INIT 15fd10 6 .cfa: $rsp .ra: .cfa 8 - ^
STACK CFI 15fd10 .cfa: $rsp 8 +
STACK CFI INIT 15fd20 8 .cfa: $rsp .ra: .cfa 8 - ^
STACK CFI 15fd20 .cfa: $rsp 8 +
STACK CFI INIT 15fd30 6 .cfa: $rsp .ra: .cfa 8 - ^
STACK CFI 15fd30 .cfa: $rsp 8 +
STACK CFI INIT 15fd40 6 .cfa: $rsp .ra: .cfa 8 - ^
STACK CFI 15fd40 .cfa: $rsp 8 +
STACK CFI INIT 15fd50 8 .cfa: $rsp .ra: .cfa 8 - ^
STACK CFI 15fd50 .cfa: $rsp 8 +
STACK CFI INIT 15fd60 8 .cfa: $rsp .ra: .cfa 8 - ^
STACK CFI 15fd60 .cfa: $rsp 8 +
STACK CFI INIT 15fd70 df .cfa: $rsp .ra: .cfa 8 - ^
STACK CFI 15fd70 .cfa: $rsp 128 +
STACK CFI INIT 15fe50 8 .cfa: $rsp .ra: .cfa 8 - ^
STACK CFI 15fe50 .cfa: $rsp 8 +
STACK CFI INIT 15fe60 8 .cfa: $rsp .ra: .cfa 8 - ^
STACK CFI 15fe60 .cfa: $rsp 8 +
STACK CFI INIT 15fe70 8 .cfa: $rsp .ra: .cfa 8 - ^
STACK CFI 15fe70 .cfa: $rsp 8 +
STACK CFI INIT 15fe80 8 .cfa: $rsp .ra: .cfa 8 - ^
STACK CFI 15fe80 .cfa: $rsp 8 +
STACK CFI INIT 15fe90 8 .cfa: $rsp .ra: .cfa 8 - ^
STACK CFI 15fe90 .cfa: $rsp 8 +
STACK CFI INIT 15fea0 6 .cfa: $rsp .ra: .cfa 8 - ^
STACK CFI 15fea0 .cfa: $rsp 8 +
STACK CFI INIT 15feb0 3 .cfa: $rsp .ra: .cfa 8 - ^
STACK CFI 15feb0 .cfa: $rsp 8 +
STACK CFI INIT 15fec0 3 .cfa: $rsp .ra: .cfa 8 - ^
STACK CFI 15fec0 .cfa: $rsp 8 +
STACK CFI INIT 15fed0 3 .cfa: $rsp .ra: .cfa 8 - ^
STACK CFI 15fed0 .cfa: $rsp 8 +
STACK CFI INIT 15fee0 3 .cfa: $rsp .ra: .cfa 8 - ^
STACK CFI 15fee0 .cfa: $rsp 8 +
STACK CFI INIT 15fef0 8 .cfa: $rsp .ra: .cfa 8 - ^
STACK CFI 15fef0 .cfa: $rsp 8 +
STACK CFI INIT 15ff00 3 .cfa: $rsp .ra: .cfa 8 - ^
STACK CFI 15ff00 .cfa: $rsp 8 +
STACK CFI INIT 15ff10 3 .cfa: $rsp .ra: .cfa 8 - ^
STACK CFI 15ff10 .cfa: $rsp 8 +
STACK CFI INIT 15ff20 3 .cfa: $rsp .ra: .cfa 8 - ^
STACK CFI 15ff20 .cfa: $rsp 8 +
STACK CFI INIT 15ff30 3 .cfa: $rsp .ra: .cfa 8 - ^
STACK CFI 15ff30 .cfa: $rsp 8 +
STACK CFI INIT 15ff40 3 .cfa: $rsp .ra: .cfa 8 - ^
STACK CFI 15ff40 .cfa: $rsp 8 +
STACK CFI INIT 15ff50 3 .cfa: $rsp .ra: .cfa 8 - ^
STACK CFI 15ff50 .cfa: $rsp 8 +
STACK CFI INIT 15ff60 3 .cfa: $rsp .ra: .cfa 8 - ^
STACK CFI 15ff60 .cfa: $rsp 8 +
STACK CFI INIT 15ff70 3 .cfa: $rsp .ra: .cfa 8 - ^
STACK CFI 15ff70 .cfa: $rsp 8 +
STACK CFI INIT 15ff80 3 .cfa: $rsp .ra: .cfa 8 - ^
STACK CFI 15ff80 .cfa: $rsp 8 +
STACK CFI INIT 15ff90 3 .cfa: $rsp .ra: .cfa 8 - ^
STACK CFI 15ff90 .cfa: $rsp 8 +
STACK CFI INIT 15ffa0 3 .cfa: $rsp .ra: .cfa 8 - ^
STACK CFI 15ffa0 .cfa: $rsp 8 +
STACK CFI INIT 15ffb0 3 .cfa: $rsp .ra: .cfa 8 - ^
STACK CFI 15ffb0 .cfa: $rsp 8 +
STACK CFI INIT 15ffc0 3 .cfa: $rsp .ra: .cfa 8 - ^
STACK CFI 15ffc0 .cfa: $rsp 8 +
STACK CFI INIT 15ffd0 6 .cfa: $rsp .ra: .cfa 8 - ^
STACK CFI 15ffd0 .cfa: $rsp 8 +
STACK CFI INIT 15ffe0 6 .cfa: $rsp .ra: .cfa 8 - ^
STACK CFI 15ffe0 .cfa: $rsp 8 +
STACK CFI INIT 15fff0 3 .cfa: $rsp .ra: .cfa 8 - ^
STACK CFI 15fff0 .cfa: $rsp 8 +
STACK CFI INIT 160000 6 .cfa: $rsp .ra: .cfa 8 - ^
STACK CFI 160000 .cfa: $rsp 8 +
STACK CFI INIT 160010 b .cfa: $rsp .ra: .cfa 8 - ^
STACK CFI 160010 .cfa: $rsp 8 +
STACK CFI INIT 160020 6 .cfa: $rsp .ra: .cfa 8 - ^
STACK CFI 160020 .cfa: $rsp 8 +
STACK CFI INIT 160030 6 .cfa: $rsp .ra: .cfa 8 - ^
STACK CFI 160030 .cfa: $rsp 8 +
STACK CFI INIT 160040 8 .cfa: $rsp .ra: .cfa 8 - ^
STACK CFI 160040 .cfa: $rsp 8 +
STACK CFI INIT 160050 8 .cfa: $rsp .ra: .cfa 8 - ^
STACK CFI 160050 .cfa: $rsp 8 +
STACK CFI INIT 160060 2de .cfa: $rsp .ra: .cfa 8 - ^
STACK CFI 160060 .cfa: $rsp 176 +
STACK CFI INIT 160340 2d7 .cfa: $rsp .ra: .cfa 8 - ^
STACK CFI 160340 .cfa: $rsp 160 +
STACK CFI INIT 160620 8 .cfa: $rsp .ra: .cfa 8 - ^
STACK CFI 160620 .cfa: $rsp 8 +
STACK CFI INIT 160630 8b .cfa: $rsp .ra: .cfa 8 - ^
STACK CFI 160630 .cfa: $rsp 80 +
STACK CFI INIT 1606c0 2de .cfa: $rsp .ra: .cfa 8 - ^
STACK CFI 1606c0 .cfa: $rsp 176 +
STACK CFI INIT 1609a0 2d7 .cfa: $rsp .ra: .cfa 8 - ^
STACK CFI 1609a0 .cfa: $rsp 160 +
STACK CFI INIT 160c80 8 .cfa: $rsp .ra: .cfa 8 - ^
STACK CFI 160c80 .cfa: $rsp 8 +
STACK CFI INIT 160c90 8d .cfa: $rsp .ra: .cfa 8 - ^
STACK CFI 160c90 .cfa: $rsp 80 +
STACK CFI INIT 160d20 6 .cfa: $rsp .ra: .cfa 8 - ^
STACK CFI 160d20 .cfa: $rsp 8 +
STACK CFI INIT 160d30 8 .cfa: $rsp .ra: .cfa 8 - ^
STACK CFI 160d30 .cfa: $rsp 8 +
STACK CFI INIT 160d40 8 .cfa: $rsp .ra: .cfa 8 - ^
STACK CFI 160d40 .cfa: $rsp 8 +
STACK CFI INIT 160d50 6 .cfa: $rsp .ra: .cfa 8 - ^
STACK CFI 160d50 .cfa: $rsp 8 +
STACK CFI INIT 160d60 8 .cfa: $rsp .ra: .cfa 8 - ^
STACK CFI 160d60 .cfa: $rsp 8 +
STACK CFI INIT 160d70 6 .cfa: $rsp .ra: .cfa 8 - ^
STACK CFI 160d70 .cfa: $rsp 8 +
STACK CFI INIT 160d80 6 .cfa: $rsp .ra: .cfa 8 - ^
STACK CFI 160d80 .cfa: $rsp 8 +
STACK CFI INIT 160d90 8 .cfa: $rsp .ra: .cfa 8 - ^
STACK CFI 160d90 .cfa: $rsp 8 +
STACK CFI INIT 160da0 8 .cfa: $rsp .ra: .cfa 8 - ^
STACK CFI 160da0 .cfa: $rsp 8 +
STACK CFI INIT 160db0 8 .cfa: $rsp .ra: .cfa 8 - ^
STACK CFI 160db0 .cfa: $rsp 8 +
STACK CFI INIT 160dc0 1d .cfa: $rsp .ra: .cfa 8 - ^
STACK CFI 160dc0 .cfa: $rsp 48 +
STACK CFI INIT 160de0 6 .cfa: $rsp .ra: .cfa 8 - ^
STACK CFI 160de0 .cfa: $rsp 8 +
STACK CFI INIT 160df0 6 .cfa: $rsp .ra: .cfa 8 - ^
STACK CFI 160df0 .cfa: $rsp 8 +
STACK CFI INIT 160e00 8 .cfa: $rsp .ra: .cfa 8 - ^
STACK CFI 160e00 .cfa: $rsp 8 +
STACK CFI INIT 160e10 6 .cfa: $rsp .ra: .cfa 8 - ^
STACK CFI 160e10 .cfa: $rsp 8 +
STACK CFI INIT 160e20 1d .cfa: $rsp .ra: .cfa 8 - ^
STACK CFI 160e20 .cfa: $rsp 48 +
STACK CFI INIT 160e40 3 .cfa: $rsp .ra: .cfa 8 - ^
STACK CFI 160e40 .cfa: $rsp 8 +
STACK CFI INIT 160e50 3 .cfa: $rsp .ra: .cfa 8 - ^
STACK CFI 160e50 .cfa: $rsp 8 +
STACK CFI INIT 160e60 6 .cfa: $rsp .ra: .cfa 8 - ^
STACK CFI 160e60 .cfa: $rsp 8 +
STACK CFI INIT 160e70 8 .cfa: $rsp .ra: .cfa 8 - ^
STACK CFI 160e70 .cfa: $rsp 8 +
STACK CFI INIT 160e80 2bd .cfa: $rsp .ra: .cfa 8 - ^
STACK CFI 160e80 .cfa: $rsp 96 +
STACK CFI INIT 161140 8a .cfa: $rsp .ra: .cfa 8 - ^
STACK CFI 161140 .cfa: $rsp 32 +
STACK CFI INIT 1611d0 344 .cfa: $rsp .ra: .cfa 8 - ^
STACK CFI 1611d0 .cfa: $rsp 112 +
STACK CFI INIT 161520 8c .cfa: $rsp .ra: .cfa 8 - ^
STACK CFI 161520 .cfa: $rsp 32 +
STACK CFI INIT 1615b0 a .cfa: $rsp .ra: .cfa 8 - ^
STACK CFI 1615b0 .cfa: $rsp 8 +
STACK CFI INIT 1615c0 3 .cfa: $rsp .ra: .cfa 8 - ^
STACK CFI 1615c0 .cfa: $rsp 8 +
STACK CFI INIT 1615d0 3 .cfa: $rsp .ra: .cfa 8 - ^
STACK CFI 1615d0 .cfa: $rsp 8 +
STACK CFI INIT 1615e0 3 .cfa: $rsp .ra: .cfa 8 - ^
STACK CFI 1615e0 .cfa: $rsp 8 +
STACK CFI INIT 1615f0 3 .cfa: $rsp .ra: .cfa 8 - ^
STACK CFI 1615f0 .cfa: $rsp 8 +
STACK CFI INIT 161600 3 .cfa: $rsp .ra: .cfa 8 - ^
STACK CFI 161600 .cfa: $rsp 8 +
STACK CFI INIT 161610 276 .cfa: $rsp .ra: .cfa 8 - ^
STACK CFI 161610 .cfa: $rsp 144 +
STACK CFI INIT 161890 123 .cfa: $rsp .ra: .cfa 8 - ^
STACK CFI 161890 .cfa: $rsp 176 +
STACK CFI INIT 1619c0 6 .cfa: $rsp .ra: .cfa 8 - ^
STACK CFI 1619c0 .cfa: $rsp 8 +
STACK CFI INIT 1619d0 8 .cfa: $rsp .ra: .cfa 8 - ^
STACK CFI 1619d0 .cfa: $rsp 8 +
STACK CFI INIT 1619e0 6 .cfa: $rsp .ra: .cfa 8 - ^
STACK CFI 1619e0 .cfa: $rsp 8 +
STACK CFI INIT 1619f0 6 .cfa: $rsp .ra: .cfa 8 - ^
STACK CFI 1619f0 .cfa: $rsp 8 +
STACK CFI INIT 161a00 16c .cfa: $rsp .ra: .cfa 8 - ^
STACK CFI 161a00 .cfa: $rsp 80 +
STACK CFI INIT 161b70 8 .cfa: $rsp .ra: .cfa 8 - ^
STACK CFI 161b70 .cfa: $rsp 8 +
STACK CFI INIT 161b80 1d .cfa: $rsp .ra: .cfa 8 - ^
STACK CFI 161b80 .cfa: $rsp 48 +
STACK CFI INIT 161ba0 8 .cfa: $rsp .ra: .cfa 8 - ^
STACK CFI 161ba0 .cfa: $rsp 8 +
STACK CFI INIT 161bb0 8 .cfa: $rsp .ra: .cfa 8 - ^
STACK CFI 161bb0 .cfa: $rsp 8 +
STACK CFI INIT 161bc0 8 .cfa: $rsp .ra: .cfa 8 - ^
STACK CFI 161bc0 .cfa: $rsp 8 +
STACK CFI INIT 161bd0 6 .cfa: $rsp .ra: .cfa 8 - ^
STACK CFI 161bd0 .cfa: $rsp 8 +
STACK CFI INIT 161be0 8 .cfa: $rsp .ra: .cfa 8 - ^
STACK CFI 161be0 .cfa: $rsp 8 +
STACK CFI INIT 161bf0 8 .cfa: $rsp .ra: .cfa 8 - ^
STACK CFI 161bf0 .cfa: $rsp 8 +
STACK CFI INIT 161c00 1e .cfa: $rsp .ra: .cfa 8 - ^
STACK CFI 161c00 .cfa: $rsp 48 +
STACK CFI INIT 161c20 63 .cfa: $rsp .ra: .cfa 8 - ^
STACK CFI 161c20 .cfa: $rsp 8 +
STACK CFI INIT 161c90 f9 .cfa: $rsp .ra: .cfa 8 - ^
STACK CFI 161c90 .cfa: $rsp 96 +
STACK CFI INIT 161d90 22e .cfa: $rsp .ra: .cfa 8 - ^
STACK CFI 161d90 .cfa: $rsp 144 +
STACK CFI INIT 161fc0 15f .cfa: $rsp .ra: .cfa 8 - ^
STACK CFI 161fc0 .cfa: $rsp 160 +
STACK CFI INIT 162120 e0 .cfa: $rsp .ra: .cfa 8 - ^
STACK CFI 162120 .cfa: $rsp 112 +
STACK CFI INIT 162200 24c .cfa: $rsp .ra: .cfa 8 - ^
STACK CFI 162200 .cfa: $rsp 160 +
STACK CFI INIT 162450 a5 .cfa: $rsp .ra: .cfa 8 - ^
STACK CFI 162450 .cfa: $rsp 80 +
STACK CFI INIT 162500 db .cfa: $rsp .ra: .cfa 8 - ^
STACK CFI 162500 .cfa: $rsp 64 +
STACK CFI INIT 1625e0 cb .cfa: $rsp .ra: .cfa 8 - ^
STACK CFI 1625e0 .cfa: $rsp 48 +
STACK CFI INIT 1626b0 1e0 .cfa: $rsp .ra: .cfa 8 - ^
STACK CFI 1626b0 .cfa: $rsp 96 +
STACK CFI INIT 162890 1c1 .cfa: $rsp .ra: .cfa 8 - ^
STACK CFI 162890 .cfa: $rsp 80 +
STACK CFI INIT 162a60 db .cfa: $rsp .ra: .cfa 8 - ^
STACK CFI 162a60 .cfa: $rsp 64 +
STACK CFI INIT 162b40 cb .cfa: $rsp .ra: .cfa 8 - ^
STACK CFI 162b40 .cfa: $rsp 48 +
STACK CFI INIT 162c10 64 .cfa: $rsp .ra: .cfa 8 - ^
STACK CFI 162c10 .cfa: $rsp 48 +
STACK CFI INIT 162c80 51 .cfa: $rsp .ra: .cfa 8 - ^
STACK CFI 162c80 .cfa: $rsp 8 +
STACK CFI INIT 162ce0 2d .cfa: $rsp .ra: .cfa 8 - ^
STACK CFI 162ce0 .cfa: $rsp 48 +
STACK CFI INIT 162d10 a .cfa: $rsp .ra: .cfa 8 - ^
STACK CFI 162d10 .cfa: $rsp 112 +
STACK CFI INIT 162d20 14 .cfa: $rsp .ra: .cfa 8 - ^
STACK CFI 162d20 .cfa: $rsp 112 +
STACK CFI INIT 162d40 9 .cfa: $rsp .ra: .cfa 8 - ^
STACK CFI 162d40 .cfa: $rsp 80 +
STACK CFI INIT 162d50 a .cfa: $rsp .ra: .cfa 8 - ^
STACK CFI 162d50 .cfa: $rsp 160 +
STACK CFI INIT 162d60 10 .cfa: $rsp .ra: .cfa 8 - ^
STACK CFI 162d60 .cfa: $rsp 144 +
STACK CFI INIT 162d70 10 .cfa: $rsp .ra: .cfa 8 - ^
STACK CFI 162d70 .cfa: $rsp 160 +
STACK CFI INIT 162d80 f .cfa: $rsp .ra: .cfa 8 - ^
STACK CFI 162d80 .cfa: $rsp 8 +
STACK CFI INIT 162d90 f .cfa: $rsp .ra: .cfa 8 - ^
STACK CFI 162d90 .cfa: $rsp 8 +
STACK CFI INIT 162da0 a .cfa: $rsp .ra: .cfa 8 - ^
STACK CFI 162da0 .cfa: $rsp 144 +
STACK CFI INIT 162db0 a .cfa: $rsp .ra: .cfa 8 - ^
STACK CFI 162db0 .cfa: $rsp 144 +
STACK CFI INIT 162dba a .cfa: $rsp .ra: .cfa 8 - ^
STACK CFI 162dba .cfa: $rsp 112 +
STACK CFI INIT 162dc4 a .cfa: $rsp .ra: .cfa 8 - ^
STACK CFI 162dc4 .cfa: $rsp 112 +
STACK CFI INIT 162dd0 f .cfa: $rsp .ra: .cfa 8 - ^
STACK CFI 162dd0 .cfa: $rsp 8 +
STACK CFI INIT 162de0 12 .cfa: $rsp .ra: .cfa 8 - ^
STACK CFI 162de0 .cfa: $rsp 64 +
STACK CFI INIT 162e00 a .cfa: $rsp .ra: .cfa 8 - ^
STACK CFI 162e00 .cfa: $rsp 192 +
STACK CFI INIT 162e0a a .cfa: $rsp .ra: .cfa 8 - ^
STACK CFI 162e0a .cfa: $rsp 160 +
STACK CFI INIT 162e14 a .cfa: $rsp .ra: .cfa 8 - ^
STACK CFI 162e14 .cfa: $rsp 112 +
STACK CFI INIT 162e1e a .cfa: $rsp .ra: .cfa 8 - ^
STACK CFI 162e1e .cfa: $rsp 128 +
STACK CFI INIT 162e28 a .cfa: $rsp .ra: .cfa 8 - ^
STACK CFI 162e28 .cfa: $rsp 176 +
STACK CFI INIT 162e32 a .cfa: $rsp .ra: .cfa 8 - ^
STACK CFI 162e32 .cfa: $rsp 176 +
STACK CFI INIT 162e3c a .cfa: $rsp .ra: .cfa 8 - ^
STACK CFI 162e3c .cfa: $rsp 176 +
STACK CFI INIT 162e46 a .cfa: $rsp .ra: .cfa 8 - ^
STACK CFI 162e46 .cfa: $rsp 192 +
STACK CFI INIT 162e50 a .cfa: $rsp .ra: .cfa 8 - ^
STACK CFI 162e50 .cfa: $rsp 192 +
STACK CFI INIT 162e5a a .cfa: $rsp .ra: .cfa 8 - ^
STACK CFI 162e5a .cfa: $rsp 176 +
STACK CFI INIT 162e70 a .cfa: $rsp .ra: .cfa 8 - ^
STACK CFI 162e70 .cfa: $rsp 208 +
STACK CFI INIT 162e80 a .cfa: $rsp .ra: .cfa 8 - ^
STACK CFI 162e80 .cfa: $rsp 64 +
STACK CFI INIT 162e8a a .cfa: $rsp .ra: .cfa 8 - ^
STACK CFI 162e8a .cfa: $rsp 8 +
STACK CFI INIT 162e94 14 .cfa: $rsp .ra: .cfa 8 - ^
STACK CFI 162e94 .cfa: $rsp 128 +
STACK CFI INIT 162ea8 a .cfa: $rsp .ra: .cfa 8 - ^
STACK CFI 162ea8 .cfa: $rsp 160 +
STACK CFI INIT 162eb2 a .cfa: $rsp .ra: .cfa 8 - ^
STACK CFI 162eb2 .cfa: $rsp 160 +
STACK CFI INIT 162ebc 14 .cfa: $rsp .ra: .cfa 8 - ^
STACK CFI 162ebc .cfa: $rsp 128 +
STACK CFI INIT 162ed0 16 .cfa: $rsp .ra: .cfa 8 - ^
STACK CFI 162ed0 .cfa: $rsp 8 +
STACK CFI INIT 162ef0 a .cfa: $rsp .ra: .cfa 8 - ^
STACK CFI 162ef0 .cfa: $rsp 112 +
STACK CFI INIT 162efa a .cfa: $rsp .ra: .cfa 8 - ^
STACK CFI 162efa .cfa: $rsp 208 +
STACK CFI INIT 162f04 a .cfa: $rsp .ra: .cfa 8 - ^
STACK CFI 162f04 .cfa: $rsp 128 +
STACK CFI INIT 162f10 f .cfa: $rsp .ra: .cfa 8 - ^
STACK CFI 162f10 .cfa: $rsp 8 +
STACK CFI INIT 162f20 69 .cfa: $rsp .ra: .cfa 8 - ^
STACK CFI 162f20 .cfa: $rsp 80 +
STACK CFI INIT 162f90 5 .cfa: $rsp .ra: .cfa 8 - ^
STACK CFI 162f90 .cfa: $rsp 8 +
